	.text
	.syntax unified
	.eabi_attribute	67, "2.09"
	.eabi_attribute	6, 12
	.eabi_attribute	8, 0
	.eabi_attribute	9, 1
	.eabi_attribute	17, 1
	.eabi_attribute	20, 1
	.eabi_attribute	21, 1
	.eabi_attribute	23, 3
	.eabi_attribute	34, 0
	.eabi_attribute	24, 1
	.eabi_attribute	25, 1
	.eabi_attribute	38, 1
	.eabi_attribute	14, 0
	.code	16
	.file	"onebutton0-d53f7d6bdd932a9b11ea8316acae15bd.rs"


	.weak	WWDG
WWDG = DH_TRAMPOLINE
	.weak	PVD
PVD = DH_TRAMPOLINE
	.weak	RTC
RTC = DH_TRAMPOLINE
	.weak	FLASH
FLASH = DH_TRAMPOLINE
	.weak	RCC_CRS
RCC_CRS = DH_TRAMPOLINE
	.weak	EXTI0_1
EXTI0_1 = DH_TRAMPOLINE
	.weak	EXTI2_3
EXTI2_3 = DH_TRAMPOLINE
	.weak	EXTI4_15
EXTI4_15 = DH_TRAMPOLINE
	.weak	TSC
TSC = DH_TRAMPOLINE
	.weak	DMA_CH1
DMA_CH1 = DH_TRAMPOLINE
	.weak	DMA_CH2_3
DMA_CH2_3 = DH_TRAMPOLINE
	.weak	DMA_CH4_5_6_7
DMA_CH4_5_6_7 = DH_TRAMPOLINE
	.weak	ADC_COMP
ADC_COMP = DH_TRAMPOLINE
	.weak	TIM1_BRK_UP_TRG_COM
TIM1_BRK_UP_TRG_COM = DH_TRAMPOLINE
	.weak	TIM1_CC
TIM1_CC = DH_TRAMPOLINE
	.weak	TIM2
TIM2 = DH_TRAMPOLINE
	.weak	TIM3
TIM3 = DH_TRAMPOLINE
	.weak	TIM14
TIM14 = DH_TRAMPOLINE
	.weak	TIM16
TIM16 = DH_TRAMPOLINE
	.weak	TIM17
TIM17 = DH_TRAMPOLINE
	.weak	I2C1
I2C1 = DH_TRAMPOLINE
	.weak	SPI1
SPI1 = DH_TRAMPOLINE
	.weak	SPI2
SPI2 = DH_TRAMPOLINE
	.weak	USART1
USART1 = DH_TRAMPOLINE
	.weak	USART2
USART2 = DH_TRAMPOLINE
	.weak	CEC_CAN
CEC_CAN = DH_TRAMPOLINE
	.weak	USB
USB = DH_TRAMPOLINE


	.weak	NMI
NMI = DEFAULT_HANDLER

	.weak	HARD_FAULT
HARD_FAULT = DEFAULT_HANDLER

	.weak	MEM_MANAGE
MEM_MANAGE = DEFAULT_HANDLER

	.weak	BUS_FAULT
BUS_FAULT = DEFAULT_HANDLER

	.weak	USAGE_FAULT
USAGE_FAULT = DEFAULT_HANDLER

	.weak	SVCALL
SVCALL = DEFAULT_HANDLER

	.weak	PENDSV
PENDSV = DEFAULT_HANDLER

	.weak	SYS_TICK
SYS_TICK = DEFAULT_HANDLER


	.file	1 "/Users/arko/GitHub/OneButton/Firmware/Rust/src/svd.rs"
	.file	2 "/Users/arko/.cargo/registry/src/github.com-1ecc6299db9ec823/cortex-m-rt-0.3.6/src/lib.rs"
	.file	3 "/Users/arko/.rustup/toolchains/nightly-x86_64-apple-darwin/lib/rustlib/src/rust/src/libcore/num/flt2dec/strategy/dragon.rs"
	.file	4 "/Users/arko/.rustup/toolchains/nightly-x86_64-apple-darwin/lib/rustlib/src/rust/src/libcore/num/flt2dec/strategy/grisu.rs"
	.file	5 "/Users/arko/.rustup/toolchains/nightly-x86_64-apple-darwin/lib/rustlib/src/rust/src/libcore/num/mod.rs"
	.file	6 "/Users/arko/.rustup/toolchains/nightly-x86_64-apple-darwin/lib/rustlib/src/rust/src/libcore/str/mod.rs"
	.section	.text.main,"ax",%progbits
	.globl	main
	.p2align	2
	.type	main,%function
	.code	16
	.thumb_func
main:
.Lfunc_begin0:
	.fnstart
	.cfi_sections .debug_frame
	.cfi_startproc
	.save	{r4, r5, r6, r7, lr}
	push	{r4, r5, r6, r7, lr}
.Lcfi0:
	.cfi_def_cfa_offset 20
.Lcfi1:
	.cfi_offset lr, -4
.Lcfi2:
	.cfi_offset r7, -8
.Lcfi3:
	.cfi_offset r6, -12
.Lcfi4:
	.cfi_offset r5, -16
.Lcfi5:
	.cfi_offset r4, -20
	.setfp	r7, sp, #12
	add	r7, sp, #12
.Lcfi6:
	.cfi_def_cfa r7, 8
	.pad	#260
	sub	sp, #260
	ldr	r0, .LCPI0_0
	ldrb	r0, [r0]
	.file	7 "/Users/arko/.cargo/registry/src/github.com-1ecc6299db9ec823/bluepill-usbhid-0.1.0/src/lib.rs"
	.loc	7 46 0
	bl	HAL_Init
	.loc	7 48 0
	bl	SystemClock_Config
	.loc	7 50 0
	bl	MX_USB_DEVICE_Init
	add	r0, sp, #4
	.file	8 "/Users/arko/GitHub/OneButton/Firmware/Rust/examples/onebutton.rs"
	.loc	8 18 0
	movs	r1, #128
	bl	__aeabi_memclr4
	add	r4, sp, #132
	.file	9 "/Users/arko/.rustup/toolchains/nightly-x86_64-apple-darwin/lib/rustlib/src/rust/src/libcore/clone.rs"
	.loc	9 113 0
	adds	r0, r4, #5
	movs	r1, #123
	bl	__aeabi_memclr
	movs	r0, #32
	strb	r0, [r4, #4]
	ldr	r0, .LCPI0_1
	str	r0, [sp, #132]
	movs	r0, #5
	ldr	r4, .LCPI0_2
	ldr	r6, .LCPI0_3
	str	r0, [sp]
	b	.LBB0_11
.LBB0_1:
	.file	10 "/Users/arko/.rustup/toolchains/nightly-x86_64-apple-darwin/lib/rustlib/src/rust/src/libcore/slice/mod.rs"
	.loc	10 887 0
	cmp	r5, #129
	bhs	.LBB0_16
	.loc	10 0 0 is_stmt 0
	movs	r1, #1
	lsls	r1, r1, #9
	.loc	10 875 0 is_stmt 1
	cmp	r2, r1
	bhi	.LBB0_17
	.loc	10 0 0 is_stmt 0
	add	r1, sp, #132
	.file	11 "/Users/arko/.rustup/toolchains/nightly-x86_64-apple-darwin/lib/rustlib/src/rust/src/libcore/ptr.rs"
	.loc	11 1215 0 is_stmt 1
	adds	r0, r1, r0
	.loc	9 113 0
	mov	r1, r6
	bl	__aeabi_memcpy
	.loc	8 31 0
	movs	r0, #0
	str	r0, [r4]
	b	.LBB0_5
.LBB0_4:
	.loc	8 0 0 is_stmt 0
	mov	r5, r0
.LBB0_5:
	movs	r0, #0
	.loc	8 35 0 is_stmt 1
	cmp	r5, #0
	beq	.LBB0_11
	subs	r0, r5, #1
	.loc	10 825 0
	cmp	r0, #128
	bhs	.LBB0_18
	.loc	10 0 0 is_stmt 0
	add	r1, sp, #132
	.loc	8 35 0 is_stmt 1
	ldrb	r0, [r1, r0]
	cmp	r0, #10
	mov	r0, r5
	bne	.LBB0_11
	.loc	8 0 0 is_stmt 0
	mov	r4, r6
	add	r6, sp, #4
	add	r1, sp, #132
	.loc	9 113 0 is_stmt 1
	mov	r0, r6
	mov	r2, r5
	bl	__aeabi_memcpy4
	.loc	7 41 0
	uxth	r5, r5
	mov	r0, r6
	mov	r6, r4
	ldr	r4, .LCPI0_2
	mov	r1, r5
	bl	USBD_CUSTOM_HID_SendReport_FS
	.loc	8 44 0
	cmp	r0, #0
	ldr	r0, [sp]
	beq	.LBB0_11
.LBB0_9:
	.loc	7 45 0
	movs	r0, #100
	bl	HAL_Delay
	add	r0, sp, #4
	.loc	7 41 0
	mov	r1, r5
	bl	USBD_CUSTOM_HID_SendReport_FS
	.loc	8 44 0
	cmp	r0, #0
	bne	.LBB0_9
	.loc	8 0 0 is_stmt 0
	ldr	r0, [sp]
.LBB0_11:
	.loc	8 26 0 is_stmt 1
	ldr	r2, [r4]
	cmp	r2, #0
	beq	.LBB0_4
	.loc	8 0 0 is_stmt 0
	adds	r5, r2, r0
	movs	r1, #0
	movs	r3, #1
	cmp	r5, r2
	bhs	.LBB0_14
	mov	r1, r3
.LBB0_14:
	.loc	10 885 0 is_stmt 1
	cmp	r1, #0
	beq	.LBB0_1
	.loc	10 886 0
	mov	r1, r5
	bl	_ZN4core5slice22slice_index_order_fail17h1ebe63c40336a21cE
	.inst.n	0xdefe
.LBB0_16:
	.loc	10 888 0
	movs	r1, #128
	mov	r0, r5
	bl	_ZN4core5slice20slice_index_len_fail17h3a657df3a06ab6caE
	.inst.n	0xdefe
.LBB0_17:
	.loc	10 876 0
	mov	r0, r2
	bl	_ZN4core5slice20slice_index_len_fail17h3a657df3a06ab6caE
	.inst.n	0xdefe
.LBB0_18:
	.loc	10 825 0
	bl	_ZN4core9panicking18panic_bounds_check17he1dc5c093ac62635E
	.inst.n	0xdefe
	.p2align	2
	.loc	10 0 0 is_stmt 0
.LCPI0_0:
	.long	__rustc_debug_gdb_scripts_section__
.LCPI0_1:
	.long	1869442925
.LCPI0_2:
	.long	hid_recv_len
.LCPI0_3:
	.long	hid_recv_data
.Lfunc_end0:
	.size	main, .Lfunc_end0-main
	.cfi_endproc
	.cantunwind
	.fnend

	.section	.text.DH_TRAMPOLINE,"ax",%progbits
	.globl	DH_TRAMPOLINE
	.p2align	1
	.type	DH_TRAMPOLINE,%function
	.code	16
	.thumb_func
DH_TRAMPOLINE:
.Lfunc_begin1:
	.loc	1 20 0 is_stmt 1
	.fnstart
	.cfi_startproc
	.save	{r7, lr}
	push	{r7, lr}
.Lcfi7:
	.cfi_def_cfa_offset 8
.Lcfi8:
	.cfi_offset lr, -4
.Lcfi9:
	.cfi_offset r7, -8
	.setfp	r7, sp
	add	r7, sp, #0
.Lcfi10:
	.cfi_def_cfa_register r7
.Ltmp0:
	.loc	1 21 0 prologue_end
	bl	DEFAULT_HANDLER
	.inst.n	0xdefe
.Ltmp1:
.Lfunc_end1:
	.size	DH_TRAMPOLINE, .Lfunc_end1-DH_TRAMPOLINE
	.cfi_endproc
	.cantunwind
	.fnend

	.section	.text._ZN11cortex_m_rt15default_handler17hdcca38ab4379ffb6E,"ax",%progbits
	.p2align	1
	.type	_ZN11cortex_m_rt15default_handler17hdcca38ab4379ffb6E,%function
	.code	16
	.thumb_func
_ZN11cortex_m_rt15default_handler17hdcca38ab4379ffb6E:
.Lfunc_begin2:
	.loc	2 442 0
	.fnstart
	.cfi_startproc
	.file	12 "/Users/arko/.cargo/registry/src/github.com-1ecc6299db9ec823/cortex-m-0.3.1/src/asm.rs"
	.loc	12 12 0 prologue_end
	@APP
	bkpt	#0
	@NO_APP
.Ltmp2:
.LBB2_1:
	.loc	2 445 0
	b	.LBB2_1
.Ltmp3:
.Lfunc_end2:
	.size	_ZN11cortex_m_rt15default_handler17hdcca38ab4379ffb6E, .Lfunc_end2-_ZN11cortex_m_rt15default_handler17hdcca38ab4379ffb6E
	.cfi_endproc
	.cantunwind
	.fnend

	.section	.text.DEFAULT_HANDLER,"ax",%progbits
	.weak	DEFAULT_HANDLER
	.p2align	1
	.type	DEFAULT_HANDLER,%function
	.code	16
	.thumb_func
DEFAULT_HANDLER:
.Lfunc_begin3:
	.loc	2 450 0
	.fnstart
	.cfi_startproc
	.loc	2 452 0 prologue_end
	@APP
	mrs	r0, msp
	b	_ZN11cortex_m_rt15default_handler17hdcca38ab4379ffb6E
	@NO_APP
	.loc	2 459 0
	.inst.n	0xdefe
.Ltmp4:
.Lfunc_end3:
	.size	DEFAULT_HANDLER, .Lfunc_end3-DEFAULT_HANDLER
	.cfi_endproc
	.cantunwind
	.fnend

	.section	.reset_handler,"ax",%progbits
	.p2align	2
	.type	_ZN11cortex_m_rt13reset_handler17h7ac1081f12ccda13E,%function
	.code	16
	.thumb_func
_ZN11cortex_m_rt13reset_handler17h7ac1081f12ccda13E:
.Lfunc_begin4:
	.loc	2 335 0
	.fnstart
	.cfi_startproc
	.save	{r7, lr}
	push	{r7, lr}
.Lcfi11:
	.cfi_def_cfa_offset 8
.Lcfi12:
	.cfi_offset lr, -4
.Lcfi13:
	.cfi_offset r7, -8
	.setfp	r7, sp
	add	r7, sp, #0
.Lcfi14:
	.cfi_def_cfa_register r7
.Ltmp5:
	.file	13 "/Users/arko/.cargo/registry/src/github.com-1ecc6299db9ec823/r0-0.2.2/src/lib.rs"
	.loc	13 171 0 prologue_end
	ldr	r0, .LCPI4_0
	ldr	r1, .LCPI4_1
	b	.LBB4_2
.LBB4_1:
.Ltmp6:
	.loc	11 470 0
	movs	r2, #0
	stm	r1!, {r2}
.Ltmp7:
.LBB4_2:
	.loc	11 0 0 is_stmt 0
	cmp	r1, r0
	blo	.LBB4_1
.Ltmp8:
	.loc	13 132 0 is_stmt 1
	ldr	r0, .LCPI4_2
	ldr	r1, .LCPI4_3
.Ltmp9:
	cmp	r1, r0
.Ltmp10:
	.loc	13 0 0 is_stmt 0
	bhs	.LBB4_6
.Ltmp11:
	ldr	r2, .LCPI4_4
.Ltmp12:
.LBB4_5:
	.loc	11 252 0 is_stmt 1
	ldm	r2!, {r3}
.Ltmp13:
	.loc	11 328 0
	stm	r1!, {r3}
.Ltmp14:
	.loc	13 132 0
	cmp	r1, r0
.Ltmp15:
	.loc	13 0 0 is_stmt 0
	blo	.LBB4_5
.Ltmp16:
.LBB4_6:
	.loc	2 344 0 is_stmt 1
	bl	main
.LBB4_7:
	.loc	2 371 0
	@APP
	wfi
	@NO_APP
	.loc	2 370 0
	b	.LBB4_7
.Ltmp17:
	.p2align	2
	.loc	2 0 0 is_stmt 0
.LCPI4_0:
	.long	_ebss
.LCPI4_1:
	.long	_sbss
.LCPI4_2:
	.long	_edata
.LCPI4_3:
	.long	_sdata
.LCPI4_4:
	.long	_sidata
.Lfunc_end4:
	.size	_ZN11cortex_m_rt13reset_handler17h7ac1081f12ccda13E, .Lfunc_end4-_ZN11cortex_m_rt13reset_handler17h7ac1081f12ccda13E
	.cfi_endproc
	.cantunwind
	.fnend

	.section	.text.cold._ZN4core5slice20slice_index_len_fail17h3a657df3a06ab6caE,"ax",%progbits
	.p2align	1
	.type	_ZN4core5slice20slice_index_len_fail17h3a657df3a06ab6caE,%function
	.code	16
	.thumb_func
_ZN4core5slice20slice_index_len_fail17h3a657df3a06ab6caE:
.Lfunc_begin5:
	.file	14 "/Users/arko/.rustup/toolchains/nightly-x86_64-apple-darwin/lib/rustlib/src/rust/src/libcore/slice/mod.rs"
	.loc	14 744 0 is_stmt 1
	.fnstart
	.cfi_startproc
	.save	{r7, lr}
	push	{r7, lr}
.Lcfi15:
	.cfi_def_cfa_offset 8
.Lcfi16:
	.cfi_offset lr, -4
.Lcfi17:
	.cfi_offset r7, -8
	.setfp	r7, sp
	add	r7, sp, #0
.Lcfi18:
	.cfi_def_cfa_register r7
.Ltmp18:
	.loc	14 745 0 prologue_end
	bl	_ZN4core9panicking9panic_fmt17hb6a607784ebcffc1E
.Ltmp19:
	.inst.n	0xdefe
.Ltmp20:
.Lfunc_end5:
	.size	_ZN4core5slice20slice_index_len_fail17h3a657df3a06ab6caE, .Lfunc_end5-_ZN4core5slice20slice_index_len_fail17h3a657df3a06ab6caE
	.cfi_endproc
	.cantunwind
	.fnend

	.section	.text.cold._ZN4core9panicking18panic_bounds_check17he1dc5c093ac62635E,"ax",%progbits
	.p2align	1
	.type	_ZN4core9panicking18panic_bounds_check17he1dc5c093ac62635E,%function
	.code	16
	.thumb_func
_ZN4core9panicking18panic_bounds_check17he1dc5c093ac62635E:
.Lfunc_begin6:
	.file	15 "/Users/arko/.rustup/toolchains/nightly-x86_64-apple-darwin/lib/rustlib/src/rust/src/libcore/panicking.rs"
	.loc	15 56 0
	.fnstart
	.cfi_startproc
	.save	{r7, lr}
	push	{r7, lr}
.Lcfi19:
	.cfi_def_cfa_offset 8
.Lcfi20:
	.cfi_offset lr, -4
.Lcfi21:
	.cfi_offset r7, -8
	.setfp	r7, sp
	add	r7, sp, #0
.Lcfi22:
	.cfi_def_cfa_register r7
.Ltmp21:
	.loc	15 58 0 prologue_end
	bl	_ZN4core9panicking9panic_fmt17hb6a607784ebcffc1E
	.inst.n	0xdefe
.Ltmp22:
.Lfunc_end6:
	.size	_ZN4core9panicking18panic_bounds_check17he1dc5c093ac62635E, .Lfunc_end6-_ZN4core9panicking18panic_bounds_check17he1dc5c093ac62635E
	.cfi_endproc
	.cantunwind
	.fnend

	.section	.text.cold._ZN4core9panicking9panic_fmt17hb6a607784ebcffc1E,"ax",%progbits
	.p2align	1
	.type	_ZN4core9panicking9panic_fmt17hb6a607784ebcffc1E,%function
	.code	16
	.thumb_func
_ZN4core9panicking9panic_fmt17hb6a607784ebcffc1E:
.Lfunc_begin7:
	.loc	15 63 0
	.fnstart
	.cfi_startproc
	.file	16 "/Users/arko/.cargo/registry/src/github.com-1ecc6299db9ec823/cortex-m-rt-0.3.6/src/lang_items.rs"
	.loc	16 10 0 prologue_end
	.inst.n	0xdefe
	.inst.n	0xdefe
.Ltmp23:
.Lfunc_end7:
	.size	_ZN4core9panicking9panic_fmt17hb6a607784ebcffc1E, .Lfunc_end7-_ZN4core9panicking9panic_fmt17hb6a607784ebcffc1E
	.cfi_endproc
	.cantunwind
	.fnend

	.section	.text.cold._ZN4core5slice22slice_index_order_fail17h1ebe63c40336a21cE,"ax",%progbits
	.p2align	1
	.type	_ZN4core5slice22slice_index_order_fail17h1ebe63c40336a21cE,%function
	.code	16
	.thumb_func
_ZN4core5slice22slice_index_order_fail17h1ebe63c40336a21cE:
.Lfunc_begin8:
	.loc	14 750 0
	.fnstart
	.cfi_startproc
	.save	{r7, lr}
	push	{r7, lr}
.Lcfi23:
	.cfi_def_cfa_offset 8
.Lcfi24:
	.cfi_offset lr, -4
.Lcfi25:
	.cfi_offset r7, -8
	.setfp	r7, sp
	add	r7, sp, #0
.Lcfi26:
	.cfi_def_cfa_register r7
.Ltmp24:
	.loc	14 751 0 prologue_end
	bl	_ZN4core9panicking9panic_fmt17hb6a607784ebcffc1E
.Ltmp25:
	.inst.n	0xdefe
.Ltmp26:
.Lfunc_end8:
	.size	_ZN4core5slice22slice_index_order_fail17h1ebe63c40336a21cE, .Lfunc_end8-_ZN4core5slice22slice_index_order_fail17h1ebe63c40336a21cE
	.cfi_endproc
	.cantunwind
	.fnend

	.type	str.6,%object
	.section	.rodata.str.6,"a",%progbits
str.6:
	.ascii	"momo "
	.size	str.6, 5

	.type	__rustc_debug_gdb_scripts_section__,%object
	.section	.debug_gdb_scripts,"aMS",%progbits
__rustc_debug_gdb_scripts_section__:
	.asciz	"\001gdb_load_rust_pretty_printers.py"
	.size	__rustc_debug_gdb_scripts_section__, 34

	.type	INTERRUPTS,%object
	.section	.vector_table.interrupts,"a",%progbits
	.globl	INTERRUPTS
	.p2align	2
INTERRUPTS:
	.long	WWDG
	.long	PVD
	.long	RTC
	.long	FLASH
	.long	RCC_CRS
	.long	EXTI0_1
	.long	EXTI2_3
	.long	EXTI4_15
	.long	TSC
	.long	DMA_CH1
	.long	DMA_CH2_3
	.long	DMA_CH4_5_6_7
	.long	ADC_COMP
	.long	TIM1_BRK_UP_TRG_COM
	.long	TIM1_CC
	.long	TIM2
	.long	TIM3
	.long	0
	.long	0
	.long	TIM14
	.long	0
	.long	TIM16
	.long	TIM17
	.long	I2C1
	.long	0
	.long	SPI1
	.long	SPI2
	.long	USART1
	.long	USART2
	.long	0
	.long	CEC_CAN
	.long	USB
	.size	INTERRUPTS, 128

	.type	EXCEPTIONS,%object
	.section	.vector_table.exceptions,"a",%progbits
	.globl	EXCEPTIONS
	.p2align	2
EXCEPTIONS:
	.long	NMI
	.long	HARD_FAULT
	.long	MEM_MANAGE
	.long	BUS_FAULT
	.long	USAGE_FAULT
	.long	0
	.long	0
	.long	0
	.long	0
	.long	SVCALL
	.long	0
	.long	0
	.long	PENDSV
	.long	SYS_TICK
	.size	EXCEPTIONS, 56

	.type	_ZN11cortex_m_rt12RESET_VECTOR17h0ee471d0143aef4dE,%object
	.section	.vector_table.reset_vector,"a",%progbits
	.p2align	2
_ZN11cortex_m_rt12RESET_VECTOR17h0ee471d0143aef4dE:
	.long	_ZN11cortex_m_rt13reset_handler17h7ac1081f12ccda13E
	.size	_ZN11cortex_m_rt12RESET_VECTOR17h0ee471d0143aef4dE, 4

	.type	_ZN11cortex_m_rt15default_handler4KEEP17ha17cfe7c6f6d9b70E,%object
	.section	.rodata._ZN11cortex_m_rt15default_handler4KEEP17ha17cfe7c6f6d9b70E,"a",%progbits
	.p2align	2
_ZN11cortex_m_rt15default_handler4KEEP17ha17cfe7c6f6d9b70E:
	.long	DEFAULT_HANDLER
	.size	_ZN11cortex_m_rt15default_handler4KEEP17ha17cfe7c6f6d9b70E, 4

	.type	_ZN11cortex_m_rt4KEEP17h3b0e38a62cf4581bE,%object
	.section	.rodata._ZN11cortex_m_rt4KEEP17h3b0e38a62cf4581bE,"a",%progbits
	.p2align	2
_ZN11cortex_m_rt4KEEP17h3b0e38a62cf4581bE:
	.long	_ZN11cortex_m_rt15default_handler17hdcca38ab4379ffb6E
	.size	_ZN11cortex_m_rt4KEEP17h3b0e38a62cf4581bE, 4

	.section	".note.GNU-stack","",%progbits
	.eabi_attribute	30, 3