	.text
	.syntax unified
	.eabi_attribute	67, "2.09"
	.eabi_attribute	6, 12
	.eabi_attribute	8, 0
	.eabi_attribute	9, 1
	.eabi_attribute	17, 1
	.eabi_attribute	20, 1
	.eabi_attribute	21, 1
	.eabi_attribute	23, 3
	.eabi_attribute	34, 0
	.eabi_attribute	24, 1
	.eabi_attribute	25, 1
	.eabi_attribute	38, 1
	.eabi_attribute	14, 0
	.code	16
	.file	"cortex_m_rt0-ae04bea55509392a6db21c570f9c9252.rs"


	.weak	NMI
NMI = DEFAULT_HANDLER

	.weak	HARD_FAULT
HARD_FAULT = DEFAULT_HANDLER

	.weak	MEM_MANAGE
MEM_MANAGE = DEFAULT_HANDLER

	.weak	BUS_FAULT
BUS_FAULT = DEFAULT_HANDLER

	.weak	USAGE_FAULT
USAGE_FAULT = DEFAULT_HANDLER

	.weak	SVCALL
SVCALL = DEFAULT_HANDLER

	.weak	PENDSV
PENDSV = DEFAULT_HANDLER

	.weak	SYS_TICK
SYS_TICK = DEFAULT_HANDLER


	.file	1 "/Users/arko/.cargo/registry/src/github.com-1ecc6299db9ec823/cortex-m-rt-0.3.6/src/lib.rs"
	.section	.text.rust_begin_unwind,"ax",%progbits
	.globl	rust_begin_unwind
	.p2align	1
	.type	rust_begin_unwind,%function
	.code	16
	.thumb_func
rust_begin_unwind:
.Lfunc_begin0:
	.file	2 "/Users/arko/.cargo/registry/src/github.com-1ecc6299db9ec823/cortex-m-rt-0.3.6/src/lang_items.rs"
	.loc	2 4 0
	.fnstart
	.cfi_sections .debug_frame
	.cfi_startproc
	.loc	2 10 0 prologue_end
	.inst.n	0xdefe
	.inst.n	0xdefe
.Ltmp0:
.Lfunc_end0:
	.size	rust_begin_unwind, .Lfunc_end0-rust_begin_unwind
	.cfi_endproc
	.cantunwind
	.fnend

	.section	.text._ZN11cortex_m_rt10lang_items5start17h584bcb1b0254fa88E,"ax",%progbits
	.globl	_ZN11cortex_m_rt10lang_items5start17h584bcb1b0254fa88E
	.p2align	1
	.type	_ZN11cortex_m_rt10lang_items5start17h584bcb1b0254fa88E,%function
	.code	16
	.thumb_func
_ZN11cortex_m_rt10lang_items5start17h584bcb1b0254fa88E:
.Lfunc_begin1:
	.loc	2 32 0
	.fnstart
	.cfi_startproc
	.save	{r7, lr}
	push	{r7, lr}
.Lcfi0:
	.cfi_def_cfa_offset 8
.Lcfi1:
	.cfi_offset lr, -4
.Lcfi2:
	.cfi_offset r7, -8
	.setfp	r7, sp
	add	r7, sp, #0
.Lcfi3:
	.cfi_def_cfa_register r7
.Ltmp1:
	.loc	2 37 0 prologue_end
	blx	r0
.Ltmp2:
	.loc	2 40 0
	movs	r0, #0
	pop	{r7, pc}
.Ltmp3:
.Lfunc_end1:
	.size	_ZN11cortex_m_rt10lang_items5start17h584bcb1b0254fa88E, .Lfunc_end1-_ZN11cortex_m_rt10lang_items5start17h584bcb1b0254fa88E
	.cfi_endproc
	.cantunwind
	.fnend

	.section	.reset_handler,"ax",%progbits
	.p2align	2
	.type	_ZN11cortex_m_rt13reset_handler17h7ac1081f12ccda13E,%function
	.code	16
	.thumb_func
_ZN11cortex_m_rt13reset_handler17h7ac1081f12ccda13E:
.Lfunc_begin2:
	.loc	1 335 0
	.fnstart
	.cfi_startproc
	.save	{r7, lr}
	push	{r7, lr}
.Lcfi4:
	.cfi_def_cfa_offset 8
.Lcfi5:
	.cfi_offset lr, -4
.Lcfi6:
	.cfi_offset r7, -8
	.setfp	r7, sp
	add	r7, sp, #0
.Lcfi7:
	.cfi_def_cfa_register r7
.Ltmp4:
	.file	3 "/Users/arko/.cargo/registry/src/github.com-1ecc6299db9ec823/r0-0.2.2/src/lib.rs"
	.loc	3 171 0 prologue_end
	ldr	r0, .LCPI2_0
	ldr	r1, .LCPI2_1
	b	.LBB2_2
.LBB2_1:
.Ltmp5:
	.file	4 "/Users/arko/.rustup/toolchains/nightly-x86_64-apple-darwin/lib/rustlib/src/rust/src/libcore/ptr.rs"
	.loc	4 470 0
	movs	r2, #0
	stm	r1!, {r2}
.Ltmp6:
.LBB2_2:
	.loc	4 0 0 is_stmt 0
	cmp	r1, r0
	blo	.LBB2_1
.Ltmp7:
	.loc	3 132 0 is_stmt 1
	ldr	r0, .LCPI2_2
	ldr	r1, .LCPI2_3
.Ltmp8:
	cmp	r1, r0
.Ltmp9:
	.loc	3 0 0 is_stmt 0
	bhs	.LBB2_6
.Ltmp10:
	ldr	r2, .LCPI2_4
.Ltmp11:
.LBB2_5:
	.loc	4 252 0 is_stmt 1
	ldm	r2!, {r3}
.Ltmp12:
	.loc	4 328 0
	stm	r1!, {r3}
.Ltmp13:
	.loc	3 132 0
	cmp	r1, r0
.Ltmp14:
	.loc	3 0 0 is_stmt 0
	blo	.LBB2_5
.Ltmp15:
.LBB2_6:
	.loc	1 344 0 is_stmt 1
	movs	r0, #0
	mov	r1, r0
	bl	main
.LBB2_7:
	.loc	1 371 0
	@APP
	wfi
	@NO_APP
	.loc	1 370 0
	b	.LBB2_7
.Ltmp16:
	.p2align	2
	.loc	1 0 0 is_stmt 0
.LCPI2_0:
	.long	_ebss
.LCPI2_1:
	.long	_sbss
.LCPI2_2:
	.long	_edata
.LCPI2_3:
	.long	_sdata
.LCPI2_4:
	.long	_sidata
.Lfunc_end2:
	.size	_ZN11cortex_m_rt13reset_handler17h7ac1081f12ccda13E, .Lfunc_end2-_ZN11cortex_m_rt13reset_handler17h7ac1081f12ccda13E
	.cfi_endproc
	.cantunwind
	.fnend

	.section	.text._ZN11cortex_m_rt15default_handler17hdcca38ab4379ffb6E,"ax",%progbits
	.p2align	1
	.type	_ZN11cortex_m_rt15default_handler17hdcca38ab4379ffb6E,%function
	.code	16
	.thumb_func
_ZN11cortex_m_rt15default_handler17hdcca38ab4379ffb6E:
.Lfunc_begin3:
	.loc	1 442 0 is_stmt 1
	.fnstart
	.cfi_startproc
	.file	5 "/Users/arko/.cargo/registry/src/github.com-1ecc6299db9ec823/cortex-m-0.3.1/src/asm.rs"
	.loc	5 12 0 prologue_end
	@APP
	bkpt	#0
	@NO_APP
.Ltmp17:
.LBB3_1:
	.loc	1 445 0
	b	.LBB3_1
.Ltmp18:
.Lfunc_end3:
	.size	_ZN11cortex_m_rt15default_handler17hdcca38ab4379ffb6E, .Lfunc_end3-_ZN11cortex_m_rt15default_handler17hdcca38ab4379ffb6E
	.cfi_endproc
	.cantunwind
	.fnend

	.section	.text.DEFAULT_HANDLER,"ax",%progbits
	.weak	DEFAULT_HANDLER
	.p2align	1
	.type	DEFAULT_HANDLER,%function
	.code	16
	.thumb_func
DEFAULT_HANDLER:
.Lfunc_begin4:
	.loc	1 450 0
	.fnstart
	.cfi_startproc
	.loc	1 452 0 prologue_end
	@APP
	mrs	r0, msp
	b	_ZN11cortex_m_rt15default_handler17hdcca38ab4379ffb6E
	@NO_APP
	.loc	1 459 0
	.inst.n	0xdefe
.Ltmp19:
.Lfunc_end4:
	.size	DEFAULT_HANDLER, .Lfunc_end4-DEFAULT_HANDLER
	.cfi_endproc
	.cantunwind
	.fnend

	.type	_ZN11cortex_m_rt12RESET_VECTOR17h0ee471d0143aef4dE,%object
	.section	.vector_table.reset_vector,"a",%progbits
	.p2align	2
_ZN11cortex_m_rt12RESET_VECTOR17h0ee471d0143aef4dE:
	.long	_ZN11cortex_m_rt13reset_handler17h7ac1081f12ccda13E
	.size	_ZN11cortex_m_rt12RESET_VECTOR17h0ee471d0143aef4dE, 4

	.type	_ZN11cortex_m_rt15default_handler4KEEP17ha17cfe7c6f6d9b70E,%object
	.section	.rodata._ZN11cortex_m_rt15default_handler4KEEP17ha17cfe7c6f6d9b70E,"a",%progbits
	.p2align	2
_ZN11cortex_m_rt15default_handler4KEEP17ha17cfe7c6f6d9b70E:
	.long	DEFAULT_HANDLER
	.size	_ZN11cortex_m_rt15default_handler4KEEP17ha17cfe7c6f6d9b70E, 4

	.type	_ZN11cortex_m_rt4KEEP17h3b0e38a62cf4581bE,%object
	.section	.rodata._ZN11cortex_m_rt4KEEP17h3b0e38a62cf4581bE,"a",%progbits
	.p2align	2
_ZN11cortex_m_rt4KEEP17h3b0e38a62cf4581bE:
	.long	_ZN11cortex_m_rt15default_handler17hdcca38ab4379ffb6E
	.size	_ZN11cortex_m_rt4KEEP17h3b0e38a62cf4581bE, 4

	.type	EXCEPTIONS,%object
	.section	.vector_table.exceptions,"a",%progbits
	.globl	EXCEPTIONS
	.p2align	2
EXCEPTIONS:
	.long	NMI
	.long	HARD_FAULT
	.long	MEM_MANAGE
	.long	BUS_FAULT
	.long	USAGE_FAULT
	.long	0
	.long	0
	.long	0
	.long	0
	.long	SVCALL
	.long	0
	.long	0
	.long	PENDSV
	.long	SYS_TICK
	.size	EXCEPTIONS, 56

	.section	".note.GNU-stack","",%progbits
	.eabi_attribute	30, 3