	.text
	.syntax unified
	.eabi_attribute	67, "2.09"
	.eabi_attribute	6, 12
	.eabi_attribute	8, 0
	.eabi_attribute	9, 1
	.eabi_attribute	17, 1
	.eabi_attribute	20, 1
	.eabi_attribute	21, 1
	.eabi_attribute	23, 3
	.eabi_attribute	34, 0
	.eabi_attribute	24, 1
	.eabi_attribute	25, 1
	.eabi_attribute	38, 1
	.eabi_attribute	14, 0
	.file	"cortex_m0-cdce199528030f6731308a41f203382a.rs"
	.section	.text._ZN4core3ptr13drop_in_place17h64fe07f823668602E,"ax",%progbits
	.p2align	1
	.type	_ZN4core3ptr13drop_in_place17h64fe07f823668602E,%function
	.code	16
	.thumb_func
_ZN4core3ptr13drop_in_place17h64fe07f823668602E:
.Lfunc_begin0:
	.file	1 "/Users/arko/.rustup/toolchains/nightly-x86_64-apple-darwin/lib/rustlib/src/rust/src/libcore/ptr.rs"
	.loc	1 59 0
	.fnstart
	.cfi_sections .debug_frame
	.cfi_startproc
	.loc	1 59 0 prologue_end
	bx	lr
.Ltmp0:
.Lfunc_end0:
	.size	_ZN4core3ptr13drop_in_place17h64fe07f823668602E, .Lfunc_end0-_ZN4core3ptr13drop_in_place17h64fe07f823668602E
	.cfi_endproc
	.cantunwind
	.fnend

	.section	.text._ZN4core3ptr13drop_in_place17h7f1a87db3fd978cfE,"ax",%progbits
	.p2align	1
	.type	_ZN4core3ptr13drop_in_place17h7f1a87db3fd978cfE,%function
	.code	16
	.thumb_func
_ZN4core3ptr13drop_in_place17h7f1a87db3fd978cfE:
.Lfunc_begin1:
	.loc	1 59 0
	.fnstart
	.cfi_startproc
	.loc	1 59 0 prologue_end
	bx	lr
.Ltmp1:
.Lfunc_end1:
	.size	_ZN4core3ptr13drop_in_place17h7f1a87db3fd978cfE, .Lfunc_end1-_ZN4core3ptr13drop_in_place17h7f1a87db3fd978cfE
	.cfi_endproc
	.cantunwind
	.fnend

	.section	.text._ZN4core3ptr13drop_in_place17he04fbfc5487f91aeE,"ax",%progbits
	.p2align	1
	.type	_ZN4core3ptr13drop_in_place17he04fbfc5487f91aeE,%function
	.code	16
	.thumb_func
_ZN4core3ptr13drop_in_place17he04fbfc5487f91aeE:
.Lfunc_begin2:
	.loc	1 59 0
	.fnstart
	.cfi_startproc
	.loc	1 59 0 prologue_end
	bx	lr
.Ltmp2:
.Lfunc_end2:
	.size	_ZN4core3ptr13drop_in_place17he04fbfc5487f91aeE, .Lfunc_end2-_ZN4core3ptr13drop_in_place17he04fbfc5487f91aeE
	.cfi_endproc
	.cantunwind
	.fnend

	.section	".text._ZN53_$LT$$RF$$u27$a$u20$T$u20$as$u20$core..fmt..Debug$GT$3fmt17h22d597e08f8c8545E","ax",%progbits
	.p2align	1
	.type	_ZN53_$LT$$RF$$u27$a$u20$T$u20$as$u20$core..fmt..Debug$GT$3fmt17h22d597e08f8c8545E,%function
	.code	16
	.thumb_func
_ZN53_$LT$$RF$$u27$a$u20$T$u20$as$u20$core..fmt..Debug$GT$3fmt17h22d597e08f8c8545E:
.Lfunc_begin3:
	.file	2 "/Users/arko/.rustup/toolchains/nightly-x86_64-apple-darwin/lib/rustlib/src/rust/src/libcore/fmt/mod.rs"
	.loc	2 1517 0
	.fnstart
	.cfi_startproc
	.save	{r7, lr}
	push	{r7, lr}
.Lcfi0:
	.cfi_def_cfa_offset 8
.Lcfi1:
	.cfi_offset lr, -4
.Lcfi2:
	.cfi_offset r7, -8
	.setfp	r7, sp
	add	r7, sp, #0
.Lcfi3:
	.cfi_def_cfa_register r7
.Ltmp3:
	.loc	2 1517 0 prologue_end
	ldr	r0, [r0]
	bl	_ZN4core3fmt3num49_$LT$impl$u20$core..fmt..Debug$u20$for$u20$u8$GT$3fmt17h7c506cbea2514cc7E
	pop	{r7, pc}
.Ltmp4:
.Lfunc_end3:
	.size	_ZN53_$LT$$RF$$u27$a$u20$T$u20$as$u20$core..fmt..Debug$GT$3fmt17h22d597e08f8c8545E, .Lfunc_end3-_ZN53_$LT$$RF$$u27$a$u20$T$u20$as$u20$core..fmt..Debug$GT$3fmt17h22d597e08f8c8545E
	.cfi_endproc
	.cantunwind
	.fnend

	.section	".text._ZN53_$LT$$RF$$u27$a$u20$T$u20$as$u20$core..fmt..Debug$GT$3fmt17hf9002130619835b5E","ax",%progbits
	.p2align	1
	.type	_ZN53_$LT$$RF$$u27$a$u20$T$u20$as$u20$core..fmt..Debug$GT$3fmt17hf9002130619835b5E,%function
	.code	16
	.thumb_func
_ZN53_$LT$$RF$$u27$a$u20$T$u20$as$u20$core..fmt..Debug$GT$3fmt17hf9002130619835b5E:
.Lfunc_begin4:
	.loc	2 1517 0
	.fnstart
	.cfi_startproc
	.save	{r7, lr}
	push	{r7, lr}
.Lcfi4:
	.cfi_def_cfa_offset 8
.Lcfi5:
	.cfi_offset lr, -4
.Lcfi6:
	.cfi_offset r7, -8
	.setfp	r7, sp
	add	r7, sp, #0
.Lcfi7:
	.cfi_def_cfa_register r7
.Ltmp5:
	.loc	2 1517 0 prologue_end
	ldr	r0, [r0]
	bl	_ZN4core3fmt3num50_$LT$impl$u20$core..fmt..Debug$u20$for$u20$u32$GT$3fmt17haff39bccd571ae94E
	pop	{r7, pc}
.Ltmp6:
.Lfunc_end4:
	.size	_ZN53_$LT$$RF$$u27$a$u20$T$u20$as$u20$core..fmt..Debug$GT$3fmt17hf9002130619835b5E, .Lfunc_end4-_ZN53_$LT$$RF$$u27$a$u20$T$u20$as$u20$core..fmt..Debug$GT$3fmt17hf9002130619835b5E
	.cfi_endproc
	.cantunwind
	.fnend

	.section	".text._ZN96_$LT$core..fmt..Write..write_fmt..Adapter$LT$$u27$a$C$$u20$T$GT$$u20$as$u20$core..fmt..Write$GT$10write_char17h57e8a8d65c9d2c94E","ax",%progbits
	.p2align	1
	.type	_ZN96_$LT$core..fmt..Write..write_fmt..Adapter$LT$$u27$a$C$$u20$T$GT$$u20$as$u20$core..fmt..Write$GT$10write_char17h57e8a8d65c9d2c94E,%function
	.code	16
	.thumb_func
_ZN96_$LT$core..fmt..Write..write_fmt..Adapter$LT$$u27$a$C$$u20$T$GT$$u20$as$u20$core..fmt..Write$GT$10write_char17h57e8a8d65c9d2c94E:
.Lfunc_begin5:
	.loc	2 214 0
	.fnstart
	.cfi_startproc
	.save	{r4, r5, r6, r7, lr}
	push	{r4, r5, r6, r7, lr}
.Lcfi8:
	.cfi_def_cfa_offset 20
.Lcfi9:
	.cfi_offset lr, -4
.Lcfi10:
	.cfi_offset r7, -8
.Lcfi11:
	.cfi_offset r6, -12
.Lcfi12:
	.cfi_offset r5, -16
.Lcfi13:
	.cfi_offset r4, -20
	.setfp	r7, sp, #12
	add	r7, sp, #12
.Lcfi14:
	.cfi_def_cfa r7, 8
	.pad	#28
	sub	sp, #28
.Ltmp7:
	.loc	2 215 0 prologue_end
	ldr	r0, [r0]
.Ltmp8:
	.loc	2 0 0 is_stmt 0
	movs	r4, #0
.Ltmp9:
	.loc	2 177 0 is_stmt 1
	str	r4, [sp, #24]
.Ltmp10:
	.file	3 "/Users/arko/.rustup/toolchains/nightly-x86_64-apple-darwin/lib/rustlib/src/rust/src/libcore/char.rs"
	.loc	3 485 0
	cmp	r1, #127
	bhi	.LBB5_2
.Ltmp11:
	.loc	3 0 0 is_stmt 0
	add	r2, sp, #24
	.loc	3 486 0 is_stmt 1
	strb	r1, [r2]
.Ltmp12:
	.loc	3 0 0 is_stmt 0
	movs	r2, #1
	b	.LBB5_7
.Ltmp13:
.LBB5_2:
	str	r0, [sp, #12]
	movs	r2, #127
	mvns	r6, r2
	adds	r6, #64
	.loc	3 488 0 is_stmt 1
	lsrs	r0, r1, #11
	movs	r2, #2
	movs	r3, #1
	str	r3, [sp, #16]
	movs	r3, #31
	.loc	3 498 0
	movs	r5, #128
	.loc	3 488 0
	str	r5, [sp, #20]
	cmp	r0, #0
	beq	.LBB5_6
.Ltmp14:
	.loc	3 0 0 is_stmt 0
	ldr	r6, [sp, #20]
	adds	r6, #96
	.loc	3 492 0 is_stmt 1
	lsrs	r0, r1, #16
	movs	r2, #3
	movs	r3, #2
	movs	r4, #1
	movs	r5, #0
	str	r5, [sp, #4]
	movs	r5, #15
	str	r5, [sp, #8]
	cmp	r0, #0
	beq	.LBB5_5
.Ltmp15:
	.loc	3 0 0 is_stmt 0
	ldr	r5, [sp, #20]
	.loc	3 498 0 is_stmt 1
	mov	r0, r5
	adds	r0, #112
	lsrs	r2, r1, #18
.Ltmp16:
	orrs	r2, r0
	add	r0, sp, #24
	strb	r2, [r0]
.Ltmp17:
	.loc	3 0 0 is_stmt 0
	movs	r2, #4
	movs	r3, #3
	movs	r4, #2
	movs	r0, #1
.Ltmp18:
	str	r0, [sp, #4]
	movs	r0, #63
	str	r0, [sp, #8]
	mov	r6, r5
.Ltmp19:
.LBB5_5:
	str	r3, [sp, #16]
	add	r0, sp, #24
.Ltmp20:
	.loc	1 1215 0 is_stmt 1
	ldr	r3, [sp, #4]
	orrs	r0, r3
	lsrs	r5, r1, #12
	ldr	r3, [sp, #8]
	ands	r5, r3
	orrs	r5, r6
	strb	r5, [r0]
	movs	r3, #63
	ldr	r6, [sp, #20]
.Ltmp21:
.LBB5_6:
	.loc	1 0 0 is_stmt 0
	lsrs	r0, r1, #6
	ands	r0, r3
	orrs	r0, r6
	add	r5, sp, #24
	strb	r0, [r5, r4]
	movs	r0, #63
	ands	r0, r1
.Ltmp22:
	ldr	r1, [sp, #20]
.Ltmp23:
	orrs	r0, r1
	ldr	r1, [sp, #16]
	strb	r0, [r5, r1]
	ldr	r0, [sp, #12]
.LBB5_7:
.Ltmp24:
	.file	4 "/Users/arko/.cargo/registry/src/github.com-1ecc6299db9ec823/cortex-m-0.3.1/src/itm.rs"
	.loc	4 23 0 is_stmt 1
	ldr	r0, [r0]
	add	r1, sp, #24
.Ltmp25:
	bl	_ZN8cortex_m3itm9write_all17he5c9ee2f5843849aE
.Ltmp26:
	.loc	4 0 0 is_stmt 0
	movs	r0, #0
.Ltmp27:
	.loc	2 216 0 is_stmt 1
	add	sp, #28
	pop	{r4, r5, r6, r7, pc}
.Ltmp28:
.Lfunc_end5:
	.size	_ZN96_$LT$core..fmt..Write..write_fmt..Adapter$LT$$u27$a$C$$u20$T$GT$$u20$as$u20$core..fmt..Write$GT$10write_char17h57e8a8d65c9d2c94E, .Lfunc_end5-_ZN96_$LT$core..fmt..Write..write_fmt..Adapter$LT$$u27$a$C$$u20$T$GT$$u20$as$u20$core..fmt..Write$GT$10write_char17h57e8a8d65c9d2c94E
	.cfi_endproc
	.file	5 "/Users/arko/.rustup/toolchains/nightly-x86_64-apple-darwin/lib/rustlib/src/rust/src/libcore/lib.rs"
	.file	6 "/Users/arko/.rustup/toolchains/nightly-x86_64-apple-darwin/lib/rustlib/src/rust/src/libcore/slice/mod.rs"
	.cantunwind
	.fnend

	.section	".text._ZN96_$LT$core..fmt..Write..write_fmt..Adapter$LT$$u27$a$C$$u20$T$GT$$u20$as$u20$core..fmt..Write$GT$9write_fmt17h7417d47dfc817613E","ax",%progbits
	.p2align	2
	.type	_ZN96_$LT$core..fmt..Write..write_fmt..Adapter$LT$$u27$a$C$$u20$T$GT$$u20$as$u20$core..fmt..Write$GT$9write_fmt17h7417d47dfc817613E,%function
	.code	16
	.thumb_func
_ZN96_$LT$core..fmt..Write..write_fmt..Adapter$LT$$u27$a$C$$u20$T$GT$$u20$as$u20$core..fmt..Write$GT$9write_fmt17h7417d47dfc817613E:
.Lfunc_begin6:
	.loc	2 218 0
	.fnstart
	.cfi_startproc
	.save	{r4, r5, r7, lr}
	push	{r4, r5, r7, lr}
.Lcfi15:
	.cfi_def_cfa_offset 16
.Lcfi16:
	.cfi_offset lr, -4
.Lcfi17:
	.cfi_offset r7, -8
.Lcfi18:
	.cfi_offset r5, -12
.Lcfi19:
	.cfi_offset r4, -16
	.setfp	r7, sp, #8
	add	r7, sp, #8
.Lcfi20:
	.cfi_def_cfa r7, 8
	.pad	#32
	sub	sp, #32
.Ltmp29:
	.loc	2 219 0 prologue_end
	ldr	r0, [r0]
.Ltmp30:
	.loc	2 223 0
	str	r0, [sp, #4]
	add	r2, sp, #8
	mov	r0, r2
	ldm	r1!, {r3, r4, r5}
.Ltmp31:
	stm	r0!, {r3, r4, r5}
	ldm	r1!, {r3, r4, r5}
	stm	r0!, {r3, r4, r5}
	add	r0, sp, #4
	ldr	r1, .LCPI6_0
	bl	_ZN4core3fmt5write17hc9cafa2989c65c03E
.Ltmp32:
	.loc	2 220 0
	add	sp, #32
	pop	{r4, r5, r7, pc}
.Ltmp33:
	.p2align	2
	.loc	2 0 0 is_stmt 0
.LCPI6_0:
	.long	vtable.8
.Lfunc_end6:
	.size	_ZN96_$LT$core..fmt..Write..write_fmt..Adapter$LT$$u27$a$C$$u20$T$GT$$u20$as$u20$core..fmt..Write$GT$9write_fmt17h7417d47dfc817613E, .Lfunc_end6-_ZN96_$LT$core..fmt..Write..write_fmt..Adapter$LT$$u27$a$C$$u20$T$GT$$u20$as$u20$core..fmt..Write$GT$9write_fmt17h7417d47dfc817613E
	.cfi_endproc
	.cantunwind
	.fnend

	.section	".text._ZN96_$LT$core..fmt..Write..write_fmt..Adapter$LT$$u27$a$C$$u20$T$GT$$u20$as$u20$core..fmt..Write$GT$9write_str17hff0599eeadf3eec7E","ax",%progbits
	.p2align	1
	.type	_ZN96_$LT$core..fmt..Write..write_fmt..Adapter$LT$$u27$a$C$$u20$T$GT$$u20$as$u20$core..fmt..Write$GT$9write_str17hff0599eeadf3eec7E,%function
	.code	16
	.thumb_func
_ZN96_$LT$core..fmt..Write..write_fmt..Adapter$LT$$u27$a$C$$u20$T$GT$$u20$as$u20$core..fmt..Write$GT$9write_str17hff0599eeadf3eec7E:
.Lfunc_begin7:
	.loc	2 210 0 is_stmt 1
	.fnstart
	.cfi_startproc
	.save	{r7, lr}
	push	{r7, lr}
.Lcfi21:
	.cfi_def_cfa_offset 8
.Lcfi22:
	.cfi_offset lr, -4
.Lcfi23:
	.cfi_offset r7, -8
	.setfp	r7, sp
	add	r7, sp, #0
.Lcfi24:
	.cfi_def_cfa_register r7
.Ltmp34:
	.loc	2 211 0 prologue_end
	ldr	r0, [r0]
.Ltmp35:
	.loc	4 23 0
	ldr	r0, [r0]
.Ltmp36:
	bl	_ZN8cortex_m3itm9write_all17he5c9ee2f5843849aE
.Ltmp37:
	.loc	4 0 0 is_stmt 0
	movs	r0, #0
.Ltmp38:
	.loc	2 212 0 is_stmt 1
	pop	{r7, pc}
.Ltmp39:
.Lfunc_end7:
	.size	_ZN96_$LT$core..fmt..Write..write_fmt..Adapter$LT$$u27$a$C$$u20$T$GT$$u20$as$u20$core..fmt..Write$GT$9write_str17hff0599eeadf3eec7E, .Lfunc_end7-_ZN96_$LT$core..fmt..Write..write_fmt..Adapter$LT$$u27$a$C$$u20$T$GT$$u20$as$u20$core..fmt..Write$GT$9write_str17hff0599eeadf3eec7E
	.cfi_endproc
	.cantunwind
	.fnend

	.section	.text._ZN8cortex_m9exception9Exception6active17h5bb9e04578b4b1b0E,"ax",%progbits
	.globl	_ZN8cortex_m9exception9Exception6active17h5bb9e04578b4b1b0E
	.p2align	2
	.type	_ZN8cortex_m9exception9Exception6active17h5bb9e04578b4b1b0E,%function
	.code	16
	.thumb_func
_ZN8cortex_m9exception9Exception6active17h5bb9e04578b4b1b0E:
.Lfunc_begin8:
	.file	7 "/Users/arko/.cargo/registry/src/github.com-1ecc6299db9ec823/cortex-m-0.3.1/src/exception.rs"
	.loc	7 33 0
	.fnstart
	.cfi_startproc
	.save	{r4, r5, r7, lr}
	push	{r4, r5, r7, lr}
.Lcfi25:
	.cfi_def_cfa_offset 16
.Lcfi26:
	.cfi_offset lr, -4
.Lcfi27:
	.cfi_offset r7, -8
.Lcfi28:
	.cfi_offset r5, -12
.Lcfi29:
	.cfi_offset r4, -16
	.setfp	r7, sp, #8
	add	r7, sp, #8
.Lcfi30:
	.cfi_def_cfa r7, 8
.Ltmp40:
	.loc	1 418 0 prologue_end
	ldr	r0, .LCPI8_0
.Ltmp41:
	ldr	r1, [r0]
.Ltmp42:
	.loc	7 37 0
	uxtb	r2, r1
	movs	r0, #0
.Ltmp43:
	.loc	7 0 0 is_stmt 0
	movs	r3, #10
.Ltmp44:
	.loc	7 38 0 is_stmt 1
	cmp	r2, #15
	bhi	.LBB8_10
.Ltmp45:
	.loc	7 0 0 is_stmt 0
	lsls	r4, r2, #2
	adr	r5, .LJTI8_0
	ldr	r4, [r4, r5]
	mov	pc, r4
	.p2align	2
.LJTI8_0:
	.long	.LBB8_14+1
	.long	.LBB8_10+1
	.long	.LBB8_13+1
	.long	.LBB8_3+1
	.long	.LBB8_4+1
	.long	.LBB8_5+1
	.long	.LBB8_6+1
	.long	.LBB8_10+1
	.long	.LBB8_10+1
	.long	.LBB8_10+1
	.long	.LBB8_10+1
	.long	.LBB8_7+1
	.long	.LBB8_10+1
	.long	.LBB8_10+1
	.long	.LBB8_8+1
	.long	.LBB8_9+1
.LBB8_3:
	movs	r0, #1
	b	.LBB8_13
.LBB8_4:
	movs	r0, #2
	b	.LBB8_13
.LBB8_5:
	movs	r0, #3
	b	.LBB8_13
.LBB8_6:
	movs	r0, #4
	b	.LBB8_13
.LBB8_7:
	movs	r0, #5
	b	.LBB8_13
.LBB8_8:
	movs	r0, #6
	b	.LBB8_13
.LBB8_9:
	movs	r0, #7
	b	.LBB8_13
.LBB8_10:
	.loc	7 47 0 is_stmt 1
	movs	r0, #8
	movs	r3, #9
	cmp	r2, #15
	bhi	.LBB8_12
	mov	r0, r3
.LBB8_12:
	subs	r1, #16
.Ltmp46:
.LBB8_13:
	.loc	7 0 0 is_stmt 0
	mov	r3, r0
	mov	r0, r1
.LBB8_14:
	.loc	7 50 0 is_stmt 1
	uxtb	r1, r3
	lsls	r0, r0, #8
	orrs	r0, r1
	pop	{r4, r5, r7, pc}
.Ltmp47:
	.p2align	2
	.loc	7 0 0 is_stmt 0
.LCPI8_0:
	.long	3758157060
.Lfunc_end8:
	.size	_ZN8cortex_m9exception9Exception6active17h5bb9e04578b4b1b0E, .Lfunc_end8-_ZN8cortex_m9exception9Exception6active17h5bb9e04578b4b1b0E
	.cfi_endproc
	.file	8 "/Users/arko/.cargo/registry/src/github.com-1ecc6299db9ec823/vcell-0.1.0/src/lib.rs"
	.file	9 "/Users/arko/.cargo/registry/src/github.com-1ecc6299db9ec823/volatile-register-0.2.0/src/lib.rs"
	.cantunwind
	.fnend

	.section	".text._ZN70_$LT$cortex_m..itm..Port$LT$$u27$p$GT$$u20$as$u20$core..fmt..Write$GT$9write_str17h6aaefbf2465f4f35E","ax",%progbits
	.globl	_ZN70_$LT$cortex_m..itm..Port$LT$$u27$p$GT$$u20$as$u20$core..fmt..Write$GT$9write_str17h6aaefbf2465f4f35E
	.p2align	1
	.type	_ZN70_$LT$cortex_m..itm..Port$LT$$u27$p$GT$$u20$as$u20$core..fmt..Write$GT$9write_str17h6aaefbf2465f4f35E,%function
	.code	16
	.thumb_func
_ZN70_$LT$cortex_m..itm..Port$LT$$u27$p$GT$$u20$as$u20$core..fmt..Write$GT$9write_str17h6aaefbf2465f4f35E:
.Lfunc_begin9:
	.loc	4 22 0 is_stmt 1
	.fnstart
	.cfi_startproc
	.save	{r7, lr}
	push	{r7, lr}
.Lcfi31:
	.cfi_def_cfa_offset 8
.Lcfi32:
	.cfi_offset lr, -4
.Lcfi33:
	.cfi_offset r7, -8
	.setfp	r7, sp
	add	r7, sp, #0
.Lcfi34:
	.cfi_def_cfa_register r7
.Ltmp48:
	.loc	4 23 0 prologue_end
	ldr	r0, [r0]
.Ltmp49:
	bl	_ZN8cortex_m3itm9write_all17he5c9ee2f5843849aE
.Ltmp50:
	.loc	4 0 0 is_stmt 0
	movs	r0, #0
	.loc	4 25 0 is_stmt 1
	pop	{r7, pc}
.Ltmp51:
.Lfunc_end9:
	.size	_ZN70_$LT$cortex_m..itm..Port$LT$$u27$p$GT$$u20$as$u20$core..fmt..Write$GT$9write_str17h6aaefbf2465f4f35E, .Lfunc_end9-_ZN70_$LT$cortex_m..itm..Port$LT$$u27$p$GT$$u20$as$u20$core..fmt..Write$GT$9write_str17h6aaefbf2465f4f35E
	.cfi_endproc
	.cantunwind
	.fnend

	.section	.text._ZN8cortex_m3itm9write_all17he5c9ee2f5843849aE,"ax",%progbits
	.globl	_ZN8cortex_m3itm9write_all17he5c9ee2f5843849aE
	.p2align	1
	.type	_ZN8cortex_m3itm9write_all17he5c9ee2f5843849aE,%function
	.code	16
	.thumb_func
_ZN8cortex_m3itm9write_all17he5c9ee2f5843849aE:
.Lfunc_begin10:
	.loc	4 29 0
	.fnstart
	.cfi_startproc
	.save	{r7, lr}
	push	{r7, lr}
.Lcfi35:
	.cfi_def_cfa_offset 8
.Lcfi36:
	.cfi_offset lr, -4
.Lcfi37:
	.cfi_offset r7, -8
	.setfp	r7, sp
	add	r7, sp, #0
.Lcfi38:
	.cfi_def_cfa_register r7
.Ltmp52:
	.loc	4 34 0 prologue_end
	cmp	r2, #0
	beq	.LBB10_9
.Ltmp53:
	.loc	4 39 0
	movs	r3, #1
	tst	r1, r3
	beq	.LBB10_4
.Ltmp54:
.LBB10_2:
	.loc	1 418 0
	ldr	r3, [r0]
.Ltmp55:
	.loc	4 40 0
	cmp	r3, #1
	bne	.LBB10_2
.Ltmp56:
	.loc	4 41 0
	ldrb	r3, [r1]
.Ltmp57:
	.loc	1 470 0
	strb	r3, [r0]
.Ltmp58:
	.loc	4 45 0
	subs	r2, r2, #1
.Ltmp59:
	.loc	1 582 0
	adds	r1, r1, #1
.Ltmp60:
.LBB10_4:
	.loc	4 49 0
	movs	r3, #3
	ands	r3, r1
	cmp	r3, #2
	bne	.LBB10_8
.Ltmp61:
	.loc	4 50 0
	cmp	r2, #2
	blo	.LBB10_10
.Ltmp62:
.LBB10_6:
	.loc	1 418 0
	ldr	r3, [r0]
.Ltmp63:
	.loc	4 52 0
	cmp	r3, #1
	bne	.LBB10_6
.Ltmp64:
	.loc	1 252 0
	ldrh	r3, [r1]
.Ltmp65:
	.loc	1 470 0
	strh	r3, [r0]
.Ltmp66:
	.loc	4 57 0
	subs	r2, r2, #2
.Ltmp67:
	.loc	1 582 0
	adds	r1, r1, #2
.Ltmp68:
.LBB10_8:
	.loc	4 69 0
	bl	_ZN8cortex_m3itm13write_aligned17habc715049e5ebf9eE
.Ltmp69:
.LBB10_9:
	.loc	4 71 0
	pop	{r7, pc}
.LBB10_10:
.Ltmp70:
	.loc	4 59 0
	cmp	r2, #1
	bne	.LBB10_9
.Ltmp71:
.LBB10_11:
	.loc	1 418 0
	ldr	r2, [r0]
.Ltmp72:
	.loc	4 61 0
	cmp	r2, #1
	bne	.LBB10_11
.Ltmp73:
	.loc	4 62 0
	ldrb	r1, [r1]
.Ltmp74:
	.loc	1 470 0
	strb	r1, [r0]
.Ltmp75:
	.loc	4 71 0
	pop	{r7, pc}
.Ltmp76:
.Lfunc_end10:
	.size	_ZN8cortex_m3itm9write_all17he5c9ee2f5843849aE, .Lfunc_end10-_ZN8cortex_m3itm9write_all17he5c9ee2f5843849aE
	.cfi_endproc
	.file	10 "/Users/arko/.cargo/registry/src/github.com-1ecc6299db9ec823/cortex-m-0.3.1/src/peripheral/mod.rs"
	.cantunwind
	.fnend

	.section	.text._ZN8cortex_m3itm13write_aligned17habc715049e5ebf9eE,"ax",%progbits
	.globl	_ZN8cortex_m3itm13write_aligned17habc715049e5ebf9eE
	.p2align	1
	.type	_ZN8cortex_m3itm13write_aligned17habc715049e5ebf9eE,%function
	.code	16
	.thumb_func
_ZN8cortex_m3itm13write_aligned17habc715049e5ebf9eE:
.Lfunc_begin11:
	.loc	4 87 0
	.fnstart
	.cfi_startproc
	.save	{r4, r5, r6, r7, lr}
	push	{r4, r5, r6, r7, lr}
.Lcfi39:
	.cfi_def_cfa_offset 20
.Lcfi40:
	.cfi_offset lr, -4
.Lcfi41:
	.cfi_offset r7, -8
.Lcfi42:
	.cfi_offset r6, -12
.Lcfi43:
	.cfi_offset r5, -16
.Lcfi44:
	.cfi_offset r4, -20
	.setfp	r7, sp, #12
	add	r7, sp, #12
.Lcfi45:
	.cfi_def_cfa r7, 8
	.pad	#8
	sub	sp, #8
.Ltmp77:
	str	r1, [sp, #4]
.Ltmp78:
	.loc	4 91 0 prologue_end
	cmp	r2, #0
	beq	.LBB11_11
.Ltmp79:
	.loc	4 95 0
	movs	r1, #3
	mov	r4, r2
	str	r1, [sp]
	bics	r4, r1
.Ltmp80:
	.loc	4 98 0
	lsrs	r5, r2, #2
.Ltmp81:
	.loc	4 0 0 is_stmt 0
	beq	.LBB11_5
.Ltmp82:
	movs	r6, #0
	ldr	r1, [sp, #4]
.LBB11_3:
.Ltmp83:
	.loc	1 418 0 is_stmt 1
	ldr	r3, [r0]
.Ltmp84:
	.loc	4 13 0
	cmp	r3, #1
	bne	.LBB11_3
.Ltmp85:
	.loc	1 252 0
	ldm	r1!, {r3}
.Ltmp86:
	.loc	1 470 0
	str	r3, [r0]
	adds	r6, r6, #1
.Ltmp87:
	.file	11 "/Users/arko/.rustup/toolchains/nightly-x86_64-apple-darwin/lib/rustlib/src/rust/src/libcore/iter/range.rs"
	.loc	11 218 0
	cmp	r6, r5
.Ltmp88:
	.loc	11 0 0 is_stmt 0
	bne	.LBB11_3
.Ltmp89:
.LBB11_5:
	.loc	1 582 0 is_stmt 1
	ldr	r1, [sp, #4]
	adds	r1, r1, r4
.Ltmp90:
	.loc	4 102 0
	ldr	r3, [sp]
	ands	r2, r3
.Ltmp91:
	.loc	4 106 0
	cmp	r2, #2
	blo	.LBB11_8
.Ltmp92:
.LBB11_6:
	.loc	1 418 0
	ldr	r3, [r0]
.Ltmp93:
	.loc	4 107 0
	cmp	r3, #1
	bne	.LBB11_6
.Ltmp94:
	.loc	1 252 0
	ldrh	r3, [r1]
.Ltmp95:
	.loc	1 470 0
	strh	r3, [r0]
.Ltmp96:
	.loc	4 111 0
	subs	r2, r2, #2
.Ltmp97:
	.loc	1 582 0
	adds	r1, r1, #2
.Ltmp98:
.LBB11_8:
	.loc	4 115 0
	cmp	r2, #1
	bne	.LBB11_11
.Ltmp99:
.LBB11_9:
	.loc	1 418 0
	ldr	r2, [r0]
.Ltmp100:
	.loc	4 116 0
	cmp	r2, #1
	bne	.LBB11_9
.Ltmp101:
	.loc	4 117 0
	ldrb	r1, [r1]
.Ltmp102:
	.loc	1 470 0
	strb	r1, [r0]
.Ltmp103:
.LBB11_11:
	.loc	4 120 0
	add	sp, #8
	pop	{r4, r5, r6, r7, pc}
.Ltmp104:
.Lfunc_end11:
	.size	_ZN8cortex_m3itm13write_aligned17habc715049e5ebf9eE, .Lfunc_end11-_ZN8cortex_m3itm13write_aligned17habc715049e5ebf9eE
	.cfi_endproc
	.cantunwind
	.fnend

	.section	.text._ZN8cortex_m3itm9write_fmt17hf9510efb3ca08d89E,"ax",%progbits
	.globl	_ZN8cortex_m3itm9write_fmt17hf9510efb3ca08d89E
	.p2align	2
	.type	_ZN8cortex_m3itm9write_fmt17hf9510efb3ca08d89E,%function
	.code	16
	.thumb_func
_ZN8cortex_m3itm9write_fmt17hf9510efb3ca08d89E:
.Lfunc_begin12:
	.loc	4 123 0
	.fnstart
	.cfi_startproc
	.save	{r4, r5, r7, lr}
	push	{r4, r5, r7, lr}
.Lcfi46:
	.cfi_def_cfa_offset 16
.Lcfi47:
	.cfi_offset lr, -4
.Lcfi48:
	.cfi_offset r7, -8
.Lcfi49:
	.cfi_offset r5, -12
.Lcfi50:
	.cfi_offset r4, -16
	.setfp	r7, sp, #8
	add	r7, sp, #8
.Lcfi51:
	.cfi_def_cfa r7, 8
	.pad	#32
	sub	sp, #32
.Ltmp105:
	.loc	4 126 0 prologue_end
	str	r0, [sp]
	mov	r0, sp
.Ltmp106:
	.loc	2 223 0
	str	r0, [sp, #4]
	add	r2, sp, #8
	mov	r0, r2
.Ltmp107:
	ldm	r1!, {r3, r4, r5}
.Ltmp108:
	stm	r0!, {r3, r4, r5}
	ldm	r1!, {r3, r4, r5}
	stm	r0!, {r3, r4, r5}
	add	r0, sp, #4
	ldr	r1, .LCPI12_0
	bl	_ZN4core3fmt5write17hc9cafa2989c65c03E
.Ltmp109:
	.loc	4 127 0
	add	sp, #32
	pop	{r4, r5, r7, pc}
.Ltmp110:
	.p2align	2
	.loc	4 0 0 is_stmt 0
.LCPI12_0:
	.long	vtable.8
.Lfunc_end12:
	.size	_ZN8cortex_m3itm9write_fmt17hf9510efb3ca08d89E, .Lfunc_end12-_ZN8cortex_m3itm9write_fmt17hf9510efb3ca08d89E
	.cfi_endproc
	.cantunwind
	.fnend

	.section	.text._ZN8cortex_m3itm9write_str17h5da2a5cdcadd0197E,"ax",%progbits
	.globl	_ZN8cortex_m3itm9write_str17h5da2a5cdcadd0197E
	.p2align	1
	.type	_ZN8cortex_m3itm9write_str17h5da2a5cdcadd0197E,%function
	.code	16
	.thumb_func
_ZN8cortex_m3itm9write_str17h5da2a5cdcadd0197E:
.Lfunc_begin13:
	.loc	4 130 0 is_stmt 1
	.fnstart
	.cfi_startproc
	.save	{r7, lr}
	push	{r7, lr}
.Lcfi52:
	.cfi_def_cfa_offset 8
.Lcfi53:
	.cfi_offset lr, -4
.Lcfi54:
	.cfi_offset r7, -8
	.setfp	r7, sp
	add	r7, sp, #0
.Lcfi55:
	.cfi_def_cfa_register r7
.Ltmp111:
	.loc	4 131 0 prologue_end
	bl	_ZN8cortex_m3itm9write_all17he5c9ee2f5843849aE
.Ltmp112:
	.loc	4 132 0
	pop	{r7, pc}
.Ltmp113:
.Lfunc_end13:
	.size	_ZN8cortex_m3itm9write_str17h5da2a5cdcadd0197E, .Lfunc_end13-_ZN8cortex_m3itm9write_str17h5da2a5cdcadd0197E
	.cfi_endproc
	.cantunwind
	.fnend

	.section	.text._ZN8cortex_m10peripheral3DWT20enable_cycle_counter17h9a4b48dc7a2abcf8E,"ax",%progbits
	.globl	_ZN8cortex_m10peripheral3DWT20enable_cycle_counter17h9a4b48dc7a2abcf8E
	.p2align	1
	.type	_ZN8cortex_m10peripheral3DWT20enable_cycle_counter17h9a4b48dc7a2abcf8E,%function
	.code	16
	.thumb_func
_ZN8cortex_m10peripheral3DWT20enable_cycle_counter17h9a4b48dc7a2abcf8E:
.Lfunc_begin14:
	.loc	10 175 0
	.fnstart
	.cfi_startproc
	.loc	1 418 0 prologue_end
	ldr	r1, [r0]
.Ltmp114:
	.loc	10 176 0
	movs	r2, #1
	orrs	r2, r1
.Ltmp115:
	.loc	1 470 0
	str	r2, [r0]
.Ltmp116:
	.loc	10 177 0
	bx	lr
.Ltmp117:
.Lfunc_end14:
	.size	_ZN8cortex_m10peripheral3DWT20enable_cycle_counter17h9a4b48dc7a2abcf8E, .Lfunc_end14-_ZN8cortex_m10peripheral3DWT20enable_cycle_counter17h9a4b48dc7a2abcf8E
	.cfi_endproc
	.cantunwind
	.fnend

	.section	.text._ZN8cortex_m10peripheral4Stim8write_u817h9812270375e31fdcE,"ax",%progbits
	.globl	_ZN8cortex_m10peripheral4Stim8write_u817h9812270375e31fdcE
	.p2align	1
	.type	_ZN8cortex_m10peripheral4Stim8write_u817h9812270375e31fdcE,%function
	.code	16
	.thumb_func
_ZN8cortex_m10peripheral4Stim8write_u817h9812270375e31fdcE:
.Lfunc_begin15:
	.loc	10 254 0
	.fnstart
	.cfi_startproc
	.loc	1 470 0 prologue_end
	strb	r1, [r0]
.Ltmp118:
	.loc	10 256 0
	bx	lr
.Ltmp119:
.Lfunc_end15:
	.size	_ZN8cortex_m10peripheral4Stim8write_u817h9812270375e31fdcE, .Lfunc_end15-_ZN8cortex_m10peripheral4Stim8write_u817h9812270375e31fdcE
	.cfi_endproc
	.cantunwind
	.fnend

	.section	.text._ZN8cortex_m10peripheral4Stim9write_u1617h074b290582f13147E,"ax",%progbits
	.globl	_ZN8cortex_m10peripheral4Stim9write_u1617h074b290582f13147E
	.p2align	1
	.type	_ZN8cortex_m10peripheral4Stim9write_u1617h074b290582f13147E,%function
	.code	16
	.thumb_func
_ZN8cortex_m10peripheral4Stim9write_u1617h074b290582f13147E:
.Lfunc_begin16:
	.loc	10 259 0
	.fnstart
	.cfi_startproc
	.loc	1 470 0 prologue_end
	strh	r1, [r0]
.Ltmp120:
	.loc	10 261 0
	bx	lr
.Ltmp121:
.Lfunc_end16:
	.size	_ZN8cortex_m10peripheral4Stim9write_u1617h074b290582f13147E, .Lfunc_end16-_ZN8cortex_m10peripheral4Stim9write_u1617h074b290582f13147E
	.cfi_endproc
	.cantunwind
	.fnend

	.section	.text._ZN8cortex_m10peripheral4Stim9write_u3217hbd412a9a83d7f1e5E,"ax",%progbits
	.globl	_ZN8cortex_m10peripheral4Stim9write_u3217hbd412a9a83d7f1e5E
	.p2align	1
	.type	_ZN8cortex_m10peripheral4Stim9write_u3217hbd412a9a83d7f1e5E,%function
	.code	16
	.thumb_func
_ZN8cortex_m10peripheral4Stim9write_u3217hbd412a9a83d7f1e5E:
.Lfunc_begin17:
	.loc	10 264 0
	.fnstart
	.cfi_startproc
	.loc	1 470 0 prologue_end
	str	r1, [r0]
.Ltmp122:
	.loc	10 266 0
	bx	lr
.Ltmp123:
.Lfunc_end17:
	.size	_ZN8cortex_m10peripheral4Stim9write_u3217hbd412a9a83d7f1e5E, .Lfunc_end17-_ZN8cortex_m10peripheral4Stim9write_u3217hbd412a9a83d7f1e5E
	.cfi_endproc
	.cantunwind
	.fnend

	.section	.text._ZN8cortex_m10peripheral4Stim13is_fifo_ready17h0a9a7ed406066e76E,"ax",%progbits
	.globl	_ZN8cortex_m10peripheral4Stim13is_fifo_ready17h0a9a7ed406066e76E
	.p2align	1
	.type	_ZN8cortex_m10peripheral4Stim13is_fifo_ready17h0a9a7ed406066e76E,%function
	.code	16
	.thumb_func
_ZN8cortex_m10peripheral4Stim13is_fifo_ready17h0a9a7ed406066e76E:
.Lfunc_begin18:
	.loc	10 269 0
	.fnstart
	.cfi_startproc
	.loc	1 418 0 prologue_end
	ldr	r1, [r0]
.Ltmp124:
	.loc	10 270 0
	movs	r0, #0
.Ltmp125:
	cmp	r1, #1
	bne	.LBB18_2
	mov	r0, r1
.Ltmp126:
.LBB18_2:
	.loc	10 271 0
	bx	lr
.Ltmp127:
.Lfunc_end18:
	.size	_ZN8cortex_m10peripheral4Stim13is_fifo_ready17h0a9a7ed406066e76E, .Lfunc_end18-_ZN8cortex_m10peripheral4Stim13is_fifo_ready17h0a9a7ed406066e76E
	.cfi_endproc
	.cantunwind
	.fnend

	.section	.text._ZN8cortex_m10peripheral4SYST18is_counter_enabled17h2991d2e6dcff9b7bE,"ax",%progbits
	.globl	_ZN8cortex_m10peripheral4SYST18is_counter_enabled17h2991d2e6dcff9b7bE
	.p2align	1
	.type	_ZN8cortex_m10peripheral4SYST18is_counter_enabled17h2991d2e6dcff9b7bE,%function
	.code	16
	.thumb_func
_ZN8cortex_m10peripheral4SYST18is_counter_enabled17h2991d2e6dcff9b7bE:
.Lfunc_begin19:
	.loc	10 836 0
	.fnstart
	.cfi_startproc
	.loc	1 418 0 prologue_end
	ldr	r1, [r0]
.Ltmp128:
	.loc	10 837 0
	movs	r0, #1
.Ltmp129:
	ands	r0, r1
	.loc	10 838 0
	bx	lr
.Ltmp130:
.Lfunc_end19:
	.size	_ZN8cortex_m10peripheral4SYST18is_counter_enabled17h2991d2e6dcff9b7bE, .Lfunc_end19-_ZN8cortex_m10peripheral4SYST18is_counter_enabled17h2991d2e6dcff9b7bE
	.cfi_endproc
	.cantunwind
	.fnend

	.section	.text._ZN8cortex_m10peripheral4SYST14enable_counter17h01be757748b2a27eE,"ax",%progbits
	.globl	_ZN8cortex_m10peripheral4SYST14enable_counter17h01be757748b2a27eE
	.p2align	1
	.type	_ZN8cortex_m10peripheral4SYST14enable_counter17h01be757748b2a27eE,%function
	.code	16
	.thumb_func
_ZN8cortex_m10peripheral4SYST14enable_counter17h01be757748b2a27eE:
.Lfunc_begin20:
	.loc	10 841 0
	.fnstart
	.cfi_startproc
	.loc	1 418 0 prologue_end
	ldr	r1, [r0]
.Ltmp131:
	.loc	10 842 0
	movs	r2, #1
	orrs	r2, r1
.Ltmp132:
	.loc	1 470 0
	str	r2, [r0]
.Ltmp133:
	.loc	10 843 0
	bx	lr
.Ltmp134:
.Lfunc_end20:
	.size	_ZN8cortex_m10peripheral4SYST14enable_counter17h01be757748b2a27eE, .Lfunc_end20-_ZN8cortex_m10peripheral4SYST14enable_counter17h01be757748b2a27eE
	.cfi_endproc
	.cantunwind
	.fnend

	.section	.text._ZN8cortex_m10peripheral4SYST15disable_counter17h222d03f2375f8895E,"ax",%progbits
	.globl	_ZN8cortex_m10peripheral4SYST15disable_counter17h222d03f2375f8895E
	.p2align	1
	.type	_ZN8cortex_m10peripheral4SYST15disable_counter17h222d03f2375f8895E,%function
	.code	16
	.thumb_func
_ZN8cortex_m10peripheral4SYST15disable_counter17h222d03f2375f8895E:
.Lfunc_begin21:
	.loc	10 846 0
	.fnstart
	.cfi_startproc
	.loc	1 418 0 prologue_end
	ldr	r1, [r0]
.Ltmp135:
	.loc	10 847 0
	movs	r2, #1
	bics	r1, r2
.Ltmp136:
	.loc	1 470 0
	str	r1, [r0]
.Ltmp137:
	.loc	10 848 0
	bx	lr
.Ltmp138:
.Lfunc_end21:
	.size	_ZN8cortex_m10peripheral4SYST15disable_counter17h222d03f2375f8895E, .Lfunc_end21-_ZN8cortex_m10peripheral4SYST15disable_counter17h222d03f2375f8895E
	.cfi_endproc
	.cantunwind
	.fnend

	.section	.text._ZN8cortex_m10peripheral4SYST20is_interrupt_enabled17he29261cc7064c83aE,"ax",%progbits
	.globl	_ZN8cortex_m10peripheral4SYST20is_interrupt_enabled17he29261cc7064c83aE
	.p2align	1
	.type	_ZN8cortex_m10peripheral4SYST20is_interrupt_enabled17he29261cc7064c83aE,%function
	.code	16
	.thumb_func
_ZN8cortex_m10peripheral4SYST20is_interrupt_enabled17he29261cc7064c83aE:
.Lfunc_begin22:
	.loc	10 851 0
	.fnstart
	.cfi_startproc
	.loc	1 418 0 prologue_end
	ldr	r0, [r0]
.Ltmp139:
	.loc	10 852 0
	movs	r1, #2
	ands	r1, r0
	lsrs	r0, r1, #1
	.loc	10 853 0
	bx	lr
.Ltmp140:
.Lfunc_end22:
	.size	_ZN8cortex_m10peripheral4SYST20is_interrupt_enabled17he29261cc7064c83aE, .Lfunc_end22-_ZN8cortex_m10peripheral4SYST20is_interrupt_enabled17he29261cc7064c83aE
	.cfi_endproc
	.cantunwind
	.fnend

	.section	.text._ZN8cortex_m10peripheral4SYST16enable_interrupt17h227fe6cafde955adE,"ax",%progbits
	.globl	_ZN8cortex_m10peripheral4SYST16enable_interrupt17h227fe6cafde955adE
	.p2align	1
	.type	_ZN8cortex_m10peripheral4SYST16enable_interrupt17h227fe6cafde955adE,%function
	.code	16
	.thumb_func
_ZN8cortex_m10peripheral4SYST16enable_interrupt17h227fe6cafde955adE:
.Lfunc_begin23:
	.loc	10 856 0
	.fnstart
	.cfi_startproc
	.loc	1 418 0 prologue_end
	ldr	r1, [r0]
.Ltmp141:
	.loc	10 857 0
	movs	r2, #2
	orrs	r2, r1
.Ltmp142:
	.loc	1 470 0
	str	r2, [r0]
.Ltmp143:
	.loc	10 858 0
	bx	lr
.Ltmp144:
.Lfunc_end23:
	.size	_ZN8cortex_m10peripheral4SYST16enable_interrupt17h227fe6cafde955adE, .Lfunc_end23-_ZN8cortex_m10peripheral4SYST16enable_interrupt17h227fe6cafde955adE
	.cfi_endproc
	.cantunwind
	.fnend

	.section	.text._ZN8cortex_m10peripheral4SYST17disable_interrupt17h718fd882973d8fc3E,"ax",%progbits
	.globl	_ZN8cortex_m10peripheral4SYST17disable_interrupt17h718fd882973d8fc3E
	.p2align	1
	.type	_ZN8cortex_m10peripheral4SYST17disable_interrupt17h718fd882973d8fc3E,%function
	.code	16
	.thumb_func
_ZN8cortex_m10peripheral4SYST17disable_interrupt17h718fd882973d8fc3E:
.Lfunc_begin24:
	.loc	10 861 0
	.fnstart
	.cfi_startproc
	.loc	1 418 0 prologue_end
	ldr	r1, [r0]
.Ltmp145:
	.loc	10 862 0
	movs	r2, #2
	bics	r1, r2
.Ltmp146:
	.loc	1 470 0
	str	r1, [r0]
.Ltmp147:
	.loc	10 863 0
	bx	lr
.Ltmp148:
.Lfunc_end24:
	.size	_ZN8cortex_m10peripheral4SYST17disable_interrupt17h718fd882973d8fc3E, .Lfunc_end24-_ZN8cortex_m10peripheral4SYST17disable_interrupt17h718fd882973d8fc3E
	.cfi_endproc
	.cantunwind
	.fnend

	.section	.text._ZN8cortex_m10peripheral4SYST16get_clock_source17h6b8a8569e164b8deE,"ax",%progbits
	.globl	_ZN8cortex_m10peripheral4SYST16get_clock_source17h6b8a8569e164b8deE
	.p2align	1
	.type	_ZN8cortex_m10peripheral4SYST16get_clock_source17h6b8a8569e164b8deE,%function
	.code	16
	.thumb_func
_ZN8cortex_m10peripheral4SYST16get_clock_source17h6b8a8569e164b8deE:
.Lfunc_begin25:
	.loc	10 866 0
	.fnstart
	.cfi_startproc
	.loc	1 418 0 prologue_end
	ldr	r2, [r0]
.Ltmp149:
	.loc	10 867 0
	movs	r3, #4
	movs	r0, #1
.Ltmp150:
	.loc	10 0 0 is_stmt 0
	movs	r1, #0
	.loc	10 867 0
	tst	r2, r3
	beq	.LBB25_2
	mov	r0, r1
.Ltmp151:
.LBB25_2:
	.loc	10 872 0 is_stmt 1
	bx	lr
.Ltmp152:
.Lfunc_end25:
	.size	_ZN8cortex_m10peripheral4SYST16get_clock_source17h6b8a8569e164b8deE, .Lfunc_end25-_ZN8cortex_m10peripheral4SYST16get_clock_source17h6b8a8569e164b8deE
	.cfi_endproc
	.cantunwind
	.fnend

	.section	.text._ZN8cortex_m10peripheral4SYST16set_clock_source17h473df3cf21a6ccfaE,"ax",%progbits
	.globl	_ZN8cortex_m10peripheral4SYST16set_clock_source17h473df3cf21a6ccfaE
	.p2align	1
	.type	_ZN8cortex_m10peripheral4SYST16set_clock_source17h473df3cf21a6ccfaE,%function
	.code	16
	.thumb_func
_ZN8cortex_m10peripheral4SYST16set_clock_source17h473df3cf21a6ccfaE:
.Lfunc_begin26:
	.loc	10 875 0
	.fnstart
	.cfi_startproc
	.save	{r4, r6, r7, lr}
	push	{r4, r6, r7, lr}
.Lcfi56:
	.cfi_def_cfa_offset 16
.Lcfi57:
	.cfi_offset lr, -4
.Lcfi58:
	.cfi_offset r7, -8
.Lcfi59:
	.cfi_offset r6, -12
.Lcfi60:
	.cfi_offset r4, -16
	.setfp	r7, sp, #8
	add	r7, sp, #8
.Lcfi61:
	.cfi_def_cfa r7, 8
.Ltmp153:
	.loc	1 418 0 prologue_end
	ldr	r2, [r0]
.Ltmp154:
	.loc	1 0 0 is_stmt 0
	movs	r4, #4
.Ltmp155:
	.loc	10 878 0 is_stmt 1
	mov	r3, r2
	bics	r3, r4
.Ltmp156:
	.loc	10 881 0
	orrs	r2, r4
.Ltmp157:
	.loc	10 877 0
	cmp	r1, #0
	bne	.LBB26_2
.Ltmp158:
	mov	r3, r2
.LBB26_2:
.Ltmp159:
	.loc	1 470 0
	str	r3, [r0]
.Ltmp160:
	.loc	10 884 0
	pop	{r4, r6, r7, pc}
.Ltmp161:
.Lfunc_end26:
	.size	_ZN8cortex_m10peripheral4SYST16set_clock_source17h473df3cf21a6ccfaE, .Lfunc_end26-_ZN8cortex_m10peripheral4SYST16set_clock_source17h473df3cf21a6ccfaE
	.cfi_endproc
	.cantunwind
	.fnend

	.section	.text._ZN8cortex_m10peripheral4SYST11has_wrapped17h65139c3fa6563396E,"ax",%progbits
	.globl	_ZN8cortex_m10peripheral4SYST11has_wrapped17h65139c3fa6563396E
	.p2align	1
	.type	_ZN8cortex_m10peripheral4SYST11has_wrapped17h65139c3fa6563396E,%function
	.code	16
	.thumb_func
_ZN8cortex_m10peripheral4SYST11has_wrapped17h65139c3fa6563396E:
.Lfunc_begin27:
	.loc	10 887 0
	.fnstart
	.cfi_startproc
	.loc	10 888 0 prologue_end
	movs	r1, #1
	lsls	r1, r1, #16
.Ltmp162:
	.loc	1 418 0
	ldr	r0, [r0]
.Ltmp163:
	.loc	10 888 0
	ands	r0, r1
	lsrs	r0, r0, #16
	.loc	10 889 0
	bx	lr
.Ltmp164:
.Lfunc_end27:
	.size	_ZN8cortex_m10peripheral4SYST11has_wrapped17h65139c3fa6563396E, .Lfunc_end27-_ZN8cortex_m10peripheral4SYST11has_wrapped17h65139c3fa6563396E
	.cfi_endproc
	.cantunwind
	.fnend

	.section	.text._ZN8cortex_m10peripheral4SYST10get_reload17ha7435ab55a47a683E,"ax",%progbits
	.globl	_ZN8cortex_m10peripheral4SYST10get_reload17ha7435ab55a47a683E
	.p2align	1
	.type	_ZN8cortex_m10peripheral4SYST10get_reload17ha7435ab55a47a683E,%function
	.code	16
	.thumb_func
_ZN8cortex_m10peripheral4SYST10get_reload17ha7435ab55a47a683E:
.Lfunc_begin28:
	.loc	10 892 0
	.fnstart
	.cfi_startproc
	.loc	1 418 0 prologue_end
	ldr	r0, [r0, #4]
.Ltmp165:
	.loc	10 894 0
	bx	lr
.Ltmp166:
.Lfunc_end28:
	.size	_ZN8cortex_m10peripheral4SYST10get_reload17ha7435ab55a47a683E, .Lfunc_end28-_ZN8cortex_m10peripheral4SYST10get_reload17ha7435ab55a47a683E
	.cfi_endproc
	.cantunwind
	.fnend

	.section	.text._ZN8cortex_m10peripheral4SYST10set_reload17h4d6d8308c20edc61E,"ax",%progbits
	.globl	_ZN8cortex_m10peripheral4SYST10set_reload17h4d6d8308c20edc61E
	.p2align	1
	.type	_ZN8cortex_m10peripheral4SYST10set_reload17h4d6d8308c20edc61E,%function
	.code	16
	.thumb_func
_ZN8cortex_m10peripheral4SYST10set_reload17h4d6d8308c20edc61E:
.Lfunc_begin29:
	.loc	10 899 0
	.fnstart
	.cfi_startproc
	.loc	1 470 0 prologue_end
	str	r1, [r0, #4]
.Ltmp167:
	.loc	10 901 0
	bx	lr
.Ltmp168:
.Lfunc_end29:
	.size	_ZN8cortex_m10peripheral4SYST10set_reload17h4d6d8308c20edc61E, .Lfunc_end29-_ZN8cortex_m10peripheral4SYST10set_reload17h4d6d8308c20edc61E
	.cfi_endproc
	.cantunwind
	.fnend

	.section	.text._ZN8cortex_m10peripheral4SYST11get_current17h2b4534fe0e1bd2aeE,"ax",%progbits
	.globl	_ZN8cortex_m10peripheral4SYST11get_current17h2b4534fe0e1bd2aeE
	.p2align	1
	.type	_ZN8cortex_m10peripheral4SYST11get_current17h2b4534fe0e1bd2aeE,%function
	.code	16
	.thumb_func
_ZN8cortex_m10peripheral4SYST11get_current17h2b4534fe0e1bd2aeE:
.Lfunc_begin30:
	.loc	10 904 0
	.fnstart
	.cfi_startproc
	.loc	1 418 0 prologue_end
	ldr	r0, [r0, #8]
.Ltmp169:
	.loc	10 906 0
	bx	lr
.Ltmp170:
.Lfunc_end30:
	.size	_ZN8cortex_m10peripheral4SYST11get_current17h2b4534fe0e1bd2aeE, .Lfunc_end30-_ZN8cortex_m10peripheral4SYST11get_current17h2b4534fe0e1bd2aeE
	.cfi_endproc
	.cantunwind
	.fnend

	.section	.text._ZN8cortex_m10peripheral4SYST13clear_current17h5aefc344c0651f6fE,"ax",%progbits
	.globl	_ZN8cortex_m10peripheral4SYST13clear_current17h5aefc344c0651f6fE
	.p2align	1
	.type	_ZN8cortex_m10peripheral4SYST13clear_current17h5aefc344c0651f6fE,%function
	.code	16
	.thumb_func
_ZN8cortex_m10peripheral4SYST13clear_current17h5aefc344c0651f6fE:
.Lfunc_begin31:
	.loc	10 912 0
	.fnstart
	.cfi_startproc
	.loc	1 470 0 prologue_end
	movs	r1, #0
	str	r1, [r0, #8]
.Ltmp171:
	.loc	10 914 0
	bx	lr
.Ltmp172:
.Lfunc_end31:
	.size	_ZN8cortex_m10peripheral4SYST13clear_current17h5aefc344c0651f6fE, .Lfunc_end31-_ZN8cortex_m10peripheral4SYST13clear_current17h5aefc344c0651f6fE
	.cfi_endproc
	.cantunwind
	.fnend

	.section	.text._ZN8cortex_m10peripheral4SYST18get_ticks_per_10ms17h0e3bfbe6b720132cE,"ax",%progbits
	.globl	_ZN8cortex_m10peripheral4SYST18get_ticks_per_10ms17h0e3bfbe6b720132cE
	.p2align	1
	.type	_ZN8cortex_m10peripheral4SYST18get_ticks_per_10ms17h0e3bfbe6b720132cE,%function
	.code	16
	.thumb_func
_ZN8cortex_m10peripheral4SYST18get_ticks_per_10ms17h0e3bfbe6b720132cE:
.Lfunc_begin32:
	.loc	10 921 0
	.fnstart
	.cfi_startproc
	.loc	10 922 0 prologue_end
	movs	r1, #255
	lsls	r1, r1, #24
.Ltmp173:
	.loc	1 418 0
	ldr	r0, [r0, #12]
.Ltmp174:
	.loc	10 922 0
	bics	r0, r1
	.loc	10 923 0
	bx	lr
.Ltmp175:
.Lfunc_end32:
	.size	_ZN8cortex_m10peripheral4SYST18get_ticks_per_10ms17h0e3bfbe6b720132cE, .Lfunc_end32-_ZN8cortex_m10peripheral4SYST18get_ticks_per_10ms17h0e3bfbe6b720132cE
	.cfi_endproc
	.cantunwind
	.fnend

	.section	.text._ZN8cortex_m10peripheral4SYST10is_precise17hab5daf11a6540817E,"ax",%progbits
	.globl	_ZN8cortex_m10peripheral4SYST10is_precise17hab5daf11a6540817E
	.p2align	1
	.type	_ZN8cortex_m10peripheral4SYST10is_precise17hab5daf11a6540817E,%function
	.code	16
	.thumb_func
_ZN8cortex_m10peripheral4SYST10is_precise17hab5daf11a6540817E:
.Lfunc_begin33:
	.loc	10 930 0
	.fnstart
	.cfi_startproc
	mov	r1, r0
.Ltmp176:
	movs	r0, #1
.Ltmp177:
	.loc	10 931 0 prologue_end
	lsls	r2, r0, #30
.Ltmp178:
	.loc	1 418 0
	ldr	r3, [r1, #12]
	movs	r1, #0
.Ltmp179:
	.loc	10 931 0
	tst	r3, r2
	beq	.LBB33_2
	mov	r0, r1
.LBB33_2:
	.loc	10 932 0
	bx	lr
.Ltmp180:
.Lfunc_end33:
	.size	_ZN8cortex_m10peripheral4SYST10is_precise17hab5daf11a6540817E, .Lfunc_end33-_ZN8cortex_m10peripheral4SYST10is_precise17hab5daf11a6540817E
	.cfi_endproc
	.cantunwind
	.fnend

	.section	.text._ZN8cortex_m10peripheral4SYST19has_reference_clock17hb0e46b5278938562E,"ax",%progbits
	.globl	_ZN8cortex_m10peripheral4SYST19has_reference_clock17hb0e46b5278938562E
	.p2align	1
	.type	_ZN8cortex_m10peripheral4SYST19has_reference_clock17hb0e46b5278938562E,%function
	.code	16
	.thumb_func
_ZN8cortex_m10peripheral4SYST19has_reference_clock17hb0e46b5278938562E:
.Lfunc_begin34:
	.loc	10 935 0
	.fnstart
	.cfi_startproc
	.loc	1 418 0 prologue_end
	ldr	r2, [r0, #12]
	movs	r0, #1
.Ltmp181:
	.loc	10 936 0
	movs	r1, #0
	cmp	r2, #0
	bge	.LBB34_2
	mov	r0, r1
.LBB34_2:
	.loc	10 937 0
	bx	lr
.Ltmp182:
.Lfunc_end34:
	.size	_ZN8cortex_m10peripheral4SYST19has_reference_clock17hb0e46b5278938562E, .Lfunc_end34-_ZN8cortex_m10peripheral4SYST19has_reference_clock17hb0e46b5278938562E
	.cfi_endproc
	.cantunwind
	.fnend

	.section	.text._ZN8cortex_m8register4apsr4Apsr4bits17haaf219f66d76567fE,"ax",%progbits
	.globl	_ZN8cortex_m8register4apsr4Apsr4bits17haaf219f66d76567fE
	.p2align	1
	.type	_ZN8cortex_m8register4apsr4Apsr4bits17haaf219f66d76567fE,%function
	.code	16
	.thumb_func
_ZN8cortex_m8register4apsr4Apsr4bits17haaf219f66d76567fE:
.Lfunc_begin35:
	.file	12 "/Users/arko/.cargo/registry/src/github.com-1ecc6299db9ec823/cortex-m-0.3.1/src/register/apsr.rs"
	.loc	12 11 0
	.fnstart
	.cfi_startproc
	.loc	12 12 0 prologue_end
	ldr	r0, [r0]
.Ltmp183:
	.loc	12 13 0
	bx	lr
.Ltmp184:
.Lfunc_end35:
	.size	_ZN8cortex_m8register4apsr4Apsr4bits17haaf219f66d76567fE, .Lfunc_end35-_ZN8cortex_m8register4apsr4Apsr4bits17haaf219f66d76567fE
	.cfi_endproc
	.cantunwind
	.fnend

	.section	.text._ZN8cortex_m8register4apsr4Apsr1q17hb5ec072f984c934cE,"ax",%progbits
	.globl	_ZN8cortex_m8register4apsr4Apsr1q17hb5ec072f984c934cE
	.p2align	1
	.type	_ZN8cortex_m8register4apsr4Apsr1q17hb5ec072f984c934cE,%function
	.code	16
	.thumb_func
_ZN8cortex_m8register4apsr4Apsr1q17hb5ec072f984c934cE:
.Lfunc_begin36:
	.loc	12 16 0
	.fnstart
	.cfi_startproc
	.loc	12 17 0 prologue_end
	ldrb	r0, [r0, #3]
.Ltmp185:
	movs	r1, #8
	ands	r1, r0
	lsrs	r0, r1, #3
	.loc	12 18 0
	bx	lr
.Ltmp186:
.Lfunc_end36:
	.size	_ZN8cortex_m8register4apsr4Apsr1q17hb5ec072f984c934cE, .Lfunc_end36-_ZN8cortex_m8register4apsr4Apsr1q17hb5ec072f984c934cE
	.cfi_endproc
	.cantunwind
	.fnend

	.section	.text._ZN8cortex_m8register4apsr4Apsr1v17h15e154e9ffc763efE,"ax",%progbits
	.globl	_ZN8cortex_m8register4apsr4Apsr1v17h15e154e9ffc763efE
	.p2align	1
	.type	_ZN8cortex_m8register4apsr4Apsr1v17h15e154e9ffc763efE,%function
	.code	16
	.thumb_func
_ZN8cortex_m8register4apsr4Apsr1v17h15e154e9ffc763efE:
.Lfunc_begin37:
	.loc	12 21 0
	.fnstart
	.cfi_startproc
	.loc	12 22 0 prologue_end
	ldrb	r0, [r0, #3]
.Ltmp187:
	movs	r1, #16
	ands	r1, r0
	lsrs	r0, r1, #4
	.loc	12 23 0
	bx	lr
.Ltmp188:
.Lfunc_end37:
	.size	_ZN8cortex_m8register4apsr4Apsr1v17h15e154e9ffc763efE, .Lfunc_end37-_ZN8cortex_m8register4apsr4Apsr1v17h15e154e9ffc763efE
	.cfi_endproc
	.cantunwind
	.fnend

	.section	.text._ZN8cortex_m8register4apsr4Apsr1c17h26d7c3b892a21c8bE,"ax",%progbits
	.globl	_ZN8cortex_m8register4apsr4Apsr1c17h26d7c3b892a21c8bE
	.p2align	1
	.type	_ZN8cortex_m8register4apsr4Apsr1c17h26d7c3b892a21c8bE,%function
	.code	16
	.thumb_func
_ZN8cortex_m8register4apsr4Apsr1c17h26d7c3b892a21c8bE:
.Lfunc_begin38:
	.loc	12 26 0
	.fnstart
	.cfi_startproc
	.loc	12 27 0 prologue_end
	ldrb	r0, [r0, #3]
.Ltmp189:
	movs	r1, #32
	ands	r1, r0
	lsrs	r0, r1, #5
	.loc	12 28 0
	bx	lr
.Ltmp190:
.Lfunc_end38:
	.size	_ZN8cortex_m8register4apsr4Apsr1c17h26d7c3b892a21c8bE, .Lfunc_end38-_ZN8cortex_m8register4apsr4Apsr1c17h26d7c3b892a21c8bE
	.cfi_endproc
	.cantunwind
	.fnend

	.section	.text._ZN8cortex_m8register4apsr4Apsr1z17h1b6f717541f64b5fE,"ax",%progbits
	.globl	_ZN8cortex_m8register4apsr4Apsr1z17h1b6f717541f64b5fE
	.p2align	1
	.type	_ZN8cortex_m8register4apsr4Apsr1z17h1b6f717541f64b5fE,%function
	.code	16
	.thumb_func
_ZN8cortex_m8register4apsr4Apsr1z17h1b6f717541f64b5fE:
.Lfunc_begin39:
	.loc	12 31 0
	.fnstart
	.cfi_startproc
	.loc	12 32 0 prologue_end
	ldrb	r0, [r0, #3]
.Ltmp191:
	movs	r1, #64
	ands	r1, r0
	lsrs	r0, r1, #6
	.loc	12 33 0
	bx	lr
.Ltmp192:
.Lfunc_end39:
	.size	_ZN8cortex_m8register4apsr4Apsr1z17h1b6f717541f64b5fE, .Lfunc_end39-_ZN8cortex_m8register4apsr4Apsr1z17h1b6f717541f64b5fE
	.cfi_endproc
	.cantunwind
	.fnend

	.section	.text._ZN8cortex_m8register4apsr4Apsr1n17h1cbe03ba5702fcfdE,"ax",%progbits
	.globl	_ZN8cortex_m8register4apsr4Apsr1n17h1cbe03ba5702fcfdE
	.p2align	1
	.type	_ZN8cortex_m8register4apsr4Apsr1n17h1cbe03ba5702fcfdE,%function
	.code	16
	.thumb_func
_ZN8cortex_m8register4apsr4Apsr1n17h1cbe03ba5702fcfdE:
.Lfunc_begin40:
	.loc	12 36 0
	.fnstart
	.cfi_startproc
	.loc	12 37 0 prologue_end
	ldr	r0, [r0]
.Ltmp193:
	.loc	12 38 0
	lsrs	r0, r0, #31
	bx	lr
.Ltmp194:
.Lfunc_end40:
	.size	_ZN8cortex_m8register4apsr4Apsr1n17h1cbe03ba5702fcfdE, .Lfunc_end40-_ZN8cortex_m8register4apsr4Apsr1n17h1cbe03ba5702fcfdE
	.cfi_endproc
	.cantunwind
	.fnend

	.section	.text._ZN8cortex_m8register7control7Control4bits17h5a51608ad2291254E,"ax",%progbits
	.globl	_ZN8cortex_m8register7control7Control4bits17h5a51608ad2291254E
	.p2align	1
	.type	_ZN8cortex_m8register7control7Control4bits17h5a51608ad2291254E,%function
	.code	16
	.thumb_func
_ZN8cortex_m8register7control7Control4bits17h5a51608ad2291254E:
.Lfunc_begin41:
	.file	13 "/Users/arko/.cargo/registry/src/github.com-1ecc6299db9ec823/cortex-m-0.3.1/src/register/control.rs"
	.loc	13 11 0
	.fnstart
	.cfi_startproc
	.loc	13 12 0 prologue_end
	ldr	r0, [r0]
.Ltmp195:
	.loc	13 13 0
	bx	lr
.Ltmp196:
.Lfunc_end41:
	.size	_ZN8cortex_m8register7control7Control4bits17h5a51608ad2291254E, .Lfunc_end41-_ZN8cortex_m8register7control7Control4bits17h5a51608ad2291254E
	.cfi_endproc
	.cantunwind
	.fnend

	.section	.text._ZN8cortex_m8register7control7Control5npriv17hbf01265f0bbd700eE,"ax",%progbits
	.globl	_ZN8cortex_m8register7control7Control5npriv17hbf01265f0bbd700eE
	.p2align	1
	.type	_ZN8cortex_m8register7control7Control5npriv17hbf01265f0bbd700eE,%function
	.code	16
	.thumb_func
_ZN8cortex_m8register7control7Control5npriv17hbf01265f0bbd700eE:
.Lfunc_begin42:
	.loc	13 16 0
	.fnstart
	.cfi_startproc
	.loc	13 17 0 prologue_end
	ldr	r1, [r0]
	movs	r0, #1
.Ltmp197:
	ands	r0, r1
	.loc	13 22 0
	bx	lr
.Ltmp198:
.Lfunc_end42:
	.size	_ZN8cortex_m8register7control7Control5npriv17hbf01265f0bbd700eE, .Lfunc_end42-_ZN8cortex_m8register7control7Control5npriv17hbf01265f0bbd700eE
	.cfi_endproc
	.cantunwind
	.fnend

	.section	.text._ZN8cortex_m8register7control7Control5spsel17h9ad75bb970965149E,"ax",%progbits
	.globl	_ZN8cortex_m8register7control7Control5spsel17h9ad75bb970965149E
	.p2align	1
	.type	_ZN8cortex_m8register7control7Control5spsel17h9ad75bb970965149E,%function
	.code	16
	.thumb_func
_ZN8cortex_m8register7control7Control5spsel17h9ad75bb970965149E:
.Lfunc_begin43:
	.loc	13 25 0
	.fnstart
	.cfi_startproc
	.loc	13 26 0 prologue_end
	ldrb	r0, [r0]
.Ltmp199:
	movs	r1, #2
	ands	r1, r0
	lsrs	r0, r1, #1
	.loc	13 31 0
	bx	lr
.Ltmp200:
.Lfunc_end43:
	.size	_ZN8cortex_m8register7control7Control5spsel17h9ad75bb970965149E, .Lfunc_end43-_ZN8cortex_m8register7control7Control5spsel17h9ad75bb970965149E
	.cfi_endproc
	.cantunwind
	.fnend

	.section	.text._ZN8cortex_m8register7control7Control4fpca17h69120f52277f6ec0E,"ax",%progbits
	.globl	_ZN8cortex_m8register7control7Control4fpca17h69120f52277f6ec0E
	.p2align	1
	.type	_ZN8cortex_m8register7control7Control4fpca17h69120f52277f6ec0E,%function
	.code	16
	.thumb_func
_ZN8cortex_m8register7control7Control4fpca17h69120f52277f6ec0E:
.Lfunc_begin44:
	.loc	13 34 0
	.fnstart
	.cfi_startproc
	.loc	13 35 0 prologue_end
	ldrb	r0, [r0]
.Ltmp201:
	lsls	r2, r0, #29
	movs	r0, #1
	movs	r1, #0
	cmp	r2, #0
	bpl	.LBB44_2
	mov	r0, r1
.LBB44_2:
	.loc	13 40 0
	bx	lr
.Ltmp202:
.Lfunc_end44:
	.size	_ZN8cortex_m8register7control7Control4fpca17h69120f52277f6ec0E, .Lfunc_end44-_ZN8cortex_m8register7control7Control4fpca17h69120f52277f6ec0E
	.cfi_endproc
	.cantunwind
	.fnend

	.section	.text._ZN8cortex_m8register7control5Npriv13is_privileged17h54eb86a408095394E,"ax",%progbits
	.globl	_ZN8cortex_m8register7control5Npriv13is_privileged17h54eb86a408095394E
	.p2align	1
	.type	_ZN8cortex_m8register7control5Npriv13is_privileged17h54eb86a408095394E,%function
	.code	16
	.thumb_func
_ZN8cortex_m8register7control5Npriv13is_privileged17h54eb86a408095394E:
.Lfunc_begin45:
	.loc	13 54 0
	.fnstart
	.cfi_startproc
	.loc	13 44 0 prologue_end
	ldrb	r2, [r0]
	movs	r0, #1
.Ltmp203:
	.loc	13 44 0 is_stmt 0
	movs	r1, #0
	cmp	r2, #0
	beq	.LBB45_2
	mov	r0, r1
.Ltmp204:
.LBB45_2:
	.loc	13 56 0 is_stmt 1
	bx	lr
.Ltmp205:
.Lfunc_end45:
	.size	_ZN8cortex_m8register7control5Npriv13is_privileged17h54eb86a408095394E, .Lfunc_end45-_ZN8cortex_m8register7control5Npriv13is_privileged17h54eb86a408095394E
	.cfi_endproc
	.cantunwind
	.fnend

	.section	.text._ZN8cortex_m8register7control5Npriv15is_unprivileged17h613c1c6db4d00003E,"ax",%progbits
	.globl	_ZN8cortex_m8register7control5Npriv15is_unprivileged17h613c1c6db4d00003E
	.p2align	1
	.type	_ZN8cortex_m8register7control5Npriv15is_unprivileged17h613c1c6db4d00003E,%function
	.code	16
	.thumb_func
_ZN8cortex_m8register7control5Npriv15is_unprivileged17h613c1c6db4d00003E:
.Lfunc_begin46:
	.loc	13 59 0
	.fnstart
	.cfi_startproc
	.loc	13 44 0 prologue_end
	ldrb	r1, [r0]
.Ltmp206:
	.loc	13 44 0 is_stmt 0
	movs	r0, #0
.Ltmp207:
	cmp	r1, #1
	bne	.LBB46_2
	mov	r0, r1
.Ltmp208:
.LBB46_2:
	.loc	13 61 0 is_stmt 1
	bx	lr
.Ltmp209:
.Lfunc_end46:
	.size	_ZN8cortex_m8register7control5Npriv15is_unprivileged17h613c1c6db4d00003E, .Lfunc_end46-_ZN8cortex_m8register7control5Npriv15is_unprivileged17h613c1c6db4d00003E
	.cfi_endproc
	.cantunwind
	.fnend

	.section	.text._ZN8cortex_m8register7control5Spsel6is_msp17hd697382f834a7bb6E,"ax",%progbits
	.globl	_ZN8cortex_m8register7control5Spsel6is_msp17hd697382f834a7bb6E
	.p2align	1
	.type	_ZN8cortex_m8register7control5Spsel6is_msp17hd697382f834a7bb6E,%function
	.code	16
	.thumb_func
_ZN8cortex_m8register7control5Spsel6is_msp17hd697382f834a7bb6E:
.Lfunc_begin47:
	.loc	13 75 0
	.fnstart
	.cfi_startproc
	.loc	13 65 0 prologue_end
	ldrb	r2, [r0]
	movs	r0, #1
.Ltmp210:
	.loc	13 65 0 is_stmt 0
	movs	r1, #0
	cmp	r2, #0
	beq	.LBB47_2
	mov	r0, r1
.Ltmp211:
.LBB47_2:
	.loc	13 77 0 is_stmt 1
	bx	lr
.Ltmp212:
.Lfunc_end47:
	.size	_ZN8cortex_m8register7control5Spsel6is_msp17hd697382f834a7bb6E, .Lfunc_end47-_ZN8cortex_m8register7control5Spsel6is_msp17hd697382f834a7bb6E
	.cfi_endproc
	.cantunwind
	.fnend

	.section	.text._ZN8cortex_m8register7control5Spsel6is_psp17h1c9e27c1abc12861E,"ax",%progbits
	.globl	_ZN8cortex_m8register7control5Spsel6is_psp17h1c9e27c1abc12861E
	.p2align	1
	.type	_ZN8cortex_m8register7control5Spsel6is_psp17h1c9e27c1abc12861E,%function
	.code	16
	.thumb_func
_ZN8cortex_m8register7control5Spsel6is_psp17h1c9e27c1abc12861E:
.Lfunc_begin48:
	.loc	13 80 0
	.fnstart
	.cfi_startproc
	.loc	13 65 0 prologue_end
	ldrb	r1, [r0]
.Ltmp213:
	.loc	13 65 0 is_stmt 0
	movs	r0, #0
.Ltmp214:
	cmp	r1, #1
	bne	.LBB48_2
	mov	r0, r1
.Ltmp215:
.LBB48_2:
	.loc	13 82 0 is_stmt 1
	bx	lr
.Ltmp216:
.Lfunc_end48:
	.size	_ZN8cortex_m8register7control5Spsel6is_psp17h1c9e27c1abc12861E, .Lfunc_end48-_ZN8cortex_m8register7control5Spsel6is_psp17h1c9e27c1abc12861E
	.cfi_endproc
	.cantunwind
	.fnend

	.section	.text._ZN8cortex_m8register7control4Fpca9is_active17h83911b133b366b2fE,"ax",%progbits
	.globl	_ZN8cortex_m8register7control4Fpca9is_active17h83911b133b366b2fE
	.p2align	1
	.type	_ZN8cortex_m8register7control4Fpca9is_active17h83911b133b366b2fE,%function
	.code	16
	.thumb_func
_ZN8cortex_m8register7control4Fpca9is_active17h83911b133b366b2fE:
.Lfunc_begin49:
	.loc	13 96 0
	.fnstart
	.cfi_startproc
	.loc	13 86 0 prologue_end
	ldrb	r2, [r0]
	movs	r0, #1
.Ltmp217:
	.loc	13 86 0 is_stmt 0
	movs	r1, #0
	cmp	r2, #0
	beq	.LBB49_2
	mov	r0, r1
.Ltmp218:
.LBB49_2:
	.loc	13 98 0 is_stmt 1
	bx	lr
.Ltmp219:
.Lfunc_end49:
	.size	_ZN8cortex_m8register7control4Fpca9is_active17h83911b133b366b2fE, .Lfunc_end49-_ZN8cortex_m8register7control4Fpca9is_active17h83911b133b366b2fE
	.cfi_endproc
	.cantunwind
	.fnend

	.section	.text._ZN8cortex_m8register7control4Fpca13is_not_active17h8dce5cadeec510dbE,"ax",%progbits
	.globl	_ZN8cortex_m8register7control4Fpca13is_not_active17h8dce5cadeec510dbE
	.p2align	1
	.type	_ZN8cortex_m8register7control4Fpca13is_not_active17h8dce5cadeec510dbE,%function
	.code	16
	.thumb_func
_ZN8cortex_m8register7control4Fpca13is_not_active17h8dce5cadeec510dbE:
.Lfunc_begin50:
	.loc	13 101 0
	.fnstart
	.cfi_startproc
	.loc	13 86 0 prologue_end
	ldrb	r1, [r0]
.Ltmp220:
	.loc	13 86 0 is_stmt 0
	movs	r0, #0
.Ltmp221:
	cmp	r1, #1
	bne	.LBB50_2
	mov	r0, r1
.Ltmp222:
.LBB50_2:
	.loc	13 103 0 is_stmt 1
	bx	lr
.Ltmp223:
.Lfunc_end50:
	.size	_ZN8cortex_m8register7control4Fpca13is_not_active17h8dce5cadeec510dbE, .Lfunc_end50-_ZN8cortex_m8register7control4Fpca13is_not_active17h8dce5cadeec510dbE
	.cfi_endproc
	.cantunwind
	.fnend

	.section	.text._ZN8cortex_m8register7primask7Primask9is_active17h2eeff96f32e93b59E,"ax",%progbits
	.globl	_ZN8cortex_m8register7primask7Primask9is_active17h2eeff96f32e93b59E
	.p2align	1
	.type	_ZN8cortex_m8register7primask7Primask9is_active17h2eeff96f32e93b59E,%function
	.code	16
	.thumb_func
_ZN8cortex_m8register7primask7Primask9is_active17h2eeff96f32e93b59E:
.Lfunc_begin51:
	.file	14 "/Users/arko/.cargo/registry/src/github.com-1ecc6299db9ec823/cortex-m-0.3.1/src/register/primask.rs"
	.loc	14 14 0
	.fnstart
	.cfi_startproc
	.loc	14 4 0 prologue_end
	ldrb	r2, [r0]
	movs	r0, #1
.Ltmp224:
	.loc	14 4 0 is_stmt 0
	movs	r1, #0
	cmp	r2, #0
	beq	.LBB51_2
	mov	r0, r1
.Ltmp225:
.LBB51_2:
	.loc	14 16 0 is_stmt 1
	bx	lr
.Ltmp226:
.Lfunc_end51:
	.size	_ZN8cortex_m8register7primask7Primask9is_active17h2eeff96f32e93b59E, .Lfunc_end51-_ZN8cortex_m8register7primask7Primask9is_active17h2eeff96f32e93b59E
	.cfi_endproc
	.cantunwind
	.fnend

	.section	.text._ZN8cortex_m8register7primask7Primask11is_inactive17hc3f70f4a6a7b5403E,"ax",%progbits
	.globl	_ZN8cortex_m8register7primask7Primask11is_inactive17hc3f70f4a6a7b5403E
	.p2align	1
	.type	_ZN8cortex_m8register7primask7Primask11is_inactive17hc3f70f4a6a7b5403E,%function
	.code	16
	.thumb_func
_ZN8cortex_m8register7primask7Primask11is_inactive17hc3f70f4a6a7b5403E:
.Lfunc_begin52:
	.loc	14 19 0
	.fnstart
	.cfi_startproc
	.loc	14 4 0 prologue_end
	ldrb	r1, [r0]
.Ltmp227:
	.loc	14 4 0 is_stmt 0
	movs	r0, #0
.Ltmp228:
	cmp	r1, #1
	bne	.LBB52_2
	mov	r0, r1
.Ltmp229:
.LBB52_2:
	.loc	14 21 0 is_stmt 1
	bx	lr
.Ltmp230:
.Lfunc_end52:
	.size	_ZN8cortex_m8register7primask7Primask11is_inactive17hc3f70f4a6a7b5403E, .Lfunc_end52-_ZN8cortex_m8register7primask7Primask11is_inactive17hc3f70f4a6a7b5403E
	.cfi_endproc
	.cantunwind
	.fnend

	.section	".text._ZN67_$LT$cortex_m..exception..Exception$u20$as$u20$core..fmt..Debug$GT$3fmt17hdeb9912b605cdb9cE","ax",%progbits
	.globl	_ZN67_$LT$cortex_m..exception..Exception$u20$as$u20$core..fmt..Debug$GT$3fmt17hdeb9912b605cdb9cE
	.p2align	2
	.type	_ZN67_$LT$cortex_m..exception..Exception$u20$as$u20$core..fmt..Debug$GT$3fmt17hdeb9912b605cdb9cE,%function
	.code	16
	.thumb_func
_ZN67_$LT$cortex_m..exception..Exception$u20$as$u20$core..fmt..Debug$GT$3fmt17hdeb9912b605cdb9cE:
.Lfunc_begin53:
	.loc	7 4 0
	.fnstart
	.cfi_startproc
	.save	{r4, r5, r7, lr}
	push	{r4, r5, r7, lr}
.Lcfi62:
	.cfi_def_cfa_offset 16
.Lcfi63:
	.cfi_offset lr, -4
.Lcfi64:
	.cfi_offset r7, -8
.Lcfi65:
	.cfi_offset r5, -12
.Lcfi66:
	.cfi_offset r4, -16
	.setfp	r7, sp, #8
	add	r7, sp, #8
.Lcfi67:
	.cfi_def_cfa r7, 8
	.pad	#16
	sub	sp, #16
	mov	r4, r0
.Ltmp231:
	ldrb	r0, [r4]
.Ltmp232:
	.loc	7 4 0 prologue_end
	subs	r0, r0, #1
	cmp	r0, #8
	bhi	.LBB53_4
.Ltmp233:
	.loc	7 0 0 is_stmt 0
	.p2align	2
	add	r0, pc
	ldrb	r0, [r0, #4]
	lsls	r0, r0, #1
.LCPI53_11:
	add	pc, r0
.Ltmp234:
	.p2align	2
.LJTI53_0:
	.byte	(.LBB53_3-(.LCPI53_11+4))/2
	.byte	(.LBB53_5-(.LCPI53_11+4))/2
	.byte	(.LBB53_7-(.LCPI53_11+4))/2
	.byte	(.LBB53_8-(.LCPI53_11+4))/2
	.byte	(.LBB53_9-(.LCPI53_11+4))/2
	.byte	(.LBB53_10-(.LCPI53_11+4))/2
	.byte	(.LBB53_12-(.LCPI53_11+4))/2
	.byte	(.LBB53_13-(.LCPI53_11+4))/2
	.byte	(.LBB53_14-(.LCPI53_11+4))/2
	.p2align	1
.LBB53_3:
.Ltmp235:
	add	r4, sp, #4
.Ltmp236:
	.loc	7 4 0
	ldr	r2, .LCPI53_9
	b	.LBB53_6
.Ltmp237:
.LBB53_4:
	.loc	7 0 0
	add	r4, sp, #4
.Ltmp238:
	.loc	7 4 0
	ldr	r2, .LCPI53_10
	movs	r3, #3
	b	.LBB53_16
.Ltmp239:
.LBB53_5:
	.loc	7 0 0
	add	r4, sp, #4
.Ltmp240:
	.loc	7 4 0
	ldr	r2, .LCPI53_8
.Ltmp241:
.LBB53_6:
	.loc	7 0 0
	movs	r3, #9
	b	.LBB53_16
.Ltmp242:
.LBB53_7:
	add	r4, sp, #4
.Ltmp243:
	.loc	7 4 0
	ldr	r2, .LCPI53_7
	b	.LBB53_15
.Ltmp244:
.LBB53_8:
	.loc	7 0 0
	add	r4, sp, #4
.Ltmp245:
	.loc	7 4 0
	ldr	r2, .LCPI53_6
	movs	r3, #10
	b	.LBB53_16
.Ltmp246:
.LBB53_9:
	.loc	7 0 0
	add	r4, sp, #4
.Ltmp247:
	.loc	7 4 0
	ldr	r2, .LCPI53_5
	b	.LBB53_11
.Ltmp248:
.LBB53_10:
	.loc	7 0 0
	add	r4, sp, #4
.Ltmp249:
	.loc	7 4 0
	ldr	r2, .LCPI53_4
.Ltmp250:
.LBB53_11:
	.loc	7 0 0
	movs	r3, #6
	b	.LBB53_16
.Ltmp251:
.LBB53_12:
	add	r4, sp, #4
.Ltmp252:
	.loc	7 4 0
	ldr	r2, .LCPI53_3
	movs	r3, #7
	b	.LBB53_16
.Ltmp253:
.LBB53_13:
	.loc	7 0 0
	add	r5, sp, #4
.Ltmp254:
	.loc	7 4 0
	ldr	r2, .LCPI53_1
	movs	r3, #9
	mov	r0, r5
	bl	_ZN4core3fmt9Formatter11debug_tuple17h6d327c873b02fd83E
.Ltmp255:
	.loc	7 23 0 is_stmt 1
	adds	r0, r4, #1
.Ltmp256:
	.loc	7 23 0 is_stmt 0
	str	r0, [sp]
	mov	r1, sp
	.loc	7 4 0 is_stmt 1
	ldr	r2, .LCPI53_2
	mov	r0, r5
.Ltmp257:
	bl	_ZN4core3fmt8builders10DebugTuple5field17h6c12fa0a5cf7acb8E
	mov	r0, r5
	b	.LBB53_17
.Ltmp258:
.LBB53_14:
	.loc	7 0 0 is_stmt 0
	add	r4, sp, #4
.Ltmp259:
	.loc	7 4 0
	ldr	r2, .LCPI53_0
.Ltmp260:
.LBB53_15:
	.loc	7 0 0
	movs	r3, #8
.Ltmp261:
.LBB53_16:
	mov	r0, r4
	bl	_ZN4core3fmt9Formatter11debug_tuple17h6d327c873b02fd83E
.Ltmp262:
	mov	r0, r4
.LBB53_17:
	bl	_ZN4core3fmt8builders10DebugTuple6finish17h9b115cf98ec0068aE
	.loc	7 4 0
	add	sp, #16
	pop	{r4, r5, r7, pc}
.Ltmp263:
	.p2align	2
	.loc	7 0 0
.LCPI53_0:
	.long	str.d
.LCPI53_1:
	.long	str.e
.LCPI53_2:
	.long	vtable.f
.LCPI53_3:
	.long	str.g
.LCPI53_4:
	.long	str.h
.LCPI53_5:
	.long	str.i
.LCPI53_6:
	.long	str.j
.LCPI53_7:
	.long	str.k
.LCPI53_8:
	.long	str.l
.LCPI53_9:
	.long	str.m
.LCPI53_10:
	.long	str.n
.Lfunc_end53:
	.size	_ZN67_$LT$cortex_m..exception..Exception$u20$as$u20$core..fmt..Debug$GT$3fmt17hdeb9912b605cdb9cE, .Lfunc_end53-_ZN67_$LT$cortex_m..exception..Exception$u20$as$u20$core..fmt..Debug$GT$3fmt17hdeb9912b605cdb9cE
	.cfi_endproc
	.cantunwind
	.fnend

	.section	".text._ZN72_$LT$cortex_m..exception..ExceptionFrame$u20$as$u20$core..fmt..Debug$GT$3fmt17h8a0a6bec70e4d00dE","ax",%progbits
	.globl	_ZN72_$LT$cortex_m..exception..ExceptionFrame$u20$as$u20$core..fmt..Debug$GT$3fmt17h8a0a6bec70e4d00dE
	.p2align	2
	.type	_ZN72_$LT$cortex_m..exception..ExceptionFrame$u20$as$u20$core..fmt..Debug$GT$3fmt17h8a0a6bec70e4d00dE,%function
	.code	16
	.thumb_func
_ZN72_$LT$cortex_m..exception..ExceptionFrame$u20$as$u20$core..fmt..Debug$GT$3fmt17h8a0a6bec70e4d00dE:
.Lfunc_begin54:
	.loc	7 54 0 is_stmt 1
	.fnstart
	.cfi_startproc
	.save	{r4, r5, r6, r7, lr}
	push	{r4, r5, r6, r7, lr}
.Lcfi68:
	.cfi_def_cfa_offset 20
.Lcfi69:
	.cfi_offset lr, -4
.Lcfi70:
	.cfi_offset r7, -8
.Lcfi71:
	.cfi_offset r6, -12
.Lcfi72:
	.cfi_offset r5, -16
.Lcfi73:
	.cfi_offset r4, -20
	.setfp	r7, sp, #12
	add	r7, sp, #12
.Lcfi74:
	.cfi_def_cfa r7, 8
	.pad	#20
	sub	sp, #20
	mov	r5, r0
.Ltmp264:
	add	r4, sp, #8
.Ltmp265:
	.loc	7 54 0 prologue_end
	ldr	r2, .LCPI54_0
	movs	r3, #14
	mov	r0, r4
	bl	_ZN4core3fmt9Formatter12debug_struct17hba1fba7bc3830e6dE
.Ltmp266:
	.loc	7 58 0
	str	r5, [sp, #16]
	.loc	7 54 0
	ldr	r1, .LCPI54_1
	mov	r0, sp
	str	r1, [r0]
	ldr	r1, .LCPI54_2
	movs	r6, #2
	add	r3, sp, #16
	mov	r0, r4
	mov	r2, r6
	bl	_ZN4core3fmt8builders11DebugStruct5field17h3cf877db2a56f39bE
.Ltmp267:
	.loc	7 60 0
	adds	r0, r5, #4
.Ltmp268:
	.loc	7 60 0 is_stmt 0
	str	r0, [sp, #16]
	.loc	7 54 0 is_stmt 1
	mov	r0, sp
.Ltmp269:
	.loc	7 0 0 is_stmt 0
	ldr	r1, .LCPI54_1
	.loc	7 54 0
	str	r1, [r0]
	ldr	r1, .LCPI54_3
	add	r3, sp, #16
	mov	r0, r4
	mov	r2, r6
	bl	_ZN4core3fmt8builders11DebugStruct5field17h3cf877db2a56f39bE
.Ltmp270:
	.loc	7 62 0 is_stmt 1
	mov	r0, r5
	adds	r0, #8
.Ltmp271:
	.loc	7 62 0 is_stmt 0
	str	r0, [sp, #16]
	.loc	7 54 0 is_stmt 1
	mov	r0, sp
.Ltmp272:
	ldr	r1, .LCPI54_1
	str	r1, [r0]
	ldr	r1, .LCPI54_4
	add	r3, sp, #16
	mov	r0, r4
	mov	r2, r6
	bl	_ZN4core3fmt8builders11DebugStruct5field17h3cf877db2a56f39bE
.Ltmp273:
	.loc	7 64 0
	mov	r0, r5
	adds	r0, #12
.Ltmp274:
	.loc	7 64 0 is_stmt 0
	str	r0, [sp, #16]
	.loc	7 54 0 is_stmt 1
	mov	r0, sp
.Ltmp275:
	.loc	7 0 0 is_stmt 0
	ldr	r1, .LCPI54_1
	.loc	7 54 0
	str	r1, [r0]
	ldr	r1, .LCPI54_5
	add	r3, sp, #16
	mov	r0, r4
	mov	r2, r6
	bl	_ZN4core3fmt8builders11DebugStruct5field17h3cf877db2a56f39bE
.Ltmp276:
	.loc	7 66 0 is_stmt 1
	mov	r0, r5
	adds	r0, #16
.Ltmp277:
	.loc	7 66 0 is_stmt 0
	str	r0, [sp, #16]
	.loc	7 54 0 is_stmt 1
	mov	r0, sp
.Ltmp278:
	ldr	r1, .LCPI54_1
	str	r1, [r0]
	ldr	r1, .LCPI54_6
	movs	r2, #3
	add	r3, sp, #16
	mov	r0, r4
	bl	_ZN4core3fmt8builders11DebugStruct5field17h3cf877db2a56f39bE
.Ltmp279:
	.loc	7 68 0
	mov	r0, r5
	adds	r0, #20
.Ltmp280:
	.loc	7 68 0 is_stmt 0
	str	r0, [sp, #16]
	.loc	7 54 0 is_stmt 1
	mov	r0, sp
.Ltmp281:
	.loc	7 0 0 is_stmt 0
	ldr	r1, .LCPI54_1
	.loc	7 54 0
	str	r1, [r0]
	ldr	r1, .LCPI54_7
	add	r3, sp, #16
	mov	r0, r4
	mov	r2, r6
	bl	_ZN4core3fmt8builders11DebugStruct5field17h3cf877db2a56f39bE
.Ltmp282:
	.loc	7 70 0 is_stmt 1
	mov	r0, r5
	adds	r0, #24
.Ltmp283:
	.loc	7 70 0 is_stmt 0
	str	r0, [sp, #16]
	.loc	7 54 0 is_stmt 1
	mov	r0, sp
.Ltmp284:
	ldr	r1, .LCPI54_1
	str	r1, [r0]
	ldr	r1, .LCPI54_8
	add	r3, sp, #16
	mov	r0, r4
	mov	r2, r6
	bl	_ZN4core3fmt8builders11DebugStruct5field17h3cf877db2a56f39bE
.Ltmp285:
	.loc	7 72 0
	adds	r5, #28
.Ltmp286:
	.loc	7 72 0 is_stmt 0
	str	r5, [sp, #16]
	.loc	7 54 0 is_stmt 1
	mov	r0, sp
	ldr	r1, .LCPI54_1
	str	r1, [r0]
	ldr	r1, .LCPI54_9
	movs	r2, #4
	add	r3, sp, #16
	mov	r0, r4
	bl	_ZN4core3fmt8builders11DebugStruct5field17h3cf877db2a56f39bE
	mov	r0, r4
	bl	_ZN4core3fmt8builders11DebugStruct6finish17h932a54ddb8d08549E
.Ltmp287:
	.loc	7 54 0 is_stmt 0
	add	sp, #20
	pop	{r4, r5, r6, r7, pc}
.Ltmp288:
	.p2align	2
	.loc	7 0 0
.LCPI54_0:
	.long	str.o
.LCPI54_1:
	.long	vtable.q
.LCPI54_2:
	.long	str.p
.LCPI54_3:
	.long	str.r
.LCPI54_4:
	.long	str.s
.LCPI54_5:
	.long	str.t
.LCPI54_6:
	.long	str.u
.LCPI54_7:
	.long	str.v
.LCPI54_8:
	.long	str.w
.LCPI54_9:
	.long	str.x
.Lfunc_end54:
	.size	_ZN72_$LT$cortex_m..exception..ExceptionFrame$u20$as$u20$core..fmt..Debug$GT$3fmt17h8a0a6bec70e4d00dE, .Lfunc_end54-_ZN72_$LT$cortex_m..exception..ExceptionFrame$u20$as$u20$core..fmt..Debug$GT$3fmt17h8a0a6bec70e4d00dE
	.cfi_endproc
	.cantunwind
	.fnend

	.section	".text._ZN72_$LT$cortex_m..peripheral..SystClkSource$u20$as$u20$core..fmt..Debug$GT$3fmt17he6e862a964351210E","ax",%progbits
	.globl	_ZN72_$LT$cortex_m..peripheral..SystClkSource$u20$as$u20$core..fmt..Debug$GT$3fmt17he6e862a964351210E
	.p2align	2
	.type	_ZN72_$LT$cortex_m..peripheral..SystClkSource$u20$as$u20$core..fmt..Debug$GT$3fmt17he6e862a964351210E,%function
	.code	16
	.thumb_func
_ZN72_$LT$cortex_m..peripheral..SystClkSource$u20$as$u20$core..fmt..Debug$GT$3fmt17he6e862a964351210E:
.Lfunc_begin55:
	.loc	10 816 0 is_stmt 1
	.fnstart
	.cfi_startproc
	.save	{r4, r6, r7, lr}
	push	{r4, r6, r7, lr}
.Lcfi75:
	.cfi_def_cfa_offset 16
.Lcfi76:
	.cfi_offset lr, -4
.Lcfi77:
	.cfi_offset r7, -8
.Lcfi78:
	.cfi_offset r6, -12
.Lcfi79:
	.cfi_offset r4, -16
	.setfp	r7, sp, #8
	add	r7, sp, #8
.Lcfi80:
	.cfi_def_cfa r7, 8
	.pad	#16
	sub	sp, #16
.Ltmp289:
	.loc	10 816 0 prologue_end
	ldrb	r0, [r0]
.Ltmp290:
	cmp	r0, #1
	bne	.LBB55_2
.Ltmp291:
	.loc	10 0 0 is_stmt 0
	add	r4, sp, #4
.Ltmp292:
	.loc	10 816 0
	ldr	r2, .LCPI55_1
	movs	r3, #8
	b	.LBB55_3
.Ltmp293:
.LBB55_2:
	.loc	10 0 0
	add	r4, sp, #4
.Ltmp294:
	.loc	10 816 0
	ldr	r2, .LCPI55_0
	movs	r3, #4
.Ltmp295:
.LBB55_3:
	.loc	10 0 0
	mov	r0, r4
	bl	_ZN4core3fmt9Formatter11debug_tuple17h6d327c873b02fd83E
.Ltmp296:
	mov	r0, r4
	bl	_ZN4core3fmt8builders10DebugTuple6finish17h9b115cf98ec0068aE
	.loc	10 816 0
	add	sp, #16
	pop	{r4, r6, r7, pc}
.Ltmp297:
	.p2align	2
	.loc	10 0 0
.LCPI55_0:
	.long	str.z
.LCPI55_1:
	.long	str.y
.Lfunc_end55:
	.size	_ZN72_$LT$cortex_m..peripheral..SystClkSource$u20$as$u20$core..fmt..Debug$GT$3fmt17he6e862a964351210E, .Lfunc_end55-_ZN72_$LT$cortex_m..peripheral..SystClkSource$u20$as$u20$core..fmt..Debug$GT$3fmt17he6e862a964351210E
	.cfi_endproc
	.cantunwind
	.fnend

	.section	".text._ZN67_$LT$cortex_m..register..apsr..Apsr$u20$as$u20$core..fmt..Debug$GT$3fmt17h482734d6d63d9d0aE","ax",%progbits
	.globl	_ZN67_$LT$cortex_m..register..apsr..Apsr$u20$as$u20$core..fmt..Debug$GT$3fmt17h482734d6d63d9d0aE
	.p2align	2
	.type	_ZN67_$LT$cortex_m..register..apsr..Apsr$u20$as$u20$core..fmt..Debug$GT$3fmt17h482734d6d63d9d0aE,%function
	.code	16
	.thumb_func
_ZN67_$LT$cortex_m..register..apsr..Apsr$u20$as$u20$core..fmt..Debug$GT$3fmt17h482734d6d63d9d0aE:
.Lfunc_begin56:
	.loc	12 4 0 is_stmt 1
	.fnstart
	.cfi_startproc
	.save	{r4, r5, r6, r7, lr}
	push	{r4, r5, r6, r7, lr}
.Lcfi81:
	.cfi_def_cfa_offset 20
.Lcfi82:
	.cfi_offset lr, -4
.Lcfi83:
	.cfi_offset r7, -8
.Lcfi84:
	.cfi_offset r6, -12
.Lcfi85:
	.cfi_offset r5, -16
.Lcfi86:
	.cfi_offset r4, -20
	.setfp	r7, sp, #12
	add	r7, sp, #12
.Lcfi87:
	.cfi_def_cfa r7, 8
	.pad	#20
	sub	sp, #20
.Ltmp298:
	mov	r5, r0
.Ltmp299:
	add	r4, sp, #8
.Ltmp300:
	.loc	12 4 0 prologue_end
	ldr	r2, .LCPI56_0
	movs	r6, #4
	mov	r0, r4
	mov	r3, r6
	bl	_ZN4core3fmt9Formatter12debug_struct17hba1fba7bc3830e6dE
.Ltmp301:
	.loc	12 6 0
	str	r5, [sp, #16]
	.loc	12 4 0
	ldr	r0, .LCPI56_1
	mov	r1, sp
	str	r0, [r1]
	ldr	r1, .LCPI56_2
	add	r3, sp, #16
	mov	r0, r4
	mov	r2, r6
	bl	_ZN4core3fmt8builders11DebugStruct5field17h3cf877db2a56f39bE
	mov	r0, r4
	bl	_ZN4core3fmt8builders11DebugStruct6finish17h932a54ddb8d08549E
.Ltmp302:
	.loc	12 4 0 is_stmt 0
	add	sp, #20
	pop	{r4, r5, r6, r7, pc}
.Ltmp303:
	.p2align	2
	.loc	12 0 0
.LCPI56_0:
	.long	str.A
.LCPI56_1:
	.long	vtable.q
.LCPI56_2:
	.long	str.B
.Lfunc_end56:
	.size	_ZN67_$LT$cortex_m..register..apsr..Apsr$u20$as$u20$core..fmt..Debug$GT$3fmt17h482734d6d63d9d0aE, .Lfunc_end56-_ZN67_$LT$cortex_m..register..apsr..Apsr$u20$as$u20$core..fmt..Debug$GT$3fmt17h482734d6d63d9d0aE
	.cfi_endproc
	.cantunwind
	.fnend

	.section	".text._ZN73_$LT$cortex_m..register..control..Control$u20$as$u20$core..fmt..Debug$GT$3fmt17h23fe096b33006202E","ax",%progbits
	.globl	_ZN73_$LT$cortex_m..register..control..Control$u20$as$u20$core..fmt..Debug$GT$3fmt17h23fe096b33006202E
	.p2align	2
	.type	_ZN73_$LT$cortex_m..register..control..Control$u20$as$u20$core..fmt..Debug$GT$3fmt17h23fe096b33006202E,%function
	.code	16
	.thumb_func
_ZN73_$LT$cortex_m..register..control..Control$u20$as$u20$core..fmt..Debug$GT$3fmt17h23fe096b33006202E:
.Lfunc_begin57:
	.loc	13 4 0 is_stmt 1
	.fnstart
	.cfi_startproc
	.save	{r4, r5, r7, lr}
	push	{r4, r5, r7, lr}
.Lcfi88:
	.cfi_def_cfa_offset 16
.Lcfi89:
	.cfi_offset lr, -4
.Lcfi90:
	.cfi_offset r7, -8
.Lcfi91:
	.cfi_offset r5, -12
.Lcfi92:
	.cfi_offset r4, -16
	.setfp	r7, sp, #8
	add	r7, sp, #8
.Lcfi93:
	.cfi_def_cfa r7, 8
	.pad	#16
	sub	sp, #16
.Ltmp304:
	mov	r5, r0
.Ltmp305:
	add	r4, sp, #4
.Ltmp306:
	.loc	13 4 0 prologue_end
	ldr	r2, .LCPI57_0
	movs	r3, #7
	mov	r0, r4
	bl	_ZN4core3fmt9Formatter12debug_struct17hba1fba7bc3830e6dE
.Ltmp307:
	.loc	13 6 0
	str	r5, [sp, #12]
	.loc	13 4 0
	ldr	r0, .LCPI57_1
	mov	r1, sp
	str	r0, [r1]
	ldr	r1, .LCPI57_2
	movs	r2, #4
	add	r3, sp, #12
	mov	r0, r4
	bl	_ZN4core3fmt8builders11DebugStruct5field17h3cf877db2a56f39bE
	mov	r0, r4
	bl	_ZN4core3fmt8builders11DebugStruct6finish17h932a54ddb8d08549E
.Ltmp308:
	.loc	13 4 0 is_stmt 0
	add	sp, #16
	pop	{r4, r5, r7, pc}
.Ltmp309:
	.p2align	2
	.loc	13 0 0
.LCPI57_0:
	.long	str.C
.LCPI57_1:
	.long	vtable.q
.LCPI57_2:
	.long	str.B
.Lfunc_end57:
	.size	_ZN73_$LT$cortex_m..register..control..Control$u20$as$u20$core..fmt..Debug$GT$3fmt17h23fe096b33006202E, .Lfunc_end57-_ZN73_$LT$cortex_m..register..control..Control$u20$as$u20$core..fmt..Debug$GT$3fmt17h23fe096b33006202E
	.cfi_endproc
	.cantunwind
	.fnend

	.section	".text._ZN71_$LT$cortex_m..register..control..Npriv$u20$as$u20$core..fmt..Debug$GT$3fmt17hd92d7ca1eefdfbfdE","ax",%progbits
	.globl	_ZN71_$LT$cortex_m..register..control..Npriv$u20$as$u20$core..fmt..Debug$GT$3fmt17hd92d7ca1eefdfbfdE
	.p2align	2
	.type	_ZN71_$LT$cortex_m..register..control..Npriv$u20$as$u20$core..fmt..Debug$GT$3fmt17hd92d7ca1eefdfbfdE,%function
	.code	16
	.thumb_func
_ZN71_$LT$cortex_m..register..control..Npriv$u20$as$u20$core..fmt..Debug$GT$3fmt17hd92d7ca1eefdfbfdE:
.Lfunc_begin58:
	.loc	13 44 0 is_stmt 1
	.fnstart
	.cfi_startproc
	.save	{r4, r6, r7, lr}
	push	{r4, r6, r7, lr}
.Lcfi94:
	.cfi_def_cfa_offset 16
.Lcfi95:
	.cfi_offset lr, -4
.Lcfi96:
	.cfi_offset r7, -8
.Lcfi97:
	.cfi_offset r6, -12
.Lcfi98:
	.cfi_offset r4, -16
	.setfp	r7, sp, #8
	add	r7, sp, #8
.Lcfi99:
	.cfi_def_cfa r7, 8
	.pad	#16
	sub	sp, #16
.Ltmp310:
	.loc	13 44 0 prologue_end
	ldrb	r0, [r0]
.Ltmp311:
	cmp	r0, #1
	bne	.LBB58_2
.Ltmp312:
	.loc	13 0 0 is_stmt 0
	add	r4, sp, #4
.Ltmp313:
	.loc	13 44 0
	ldr	r2, .LCPI58_1
	movs	r3, #12
	b	.LBB58_3
.Ltmp314:
.LBB58_2:
	.loc	13 0 0
	add	r4, sp, #4
.Ltmp315:
	.loc	13 44 0
	ldr	r2, .LCPI58_0
	movs	r3, #10
.Ltmp316:
.LBB58_3:
	.loc	13 0 0
	mov	r0, r4
	bl	_ZN4core3fmt9Formatter11debug_tuple17h6d327c873b02fd83E
.Ltmp317:
	mov	r0, r4
	bl	_ZN4core3fmt8builders10DebugTuple6finish17h9b115cf98ec0068aE
	.loc	13 44 0
	add	sp, #16
	pop	{r4, r6, r7, pc}
.Ltmp318:
	.p2align	2
	.loc	13 0 0
.LCPI58_0:
	.long	str.E
.LCPI58_1:
	.long	str.D
.Lfunc_end58:
	.size	_ZN71_$LT$cortex_m..register..control..Npriv$u20$as$u20$core..fmt..Debug$GT$3fmt17hd92d7ca1eefdfbfdE, .Lfunc_end58-_ZN71_$LT$cortex_m..register..control..Npriv$u20$as$u20$core..fmt..Debug$GT$3fmt17hd92d7ca1eefdfbfdE
	.cfi_endproc
	.cantunwind
	.fnend

	.section	".text._ZN71_$LT$cortex_m..register..control..Spsel$u20$as$u20$core..fmt..Debug$GT$3fmt17h6e7050ad878dc5f6E","ax",%progbits
	.globl	_ZN71_$LT$cortex_m..register..control..Spsel$u20$as$u20$core..fmt..Debug$GT$3fmt17h6e7050ad878dc5f6E
	.p2align	2
	.type	_ZN71_$LT$cortex_m..register..control..Spsel$u20$as$u20$core..fmt..Debug$GT$3fmt17h6e7050ad878dc5f6E,%function
	.code	16
	.thumb_func
_ZN71_$LT$cortex_m..register..control..Spsel$u20$as$u20$core..fmt..Debug$GT$3fmt17h6e7050ad878dc5f6E:
.Lfunc_begin59:
	.loc	13 65 0 is_stmt 1
	.fnstart
	.cfi_startproc
	.save	{r4, r6, r7, lr}
	push	{r4, r6, r7, lr}
.Lcfi100:
	.cfi_def_cfa_offset 16
.Lcfi101:
	.cfi_offset lr, -4
.Lcfi102:
	.cfi_offset r7, -8
.Lcfi103:
	.cfi_offset r6, -12
.Lcfi104:
	.cfi_offset r4, -16
	.setfp	r7, sp, #8
	add	r7, sp, #8
.Lcfi105:
	.cfi_def_cfa r7, 8
	.pad	#16
	sub	sp, #16
.Ltmp319:
	.loc	13 65 0 prologue_end
	ldrb	r0, [r0]
.Ltmp320:
	cmp	r0, #1
	bne	.LBB59_2
.Ltmp321:
	.loc	13 0 0 is_stmt 0
	add	r4, sp, #4
.Ltmp322:
	.loc	13 65 0
	ldr	r2, .LCPI59_1
	b	.LBB59_3
.Ltmp323:
.LBB59_2:
	.loc	13 0 0
	add	r4, sp, #4
.Ltmp324:
	.loc	13 65 0
	ldr	r2, .LCPI59_0
.Ltmp325:
.LBB59_3:
	.loc	13 0 0
	movs	r3, #3
	mov	r0, r4
	bl	_ZN4core3fmt9Formatter11debug_tuple17h6d327c873b02fd83E
.Ltmp326:
	mov	r0, r4
	bl	_ZN4core3fmt8builders10DebugTuple6finish17h9b115cf98ec0068aE
	.loc	13 65 0
	add	sp, #16
	pop	{r4, r6, r7, pc}
.Ltmp327:
	.p2align	2
	.loc	13 0 0
.LCPI59_0:
	.long	str.G
.LCPI59_1:
	.long	str.F
.Lfunc_end59:
	.size	_ZN71_$LT$cortex_m..register..control..Spsel$u20$as$u20$core..fmt..Debug$GT$3fmt17h6e7050ad878dc5f6E, .Lfunc_end59-_ZN71_$LT$cortex_m..register..control..Spsel$u20$as$u20$core..fmt..Debug$GT$3fmt17h6e7050ad878dc5f6E
	.cfi_endproc
	.cantunwind
	.fnend

	.section	".text._ZN70_$LT$cortex_m..register..control..Fpca$u20$as$u20$core..fmt..Debug$GT$3fmt17h80e3e161d9109938E","ax",%progbits
	.globl	_ZN70_$LT$cortex_m..register..control..Fpca$u20$as$u20$core..fmt..Debug$GT$3fmt17h80e3e161d9109938E
	.p2align	2
	.type	_ZN70_$LT$cortex_m..register..control..Fpca$u20$as$u20$core..fmt..Debug$GT$3fmt17h80e3e161d9109938E,%function
	.code	16
	.thumb_func
_ZN70_$LT$cortex_m..register..control..Fpca$u20$as$u20$core..fmt..Debug$GT$3fmt17h80e3e161d9109938E:
.Lfunc_begin60:
	.loc	13 86 0 is_stmt 1
	.fnstart
	.cfi_startproc
	.save	{r4, r6, r7, lr}
	push	{r4, r6, r7, lr}
.Lcfi106:
	.cfi_def_cfa_offset 16
.Lcfi107:
	.cfi_offset lr, -4
.Lcfi108:
	.cfi_offset r7, -8
.Lcfi109:
	.cfi_offset r6, -12
.Lcfi110:
	.cfi_offset r4, -16
	.setfp	r7, sp, #8
	add	r7, sp, #8
.Lcfi111:
	.cfi_def_cfa r7, 8
	.pad	#16
	sub	sp, #16
.Ltmp328:
	.loc	13 86 0 prologue_end
	ldrb	r0, [r0]
.Ltmp329:
	cmp	r0, #1
	bne	.LBB60_2
.Ltmp330:
	.loc	13 0 0 is_stmt 0
	add	r4, sp, #4
.Ltmp331:
	.loc	13 86 0
	ldr	r2, .LCPI60_1
	movs	r3, #9
	b	.LBB60_3
.Ltmp332:
.LBB60_2:
	.loc	13 0 0
	add	r4, sp, #4
.Ltmp333:
	.loc	13 86 0
	ldr	r2, .LCPI60_0
	movs	r3, #6
.Ltmp334:
.LBB60_3:
	.loc	13 0 0
	mov	r0, r4
	bl	_ZN4core3fmt9Formatter11debug_tuple17h6d327c873b02fd83E
.Ltmp335:
	mov	r0, r4
	bl	_ZN4core3fmt8builders10DebugTuple6finish17h9b115cf98ec0068aE
	.loc	13 86 0
	add	sp, #16
	pop	{r4, r6, r7, pc}
.Ltmp336:
	.p2align	2
	.loc	13 0 0
.LCPI60_0:
	.long	str.I
.LCPI60_1:
	.long	str.H
.Lfunc_end60:
	.size	_ZN70_$LT$cortex_m..register..control..Fpca$u20$as$u20$core..fmt..Debug$GT$3fmt17h80e3e161d9109938E, .Lfunc_end60-_ZN70_$LT$cortex_m..register..control..Fpca$u20$as$u20$core..fmt..Debug$GT$3fmt17h80e3e161d9109938E
	.cfi_endproc
	.cantunwind
	.fnend

	.section	".text._ZN73_$LT$cortex_m..register..primask..Primask$u20$as$u20$core..fmt..Debug$GT$3fmt17hde4b9822f78712a8E","ax",%progbits
	.globl	_ZN73_$LT$cortex_m..register..primask..Primask$u20$as$u20$core..fmt..Debug$GT$3fmt17hde4b9822f78712a8E
	.p2align	2
	.type	_ZN73_$LT$cortex_m..register..primask..Primask$u20$as$u20$core..fmt..Debug$GT$3fmt17hde4b9822f78712a8E,%function
	.code	16
	.thumb_func
_ZN73_$LT$cortex_m..register..primask..Primask$u20$as$u20$core..fmt..Debug$GT$3fmt17hde4b9822f78712a8E:
.Lfunc_begin61:
	.loc	14 4 0 is_stmt 1
	.fnstart
	.cfi_startproc
	.save	{r4, r6, r7, lr}
	push	{r4, r6, r7, lr}
.Lcfi112:
	.cfi_def_cfa_offset 16
.Lcfi113:
	.cfi_offset lr, -4
.Lcfi114:
	.cfi_offset r7, -8
.Lcfi115:
	.cfi_offset r6, -12
.Lcfi116:
	.cfi_offset r4, -16
	.setfp	r7, sp, #8
	add	r7, sp, #8
.Lcfi117:
	.cfi_def_cfa r7, 8
	.pad	#16
	sub	sp, #16
.Ltmp337:
	.loc	14 4 0 prologue_end
	ldrb	r0, [r0]
.Ltmp338:
	cmp	r0, #1
	bne	.LBB61_2
.Ltmp339:
	.loc	14 0 0 is_stmt 0
	add	r4, sp, #4
.Ltmp340:
	.loc	14 4 0
	ldr	r2, .LCPI61_1
	movs	r3, #8
	b	.LBB61_3
.Ltmp341:
.LBB61_2:
	.loc	14 0 0
	add	r4, sp, #4
.Ltmp342:
	.loc	14 4 0
	ldr	r2, .LCPI61_0
	movs	r3, #6
.Ltmp343:
.LBB61_3:
	.loc	14 0 0
	mov	r0, r4
	bl	_ZN4core3fmt9Formatter11debug_tuple17h6d327c873b02fd83E
.Ltmp344:
	mov	r0, r4
	bl	_ZN4core3fmt8builders10DebugTuple6finish17h9b115cf98ec0068aE
	.loc	14 4 0
	add	sp, #16
	pop	{r4, r6, r7, pc}
.Ltmp345:
	.p2align	2
	.loc	14 0 0
.LCPI61_0:
	.long	str.I
.LCPI61_1:
	.long	str.J
.Lfunc_end61:
	.size	_ZN73_$LT$cortex_m..register..primask..Primask$u20$as$u20$core..fmt..Debug$GT$3fmt17hde4b9822f78712a8E, .Lfunc_end61-_ZN73_$LT$cortex_m..register..primask..Primask$u20$as$u20$core..fmt..Debug$GT$3fmt17hde4b9822f78712a8E
	.cfi_endproc
	.cantunwind
	.fnend

	.type	vtable.8,%object
	.section	.rodata.vtable.8,"a",%progbits
	.p2align	2
vtable.8:
	.long	_ZN4core3ptr13drop_in_place17h64fe07f823668602E
	.long	4
	.long	4
	.long	_ZN96_$LT$core..fmt..Write..write_fmt..Adapter$LT$$u27$a$C$$u20$T$GT$$u20$as$u20$core..fmt..Write$GT$9write_str17hff0599eeadf3eec7E
	.long	_ZN96_$LT$core..fmt..Write..write_fmt..Adapter$LT$$u27$a$C$$u20$T$GT$$u20$as$u20$core..fmt..Write$GT$10write_char17h57e8a8d65c9d2c94E
	.long	_ZN96_$LT$core..fmt..Write..write_fmt..Adapter$LT$$u27$a$C$$u20$T$GT$$u20$as$u20$core..fmt..Write$GT$9write_fmt17h7417d47dfc817613E
	.size	vtable.8, 24

	.type	str.d,%object
	.section	.rodata.str.d,"a",%progbits
str.d:
	.ascii	"Reserved"
	.size	str.d, 8

	.type	str.e,%object
	.section	.rodata.str.e,"a",%progbits
str.e:
	.ascii	"Interrupt"
	.size	str.e, 9

	.type	vtable.f,%object
	.section	.rodata.vtable.f,"a",%progbits
	.p2align	2
vtable.f:
	.long	_ZN4core3ptr13drop_in_place17he04fbfc5487f91aeE
	.long	4
	.long	4
	.long	_ZN53_$LT$$RF$$u27$a$u20$T$u20$as$u20$core..fmt..Debug$GT$3fmt17h22d597e08f8c8545E
	.size	vtable.f, 16

	.type	str.g,%object
	.section	.rodata.str.g,"a",%progbits
str.g:
	.ascii	"SysTick"
	.size	str.g, 7

	.type	str.h,%object
	.section	.rodata.str.h,"a",%progbits
str.h:
	.ascii	"PendSV"
	.size	str.h, 6

	.type	str.i,%object
	.section	.rodata.str.i,"a",%progbits
str.i:
	.ascii	"SVCall"
	.size	str.i, 6

	.type	str.j,%object
	.section	.rodata.str.j,"a",%progbits
str.j:
	.ascii	"UsageFault"
	.size	str.j, 10

	.type	str.k,%object
	.section	.rodata.str.k,"a",%progbits
str.k:
	.ascii	"BusFault"
	.size	str.k, 8

	.type	str.l,%object
	.section	.rodata.str.l,"a",%progbits
str.l:
	.ascii	"MenManage"
	.size	str.l, 9

	.type	str.m,%object
	.section	.rodata.str.m,"a",%progbits
str.m:
	.ascii	"HardFault"
	.size	str.m, 9

	.type	str.n,%object
	.section	.rodata.str.n,"a",%progbits
str.n:
	.ascii	"NMI"
	.size	str.n, 3

	.type	str.o,%object
	.section	.rodata.str.o,"a",%progbits
str.o:
	.ascii	"ExceptionFrame"
	.size	str.o, 14

	.type	str.p,%object
	.section	.rodata.str.p,"a",%progbits
str.p:
	.ascii	"r0"
	.size	str.p, 2

	.type	vtable.q,%object
	.section	.rodata.vtable.q,"a",%progbits
	.p2align	2
vtable.q:
	.long	_ZN4core3ptr13drop_in_place17h7f1a87db3fd978cfE
	.long	4
	.long	4
	.long	_ZN53_$LT$$RF$$u27$a$u20$T$u20$as$u20$core..fmt..Debug$GT$3fmt17hf9002130619835b5E
	.size	vtable.q, 16

	.type	str.r,%object
	.section	.rodata.str.r,"a",%progbits
str.r:
	.ascii	"r1"
	.size	str.r, 2

	.type	str.s,%object
	.section	.rodata.str.s,"a",%progbits
str.s:
	.ascii	"r2"
	.size	str.s, 2

	.type	str.t,%object
	.section	.rodata.str.t,"a",%progbits
str.t:
	.ascii	"r3"
	.size	str.t, 2

	.type	str.u,%object
	.section	.rodata.str.u,"a",%progbits
str.u:
	.ascii	"r12"
	.size	str.u, 3

	.type	str.v,%object
	.section	.rodata.str.v,"a",%progbits
str.v:
	.ascii	"lr"
	.size	str.v, 2

	.type	str.w,%object
	.section	.rodata.str.w,"a",%progbits
str.w:
	.ascii	"pc"
	.size	str.w, 2

	.type	str.x,%object
	.section	.rodata.str.x,"a",%progbits
str.x:
	.ascii	"xpsr"
	.size	str.x, 4

	.type	str.y,%object
	.section	.rodata.str.y,"a",%progbits
str.y:
	.ascii	"External"
	.size	str.y, 8

	.type	str.z,%object
	.section	.rodata.str.z,"a",%progbits
str.z:
	.ascii	"Core"
	.size	str.z, 4

	.type	str.A,%object
	.section	.rodata.str.A,"a",%progbits
str.A:
	.ascii	"Apsr"
	.size	str.A, 4

	.type	str.B,%object
	.section	.rodata.str.B,"a",%progbits
str.B:
	.ascii	"bits"
	.size	str.B, 4

	.type	str.C,%object
	.section	.rodata.str.C,"a",%progbits
str.C:
	.ascii	"Control"
	.size	str.C, 7

	.type	str.D,%object
	.section	.rodata.str.D,"a",%progbits
str.D:
	.ascii	"Unprivileged"
	.size	str.D, 12

	.type	str.E,%object
	.section	.rodata.str.E,"a",%progbits
str.E:
	.ascii	"Privileged"
	.size	str.E, 10

	.type	str.F,%object
	.section	.rodata.str.F,"a",%progbits
str.F:
	.ascii	"Psp"
	.size	str.F, 3

	.type	str.G,%object
	.section	.rodata.str.G,"a",%progbits
str.G:
	.ascii	"Msp"
	.size	str.G, 3

	.type	str.H,%object
	.section	.rodata.str.H,"a",%progbits
str.H:
	.ascii	"NotActive"
	.size	str.H, 9

	.type	str.I,%object
	.section	.rodata.str.I,"a",%progbits
str.I:
	.ascii	"Active"
	.size	str.I, 6

	.type	str.J,%object
	.section	.rodata.str.J,"a",%progbits
str.J:
	.ascii	"Inactive"
	.size	str.J, 8

	.section	".note.GNU-stack","",%progbits
	.eabi_attribute	30, 3