	.text
	.syntax unified
	.eabi_attribute	67, "2.09"
	.eabi_attribute	6, 12
	.eabi_attribute	8, 0
	.eabi_attribute	9, 1
	.eabi_attribute	17, 1
	.eabi_attribute	20, 1
	.eabi_attribute	21, 1
	.eabi_attribute	23, 3
	.eabi_attribute	34, 0
	.eabi_attribute	24, 1
	.eabi_attribute	25, 1
	.eabi_attribute	38, 1
	.eabi_attribute	14, 0
	.file	"numtoa0-66633a619366821f79ec5b0242bf7e64.rs"
	.section	".text._ZN47_$LT$i8$u20$as$u20$numtoa..NumToA$LT$i8$GT$$GT$6numtoa17h4369f477e82c2dc7E","ax",%progbits
	.globl	_ZN47_$LT$i8$u20$as$u20$numtoa..NumToA$LT$i8$GT$$GT$6numtoa17h4369f477e82c2dc7E
	.p2align	2
	.type	_ZN47_$LT$i8$u20$as$u20$numtoa..NumToA$LT$i8$GT$$GT$6numtoa17h4369f477e82c2dc7E,%function
	.code	16
	.thumb_func
_ZN47_$LT$i8$u20$as$u20$numtoa..NumToA$LT$i8$GT$$GT$6numtoa17h4369f477e82c2dc7E:
.Lfunc_begin0:
	.file	1 "/Users/arko/.cargo/registry/src/github.com-1ecc6299db9ec823/numtoa-0.0.7/src/lib.rs"
	.loc	1 251 0
	.fnstart
	.cfi_sections .debug_frame
	.cfi_startproc
	.save	{r4, r5, r6, r7, lr}
	push	{r4, r5, r6, r7, lr}
.Lcfi0:
	.cfi_def_cfa_offset 20
.Lcfi1:
	.cfi_offset lr, -4
.Lcfi2:
	.cfi_offset r7, -8
.Lcfi3:
	.cfi_offset r6, -12
.Lcfi4:
	.cfi_offset r5, -16
.Lcfi5:
	.cfi_offset r4, -20
	.setfp	r7, sp, #12
	add	r7, sp, #12
.Lcfi6:
	.cfi_def_cfa r7, 8
	.pad	#28
	sub	sp, #28
	str	r2, [sp, #24]
.Ltmp0:
	mov	r2, r3
.Ltmp1:
	.loc	1 258 0 prologue_end
	subs	r4, r3, #1
.Ltmp2:
	.loc	1 0 0 is_stmt 0
	sxtb	r3, r0
	movs	r6, #128
.Ltmp3:
	.loc	1 261 0 is_stmt 1
	cmp	r3, #0
	blt	.LBB0_3
.Ltmp4:
	.loc	1 272 0
	lsls	r3, r0, #24
	movs	r5, #0
	str	r5, [sp, #4]
	cmp	r3, #0
	beq	.LBB0_6
.Ltmp5:
	.loc	1 0 0 is_stmt 0
	mov	r3, r6
	b	.LBB0_9
.Ltmp6:
.LBB0_3:
	.file	2 "/Users/arko/.rustup/toolchains/nightly-x86_64-apple-darwin/lib/rustlib/src/rust/src/libcore/num/mod.rs"
	.loc	2 495 0 is_stmt 1
	uxtb	r5, r0
	movs	r3, #1
.Ltmp7:
	.loc	1 264 0
	str	r3, [sp, #4]
	cmp	r5, r6
	mov	r3, r6
	bne	.LBB0_8
.Ltmp8:
	.loc	1 0 0 is_stmt 0
	mov	r5, r2
.Ltmp9:
	.loc	1 267 0 is_stmt 1
	cmp	r5, #0
	bne	.LBB0_5
	b	.LBB0_50
.Ltmp10:
.LBB0_5:
	movs	r0, #56
.Ltmp11:
	.loc	1 0 0 is_stmt 0
	ldr	r2, [sp, #24]
.Ltmp12:
	.loc	1 267 0
	strb	r0, [r2, r4]
	.loc	1 268 0 is_stmt 1
	subs	r4, r5, #2
.Ltmp13:
	.loc	1 0 0 is_stmt 0
	movs	r0, #12
	b	.LBB0_10
.Ltmp14:
.LBB0_6:
	.loc	1 273 0 is_stmt 1
	cmp	r2, #0
	bne	.LBB0_7
	b	.LBB0_46
.Ltmp15:
.LBB0_7:
	movs	r0, #48
.Ltmp16:
	ldr	r1, [sp, #24]
	strb	r0, [r1, r4]
	b	.LBB0_38
.Ltmp17:
.LBB0_8:
	.loc	2 1001 0
	rsbs	r0, r0, #0
.Ltmp18:
.LBB0_9:
	.loc	2 0 0 is_stmt 0
	mov	r5, r2
	ldr	r2, [sp, #24]
.Ltmp19:
.LBB0_10:
	.loc	1 277 0 is_stmt 1
	uxtb	r6, r1
	str	r6, [sp, #16]
	cmp	r6, #10
	str	r5, [sp, #20]
	bne	.LBB0_16
	.loc	1 278 0
	sxtb	r1, r0
	cmp	r1, #99
	ble	.LBB0_24
	.loc	1 0 0 is_stmt 0
	uxtb	r6, r0
	movs	r1, #10
	mov	r0, r6
	bl	__aeabi_uidiv
.Ltmp20:
	.loc	1 279 0 is_stmt 1
	lsls	r1, r0, #1
	.loc	1 280 0
	subs	r0, r4, #2
.Ltmp21:
	.file	3 "/Users/arko/.rustup/toolchains/nightly-x86_64-apple-darwin/lib/rustlib/src/rust/src/libcore/slice/mod.rs"
	.loc	3 885 0
	cmp	r4, #1
	bhi	.LBB0_13
	b	.LBB0_47
.Ltmp22:
.LBB0_13:
	.loc	3 0 0 is_stmt 0
	mov	r3, r6
	.loc	3 887 0 is_stmt 1
	cmp	r4, r5
.Ltmp23:
	.loc	3 0 0 is_stmt 0
	bls	.LBB0_14
	b	.LBB0_48
.Ltmp24:
.LBB0_14:
	.loc	1 280 0 is_stmt 1
	uxtb	r1, r1
.Ltmp25:
	.file	4 "/Users/arko/.rustup/toolchains/nightly-x86_64-apple-darwin/lib/rustlib/src/rust/src/libcore/ptr.rs"
	.loc	4 582 0
	ldr	r2, .LCPI0_8
.Ltmp26:
	.loc	3 672 0
	ldrh	r1, [r2, r1]
.Ltmp27:
	.loc	3 0 0 is_stmt 0
	ldr	r6, [sp, #24]
	.loc	3 672 0
	strb	r1, [r6, r0]
.Ltmp28:
	.loc	4 1215 0 is_stmt 1
	adds	r0, r6, r0
.Ltmp29:
	.loc	3 672 0
	lsrs	r1, r1, #8
	strb	r1, [r0, #1]
.Ltmp30:
	.loc	1 281 0
	cmp	r4, r5
.Ltmp31:
	.loc	1 0 0 is_stmt 0
	blo	.LBB0_15
	b	.LBB0_49
.LBB0_15:
	movs	r1, #10
	mov	r0, r3
	bl	__aeabi_uidivmod
	.loc	1 281 0
	ldr	r0, .LCPI0_3
	ldrb	r0, [r0, r1]
	strb	r0, [r6, r4]
	movs	r0, #3
	b	.LBB0_33
.Ltmp32:
.LBB0_16:
	.loc	1 0 0
	str	r3, [sp, #8]
	.loc	1 292 0 is_stmt 1
	lsls	r3, r0, #24
	beq	.LBB0_34
	.loc	1 0 0 is_stmt 0
	ldr	r2, [sp, #8]
	adds	r2, #127
	.loc	1 292 0
	lsls	r3, r1, #24
	beq	.LBB0_45
	.loc	1 0 0
	uxtb	r2, r2
	str	r2, [sp, #12]
	sxtb	r6, r1
.LBB0_19:
.Ltmp33:
	.loc	1 293 0 is_stmt 1
	ldr	r1, [sp, #16]
	ldr	r2, [sp, #12]
	cmp	r1, r2
	bne	.LBB0_21
	.loc	1 0 0 is_stmt 0
	uxtb	r1, r0
	ldr	r2, [sp, #8]
	cmp	r1, r2
	beq	.LBB0_39
.LBB0_21:
	.loc	1 293 0
	sxtb	r5, r0
	mov	r0, r5
	mov	r1, r6
	bl	__aeabi_idivmod
	mov	r0, r1
	.loc	1 294 0 is_stmt 1
	sxtb	r1, r0
	.loc	1 293 0
	uxtb	r0, r0
	.loc	1 294 0
	cmp	r0, #35
	bhi	.LBB0_40
.Ltmp34:
	ldr	r0, [sp, #20]
	cmp	r4, r0
	bhs	.LBB0_42
.Ltmp35:
	ldr	r0, .LCPI0_3
	ldrb	r0, [r0, r1]
	ldr	r1, [sp, #24]
	strb	r0, [r1, r4]
	.loc	1 296 0
	mov	r0, r5
	mov	r1, r6
	bl	__aeabi_idiv
.Ltmp36:
	.loc	2 1806 0
	subs	r4, r4, #1
.Ltmp37:
	.loc	2 0 0 is_stmt 0
	movs	r1, #255
.Ltmp38:
	.loc	1 292 0 is_stmt 1
	tst	r0, r1
	bne	.LBB0_19
	b	.LBB0_34
.Ltmp39:
.LBB0_24:
	.loc	1 283 0
	cmp	r1, #9
	ble	.LBB0_30
	.loc	1 0 0 is_stmt 0
	str	r3, [sp, #8]
	.loc	1 285 0 is_stmt 1
	adds	r1, r4, #1
.Ltmp40:
	subs	r6, r4, #1
.Ltmp41:
	.loc	1 284 0
	lsls	r3, r0, #1
.Ltmp42:
	.loc	3 885 0
	cmp	r1, r6
	blo	.LBB0_53
.Ltmp43:
	.loc	3 887 0
	cmp	r1, r5
.Ltmp44:
	bhi	.LBB0_55
.Ltmp45:
	.loc	4 1215 0
	adds	r6, r2, r6
.Ltmp46:
	.loc	1 285 0
	sxtb	r0, r3
.Ltmp47:
	adds	r1, r0, #2
	uxtb	r3, r3
	ldr	r5, [sp, #8]
.Ltmp48:
	.loc	3 873 0
	adds	r5, #126
	uxtb	r5, r5
	cmp	r3, r5
.Ltmp49:
	.loc	3 0 0 is_stmt 0
	beq	.LBB0_54
.Ltmp50:
	.loc	3 875 0 is_stmt 1
	cmp	r1, #201
	bhs	.LBB0_58
.Ltmp51:
	.loc	4 582 0
	ldr	r1, .LCPI0_8
.Ltmp52:
	.loc	3 672 0
	ldrh	r0, [r1, r0]
	strb	r0, [r6]
	lsrs	r0, r0, #8
	strb	r0, [r6, #1]
	movs	r0, #2
	b	.LBB0_33
.Ltmp53:
.LBB0_30:
	.loc	1 288 0
	uxtb	r0, r0
	cmp	r0, #35
	bhi	.LBB0_56
.Ltmp54:
	cmp	r4, r5
	bhs	.LBB0_57
.Ltmp55:
	ldr	r0, .LCPI0_3
	ldrb	r0, [r0, r1]
	strb	r0, [r2, r4]
	movs	r0, #1
.Ltmp56:
.LBB0_33:
	.loc	2 1806 0
	subs	r4, r4, r0
.Ltmp57:
.LBB0_34:
	.loc	1 300 0
	ldr	r0, [sp, #4]
	cmp	r0, #1
	bne	.LBB0_37
.Ltmp58:
	.loc	1 0 0 is_stmt 0
	ldr	r2, [sp, #20]
	.loc	1 301 0 is_stmt 1
	cmp	r4, r2
	bhs	.LBB0_44
.Ltmp59:
	movs	r0, #45
	ldr	r1, [sp, #24]
	strb	r0, [r1, r4]
	.loc	1 302 0
	subs	r4, r4, #1
.Ltmp60:
.LBB0_37:
	.loc	2 1787 0
	adds	r4, r4, #1
.Ltmp61:
.LBB0_38:
	.loc	1 306 0
	mov	r0, r4
	add	sp, #28
	pop	{r4, r5, r6, r7, pc}
.LBB0_39:
.Ltmp62:
	.loc	1 293 0
	ldr	r0, .LCPI0_4
	bl	_ZN4core9panicking5panic17hc432e1634db46879E
	.inst.n	0xdefe
.LBB0_40:
	.loc	1 294 0
	ldr	r0, .LCPI0_1
.LBB0_41:
	.loc	1 0 0 is_stmt 0
	movs	r2, #36
	bl	_ZN4core9panicking18panic_bounds_check17he1dc5c093ac62635E
	.inst.n	0xdefe
.LBB0_42:
	.loc	1 294 0
	ldr	r0, .LCPI0_2
.Ltmp63:
.LBB0_43:
	.loc	1 0 0
	mov	r1, r4
	ldr	r2, [sp, #20]
	bl	_ZN4core9panicking18panic_bounds_check17he1dc5c093ac62635E
	.inst.n	0xdefe
.LBB0_44:
.Ltmp64:
	.loc	1 301 0 is_stmt 1
	ldr	r0, .LCPI0_10
	b	.LBB0_52
.Ltmp65:
.LBB0_45:
	.loc	1 293 0
	ldr	r0, .LCPI0_5
	bl	_ZN4core9panicking5panic17hc432e1634db46879E
	.inst.n	0xdefe
.Ltmp66:
.LBB0_46:
	.loc	1 273 0
	ldr	r0, .LCPI0_0
.Ltmp67:
	.loc	1 0 0 is_stmt 0
	b	.LBB0_51
.Ltmp68:
.LBB0_47:
	.loc	3 886 0 is_stmt 1
	mov	r1, r4
	b	.LBB0_54
.Ltmp69:
.LBB0_48:
	.loc	3 888 0
	mov	r0, r4
.Ltmp70:
	mov	r1, r5
	bl	_ZN4core5slice20slice_index_len_fail17h3a657df3a06ab6caE
	.inst.n	0xdefe
.Ltmp71:
.LBB0_49:
	.loc	1 281 0
	ldr	r0, .LCPI0_9
	b	.LBB0_43
.Ltmp72:
.LBB0_50:
	.loc	1 267 0
	ldr	r0, .LCPI0_11
.Ltmp73:
.LBB0_51:
	.loc	1 0 0 is_stmt 0
	movs	r2, #0
.Ltmp74:
.LBB0_52:
	mov	r1, r4
	bl	_ZN4core9panicking18panic_bounds_check17he1dc5c093ac62635E
	.inst.n	0xdefe
.LBB0_53:
.Ltmp75:
	.loc	3 886 0 is_stmt 1
	mov	r0, r6
.Ltmp76:
.LBB0_54:
	.loc	3 0 0 is_stmt 0
	bl	_ZN4core5slice22slice_index_order_fail17h1ebe63c40336a21cE
	.inst.n	0xdefe
.LBB0_55:
.Ltmp77:
	.loc	3 888 0 is_stmt 1
	mov	r0, r1
	ldr	r1, [sp, #20]
	bl	_ZN4core5slice20slice_index_len_fail17h3a657df3a06ab6caE
.Ltmp78:
	.inst.n	0xdefe
.Ltmp79:
.LBB0_56:
	.loc	1 288 0
	ldr	r0, .LCPI0_6
	b	.LBB0_41
.LBB0_57:
.Ltmp80:
	ldr	r0, .LCPI0_7
	b	.LBB0_43
.Ltmp81:
.LBB0_58:
	.loc	3 876 0
	movs	r2, #200
	mov	r0, r1
	mov	r1, r2
	bl	_ZN4core5slice20slice_index_len_fail17h3a657df3a06ab6caE
	.inst.n	0xdefe
.Ltmp82:
	.p2align	2
	.loc	3 0 0 is_stmt 0
.LCPI0_0:
	.long	panic_bounds_check_loc.b
.LCPI0_1:
	.long	panic_bounds_check_loc.m
.LCPI0_2:
	.long	panic_bounds_check_loc.n
.LCPI0_3:
	.long	byte_str.3
.LCPI0_4:
	.long	panic_loc.l
.LCPI0_5:
	.long	panic_loc.k
.LCPI0_6:
	.long	panic_bounds_check_loc.h
.LCPI0_7:
	.long	panic_bounds_check_loc.i
.LCPI0_8:
	.long	byte_str.d
.LCPI0_9:
	.long	panic_bounds_check_loc.g
.LCPI0_10:
	.long	panic_bounds_check_loc.r
.LCPI0_11:
	.long	panic_bounds_check_loc.8
.Lfunc_end0:
	.size	_ZN47_$LT$i8$u20$as$u20$numtoa..NumToA$LT$i8$GT$$GT$6numtoa17h4369f477e82c2dc7E, .Lfunc_end0-_ZN47_$LT$i8$u20$as$u20$numtoa..NumToA$LT$i8$GT$$GT$6numtoa17h4369f477e82c2dc7E
	.cfi_endproc
	.cantunwind
	.fnend

	.section	".text._ZN47_$LT$u8$u20$as$u20$numtoa..NumToA$LT$u8$GT$$GT$6numtoa17hf51f0aea76dbf4dfE","ax",%progbits
	.globl	_ZN47_$LT$u8$u20$as$u20$numtoa..NumToA$LT$u8$GT$$GT$6numtoa17hf51f0aea76dbf4dfE
	.p2align	2
	.type	_ZN47_$LT$u8$u20$as$u20$numtoa..NumToA$LT$u8$GT$$GT$6numtoa17hf51f0aea76dbf4dfE,%function
	.code	16
	.thumb_func
_ZN47_$LT$u8$u20$as$u20$numtoa..NumToA$LT$u8$GT$$GT$6numtoa17hf51f0aea76dbf4dfE:
.Lfunc_begin1:
	.loc	1 310 0 is_stmt 1
	.fnstart
	.cfi_startproc
	.save	{r4, r5, r6, r7, lr}
	push	{r4, r5, r6, r7, lr}
.Lcfi7:
	.cfi_def_cfa_offset 20
.Lcfi8:
	.cfi_offset lr, -4
.Lcfi9:
	.cfi_offset r7, -8
.Lcfi10:
	.cfi_offset r6, -12
.Lcfi11:
	.cfi_offset r5, -16
.Lcfi12:
	.cfi_offset r4, -20
	.setfp	r7, sp, #12
	add	r7, sp, #12
.Lcfi13:
	.cfi_def_cfa r7, 8
	.pad	#12
	sub	sp, #12
	mov	r6, r3
.Ltmp83:
	str	r2, [sp, #8]
.Ltmp84:
	.loc	1 317 0 prologue_end
	subs	r4, r6, #1
.Ltmp85:
	.loc	1 0 0 is_stmt 0
	movs	r2, #255
	.loc	1 318 0 is_stmt 1
	tst	r0, r2
	beq	.LBB1_6
.Ltmp86:
	.loc	1 0 0 is_stmt 0
	uxtb	r5, r1
	.loc	1 323 0 is_stmt 1
	cmp	r5, #10
	beq	.LBB1_8
.Ltmp87:
	.loc	1 0 0 is_stmt 0
	str	r6, [sp, #4]
	cmp	r5, #0
	beq	.LBB1_23
.Ltmp88:
.LBB1_3:
	.loc	1 339 0 is_stmt 1
	uxtb	r6, r0
	mov	r0, r6
.Ltmp89:
	mov	r1, r5
	bl	__aeabi_uidivmod
.Ltmp90:
	.loc	1 340 0
	cmp	r1, #35
	bhi	.LBB1_21
.Ltmp91:
	ldr	r0, [sp, #4]
	cmp	r4, r0
	bhs	.LBB1_22
.Ltmp92:
	ldr	r0, .LCPI1_1
	ldrb	r0, [r0, r1]
	ldr	r1, [sp, #8]
	strb	r0, [r1, r4]
	.loc	1 342 0
	mov	r0, r6
	mov	r1, r5
	bl	__aeabi_uidiv
.Ltmp93:
	.loc	2 1806 0
	subs	r4, r4, #1
.Ltmp94:
	.loc	1 338 0
	cmp	r6, r5
	bhs	.LBB1_3
	b	.LBB1_19
.Ltmp95:
.LBB1_6:
	.loc	1 319 0
	cmp	r6, #0
	beq	.LBB1_24
.Ltmp96:
	movs	r0, #48
.Ltmp97:
	ldr	r1, [sp, #8]
	strb	r0, [r1, r4]
	b	.LBB1_20
.Ltmp98:
.LBB1_8:
	.loc	1 324 0
	uxtb	r5, r0
	cmp	r5, #100
	blo	.LBB1_12
.Ltmp99:
	.loc	1 325 0
	movs	r1, #10
	mov	r0, r5
.Ltmp100:
	bl	__aeabi_uidiv
.Ltmp101:
	lsls	r1, r0, #1
	.loc	1 326 0
	subs	r0, r6, #3
.Ltmp102:
	.loc	3 885 0
	cmp	r4, r0
	blo	.LBB1_26
.Ltmp103:
	.loc	3 887 0
	cmp	r6, #0
	beq	.LBB1_27
.Ltmp104:
	.loc	1 326 0
	uxtb	r1, r1
.Ltmp105:
	.loc	4 582 0
	ldr	r2, .LCPI1_3
.Ltmp106:
	.loc	3 672 0
	ldrh	r1, [r2, r1]
.Ltmp107:
	.loc	3 0 0 is_stmt 0
	ldr	r6, [sp, #8]
.Ltmp108:
	.loc	3 672 0
	strb	r1, [r6, r0]
.Ltmp109:
	.loc	4 1215 0 is_stmt 1
	adds	r0, r6, r0
.Ltmp110:
	.loc	3 672 0
	lsrs	r1, r1, #8
	strb	r1, [r0, #1]
.Ltmp111:
	.loc	1 327 0
	movs	r1, #10
	mov	r0, r5
	bl	__aeabi_uidivmod
	ldr	r0, .LCPI1_1
	ldrb	r0, [r0, r1]
	strb	r0, [r6, r4]
	movs	r0, #3
	b	.LBB1_18
.Ltmp112:
.LBB1_12:
	.loc	1 329 0
	cmp	r5, #10
	blo	.LBB1_16
.Ltmp113:
	.loc	1 331 0
	subs	r1, r6, #2
.Ltmp114:
	.loc	3 885 0
	cmp	r6, #1
	bls	.LBB1_28
.Ltmp115:
	.loc	1 330 0
	lsls	r0, r0, #1
.Ltmp116:
	.loc	1 331 0
	uxtb	r2, r0
.Ltmp117:
	adds	r0, r2, #2
.Ltmp118:
	.loc	3 875 0
	cmp	r0, #201
	bhs	.LBB1_29
.Ltmp119:
	.loc	4 582 0
	ldr	r0, .LCPI1_3
.Ltmp120:
	.loc	3 672 0
	ldrh	r0, [r0, r2]
.Ltmp121:
	.loc	3 0 0 is_stmt 0
	ldr	r2, [sp, #8]
.Ltmp122:
	.loc	3 672 0
	strb	r0, [r2, r1]
.Ltmp123:
	.loc	4 1215 0 is_stmt 1
	adds	r1, r2, r1
.Ltmp124:
	.loc	3 672 0
	lsrs	r0, r0, #8
	strb	r0, [r1, #1]
	movs	r0, #2
.Ltmp125:
	.loc	3 0 0 is_stmt 0
	b	.LBB1_18
.Ltmp126:
.LBB1_16:
	.loc	1 334 0 is_stmt 1
	cmp	r6, #0
	beq	.LBB1_30
.Ltmp127:
	ldr	r0, .LCPI1_1
.Ltmp128:
	ldrb	r0, [r0, r5]
	ldr	r1, [sp, #8]
	strb	r0, [r1, r4]
	movs	r0, #1
.Ltmp129:
.LBB1_18:
	.loc	2 1806 0
	subs	r4, r4, r0
.Ltmp130:
.LBB1_19:
	.loc	2 1787 0
	adds	r4, r4, #1
.Ltmp131:
.LBB1_20:
	.loc	1 347 0
	mov	r0, r4
	add	sp, #12
	pop	{r4, r5, r6, r7, pc}
.LBB1_21:
.Ltmp132:
	.loc	1 340 0
	ldr	r0, .LCPI1_4
	movs	r2, #36
	bl	_ZN4core9panicking18panic_bounds_check17he1dc5c093ac62635E
	.inst.n	0xdefe
.LBB1_22:
	ldr	r0, .LCPI1_5
	mov	r1, r4
	ldr	r2, [sp, #4]
	bl	_ZN4core9panicking18panic_bounds_check17he1dc5c093ac62635E
	.inst.n	0xdefe
.LBB1_23:
.Ltmp133:
	.loc	1 339 0
	ldr	r0, .LCPI1_0
.Ltmp134:
	bl	_ZN4core9panicking5panic17hc432e1634db46879E
.Ltmp135:
	.inst.n	0xdefe
.Ltmp136:
.LBB1_24:
	.loc	1 319 0
	ldr	r0, .LCPI1_6
.Ltmp137:
.LBB1_25:
	.loc	1 0 0 is_stmt 0
	movs	r2, #0
	mov	r1, r4
	bl	_ZN4core9panicking18panic_bounds_check17he1dc5c093ac62635E
.Ltmp138:
	.inst.n	0xdefe
.LBB1_26:
.Ltmp139:
	.loc	3 886 0 is_stmt 1
	mov	r1, r4
	bl	_ZN4core5slice22slice_index_order_fail17h1ebe63c40336a21cE
.Ltmp140:
	.inst.n	0xdefe
.Ltmp141:
.LBB1_27:
	.loc	3 888 0
	movs	r1, #0
	mov	r0, r4
.Ltmp142:
	bl	_ZN4core5slice20slice_index_len_fail17h3a657df3a06ab6caE
	.inst.n	0xdefe
.Ltmp143:
.LBB1_28:
	.loc	3 886 0
	mov	r0, r1
.Ltmp144:
	mov	r1, r6
.Ltmp145:
	bl	_ZN4core5slice22slice_index_order_fail17h1ebe63c40336a21cE
.Ltmp146:
	.inst.n	0xdefe
.Ltmp147:
.LBB1_29:
	.loc	3 876 0
	movs	r1, #200
	bl	_ZN4core5slice20slice_index_len_fail17h3a657df3a06ab6caE
.Ltmp148:
	.inst.n	0xdefe
.Ltmp149:
.LBB1_30:
	.loc	1 334 0
	ldr	r0, .LCPI1_2
.Ltmp150:
	.loc	1 0 0 is_stmt 0
	b	.LBB1_25
.Ltmp151:
	.p2align	2
.LCPI1_0:
	.long	panic_loc.x
.LCPI1_1:
	.long	byte_str.3
.LCPI1_2:
	.long	panic_bounds_check_loc.w
.LCPI1_3:
	.long	byte_str.d
.LCPI1_4:
	.long	panic_bounds_check_loc.y
.LCPI1_5:
	.long	panic_bounds_check_loc.z
.LCPI1_6:
	.long	panic_bounds_check_loc.s
.Lfunc_end1:
	.size	_ZN47_$LT$u8$u20$as$u20$numtoa..NumToA$LT$u8$GT$$GT$6numtoa17hf51f0aea76dbf4dfE, .Lfunc_end1-_ZN47_$LT$u8$u20$as$u20$numtoa..NumToA$LT$u8$GT$$GT$6numtoa17hf51f0aea76dbf4dfE
	.cfi_endproc
	.cantunwind
	.fnend

	.section	".text._ZN49_$LT$i16$u20$as$u20$numtoa..NumToA$LT$i16$GT$$GT$6numtoa17h0593de8b5531648aE","ax",%progbits
	.globl	_ZN49_$LT$i16$u20$as$u20$numtoa..NumToA$LT$i16$GT$$GT$6numtoa17h0593de8b5531648aE
	.p2align	2
	.type	_ZN49_$LT$i16$u20$as$u20$numtoa..NumToA$LT$i16$GT$$GT$6numtoa17h0593de8b5531648aE,%function
	.code	16
	.thumb_func
_ZN49_$LT$i16$u20$as$u20$numtoa..NumToA$LT$i16$GT$$GT$6numtoa17h0593de8b5531648aE:
.Lfunc_begin2:
	.loc	1 186 0 is_stmt 1
	.fnstart
	.cfi_startproc
	.save	{r4, r5, r6, r7, lr}
	push	{r4, r5, r6, r7, lr}
.Lcfi14:
	.cfi_def_cfa_offset 20
.Lcfi15:
	.cfi_offset lr, -4
.Lcfi16:
	.cfi_offset r7, -8
.Lcfi17:
	.cfi_offset r6, -12
.Lcfi18:
	.cfi_offset r5, -16
.Lcfi19:
	.cfi_offset r4, -20
	.setfp	r7, sp, #12
	add	r7, sp, #12
.Lcfi20:
	.cfi_def_cfa r7, 8
	.pad	#20
	sub	sp, #20
	str	r2, [sp, #16]
.Ltmp152:
	mov	r2, r3
.Ltmp153:
	.loc	1 198 0 prologue_end
	subs	r4, r3, #1
.Ltmp154:
	.loc	1 222 0
	movs	r3, #1
	str	r3, [sp, #4]
	lsls	r6, r3, #15
	sxth	r3, r0
.Ltmp155:
	.loc	1 201 0
	cmp	r3, #0
	blt	.LBB2_3
.Ltmp156:
	.loc	1 212 0
	lsls	r3, r0, #16
	movs	r5, #0
	str	r5, [sp]
	cmp	r3, #0
	beq	.LBB2_6
.Ltmp157:
	.loc	1 0 0 is_stmt 0
	mov	r3, r6
	b	.LBB2_9
.Ltmp158:
.LBB2_3:
	.loc	2 495 0 is_stmt 1
	uxth	r3, r0
	movs	r5, #1
.Ltmp159:
	.loc	1 204 0
	str	r5, [sp]
	cmp	r3, r6
	mov	r3, r6
	bne	.LBB2_8
.Ltmp160:
	.loc	1 0 0 is_stmt 0
	mov	r6, r2
.Ltmp161:
	.loc	1 207 0 is_stmt 1
	cmp	r6, #0
	bne	.LBB2_5
	b	.LBB2_71
.Ltmp162:
.LBB2_5:
	movs	r0, #56
.Ltmp163:
	.loc	1 0 0 is_stmt 0
	ldr	r2, [sp, #16]
.Ltmp164:
	.loc	1 207 0
	strb	r0, [r2, r4]
	.loc	1 208 0 is_stmt 1
	subs	r4, r6, #2
.Ltmp165:
	.loc	1 0 0 is_stmt 0
	ldr	r0, .LCPI2_1
	b	.LBB2_10
.Ltmp166:
.LBB2_6:
	.loc	1 213 0 is_stmt 1
	cmp	r2, #0
	bne	.LBB2_7
	b	.LBB2_64
.Ltmp167:
.LBB2_7:
	movs	r0, #48
.Ltmp168:
	ldr	r1, [sp, #16]
	strb	r0, [r1, r4]
	b	.LBB2_52
.Ltmp169:
.LBB2_8:
	.loc	2 1001 0
	rsbs	r0, r0, #0
.Ltmp170:
.LBB2_9:
	.loc	2 0 0 is_stmt 0
	mov	r6, r2
	ldr	r2, [sp, #16]
.Ltmp171:
.LBB2_10:
	.loc	1 217 0 is_stmt 1
	uxth	r5, r1
	str	r5, [sp, #8]
	cmp	r5, #10
	str	r6, [sp, #12]
	bne	.LBB2_21
	.loc	1 219 0
	sxth	r1, r0
	ldr	r3, .LCPI2_8
	cmp	r1, r3
	ble	.LBB2_29
	.loc	1 0 0 is_stmt 0
	uxth	r5, r0
	ldr	r1, .LCPI2_13
	mov	r0, r5
	bl	__aeabi_uidivmod
.Ltmp172:
	.loc	1 219 0
	movs	r2, #100
	mov	r0, r1
	mov	r1, r2
	bl	__aeabi_uidivmod
	lsls	r3, r1, #1
	lsls	r2, r0, #1
	subs	r1, r4, #1
.Ltmp173:
	subs	r0, r4, #3
.Ltmp174:
	.loc	3 885 0 is_stmt 1
	cmp	r1, r0
	bhs	.LBB2_13
	b	.LBB2_79
.Ltmp175:
.LBB2_13:
	.loc	3 887 0
	cmp	r1, r6
.Ltmp176:
	.loc	3 0 0 is_stmt 0
	bls	.LBB2_14
	b	.LBB2_67
.Ltmp177:
.LBB2_14:
	.loc	1 219 0 is_stmt 1
	uxth	r6, r2
.Ltmp178:
	adds	r2, r6, #2
.Ltmp179:
	.loc	3 875 0
	cmp	r2, #201
	blo	.LBB2_15
	b	.LBB2_60
.Ltmp180:
.LBB2_15:
	.loc	4 582 0
	ldr	r2, .LCPI2_11
.Ltmp181:
	.loc	3 672 0
	ldrh	r2, [r2, r6]
.Ltmp182:
	.loc	3 0 0 is_stmt 0
	ldr	r6, [sp, #16]
	.loc	3 672 0
	strb	r2, [r6, r0]
.Ltmp183:
	.loc	4 1215 0 is_stmt 1
	adds	r0, r6, r0
.Ltmp184:
	.loc	3 672 0
	lsrs	r2, r2, #8
	strb	r2, [r0, #1]
.Ltmp185:
	.loc	1 219 0
	adds	r2, r4, #1
.Ltmp186:
	.loc	3 885 0
	cmp	r2, r1
.Ltmp187:
	.loc	3 0 0 is_stmt 0
	bhs	.LBB2_16
	b	.LBB2_68
.Ltmp188:
.LBB2_16:
	ldr	r6, [sp, #12]
	.loc	3 887 0 is_stmt 1
	cmp	r2, r6
.Ltmp189:
	.loc	3 0 0 is_stmt 0
	bls	.LBB2_17
	b	.LBB2_69
.Ltmp190:
.LBB2_17:
	.loc	1 219 0 is_stmt 1
	uxth	r2, r3
.Ltmp191:
	adds	r0, r2, #2
.Ltmp192:
	.loc	3 875 0
	cmp	r0, #201
	blo	.LBB2_18
	b	.LBB2_62
.Ltmp193:
.LBB2_18:
	.loc	3 672 0
	ldr	r0, .LCPI2_11
	ldrh	r0, [r0, r2]
.Ltmp194:
	.loc	3 0 0 is_stmt 0
	ldr	r2, [sp, #16]
	.loc	3 672 0
	strb	r0, [r2, r1]
.Ltmp195:
	.loc	4 1215 0 is_stmt 1
	adds	r1, r2, r1
.Ltmp196:
	.loc	3 672 0
	lsrs	r0, r0, #8
	strb	r0, [r1, #1]
	ldr	r1, .LCPI2_13
	mov	r0, r5
	bl	__aeabi_uidiv
.Ltmp197:
	.loc	3 0 0 is_stmt 0
	mov	r1, r0
.Ltmp198:
	.loc	2 1806 0 is_stmt 1
	subs	r4, r4, #4
.Ltmp199:
.LBB2_19:
	.loc	1 137 0
	cmp	r4, r6
	blo	.LBB2_20
	b	.LBB2_65
.LBB2_20:
	.loc	1 219 0
	ldr	r0, .LCPI2_5
	ldrb	r0, [r0, r1]
	.loc	1 137 0
	ldr	r1, [sp, #16]
	strb	r0, [r1, r4]
	ldr	r0, [sp, #4]
	b	.LBB2_47
.LBB2_21:
	.loc	1 221 0
	lsls	r2, r0, #16
	bne	.LBB2_22
	b	.LBB2_48
.LBB2_22:
	.loc	1 0 0 is_stmt 0
	str	r3, [sp, #4]
	.loc	1 221 0
	lsls	r2, r1, #16
	bne	.LBB2_23
	b	.LBB2_63
.LBB2_23:
	.loc	1 0 0
	sxth	r5, r1
.LBB2_24:
	ldr	r1, .LCPI2_2
.Ltmp200:
	.loc	1 222 0 is_stmt 1
	ldr	r2, [sp, #8]
	cmp	r2, r1
	bne	.LBB2_26
	.loc	1 0 0 is_stmt 0
	uxth	r1, r0
	ldr	r2, [sp, #4]
	cmp	r1, r2
	bne	.LBB2_26
	b	.LBB2_55
.LBB2_26:
	.loc	1 222 0
	sxth	r6, r0
	mov	r0, r6
	mov	r1, r5
	bl	__aeabi_idivmod
	mov	r0, r1
	.loc	1 223 0 is_stmt 1
	sxth	r1, r0
	.loc	1 222 0
	uxth	r0, r0
	.loc	1 223 0
	cmp	r0, #35
	bls	.LBB2_27
	b	.LBB2_56
.LBB2_27:
.Ltmp201:
	ldr	r0, [sp, #12]
	cmp	r4, r0
	ldr	r2, [sp, #16]
	blo	.LBB2_28
	b	.LBB2_58
.Ltmp202:
.LBB2_28:
	ldr	r0, .LCPI2_5
	ldrb	r0, [r0, r1]
	strb	r0, [r2, r4]
	.loc	1 225 0
	mov	r0, r6
	mov	r1, r5
	bl	__aeabi_idiv
.Ltmp203:
	.loc	2 1806 0
	subs	r4, r4, #1
.Ltmp204:
	.loc	2 0 0 is_stmt 0
	ldr	r1, .LCPI2_2
.Ltmp205:
	.loc	1 221 0 is_stmt 1
	tst	r0, r1
	bne	.LBB2_24
	b	.LBB2_48
.Ltmp206:
.LBB2_29:
	.loc	1 219 0
	ldr	r3, .LCPI2_9
	cmp	r1, r3
	ble	.LBB2_37
	.loc	1 0 0 is_stmt 0
	uxth	r0, r0
	movs	r1, #100
	bl	__aeabi_uidivmod
.Ltmp207:
	.loc	1 219 0
	lsls	r3, r1, #1
	lsls	r2, r0, #1
	subs	r5, r4, #1
.Ltmp208:
	subs	r0, r4, #3
.Ltmp209:
	.loc	3 885 0 is_stmt 1
	cmp	r5, r0
	bhs	.LBB2_31
	b	.LBB2_74
.Ltmp210:
.LBB2_31:
	.loc	3 887 0
	cmp	r5, r6
.Ltmp211:
	.loc	3 0 0 is_stmt 0
	bls	.LBB2_32
	b	.LBB2_75
.Ltmp212:
.LBB2_32:
	.loc	1 219 0 is_stmt 1
	uxth	r6, r2
.Ltmp213:
	adds	r2, r6, #2
.Ltmp214:
	.loc	3 875 0
	cmp	r2, #201
	bhs	.LBB2_60
.Ltmp215:
	.loc	4 582 0
	ldr	r1, .LCPI2_11
.Ltmp216:
	.loc	3 672 0
	ldrh	r2, [r1, r6]
.Ltmp217:
	.loc	3 0 0 is_stmt 0
	mov	r6, r1
	ldr	r1, [sp, #16]
	.loc	3 672 0
	strb	r2, [r1, r0]
.Ltmp218:
	.loc	4 1215 0 is_stmt 1
	adds	r0, r1, r0
.Ltmp219:
	.loc	3 672 0
	lsrs	r2, r2, #8
	strb	r2, [r0, #1]
.Ltmp220:
	.loc	1 219 0
	adds	r2, r4, #1
.Ltmp221:
	.loc	3 885 0
	cmp	r2, r5
.Ltmp222:
	.loc	3 0 0 is_stmt 0
	bhs	.LBB2_34
	b	.LBB2_77
.Ltmp223:
.LBB2_34:
	ldr	r1, [sp, #12]
	.loc	3 887 0 is_stmt 1
	cmp	r2, r1
.Ltmp224:
	.loc	3 0 0 is_stmt 0
	bhi	.LBB2_61
.Ltmp225:
	.loc	1 219 0 is_stmt 1
	uxth	r2, r3
.Ltmp226:
	adds	r0, r2, #2
.Ltmp227:
	.loc	3 875 0
	cmp	r0, #201
	bhs	.LBB2_62
.Ltmp228:
	.loc	3 672 0
	ldrh	r0, [r6, r2]
.Ltmp229:
	.loc	3 0 0 is_stmt 0
	ldr	r1, [sp, #16]
	.loc	3 672 0
	strb	r0, [r1, r5]
.Ltmp230:
	.loc	4 1215 0 is_stmt 1
	adds	r1, r1, r5
.Ltmp231:
	.loc	3 672 0
	lsrs	r0, r0, #8
	strb	r0, [r1, #1]
	movs	r0, #4
.Ltmp232:
	.loc	3 0 0 is_stmt 0
	b	.LBB2_47
.Ltmp233:
.LBB2_37:
	.loc	1 219 0 is_stmt 1
	cmp	r1, #99
	ble	.LBB2_43
.Ltmp234:
	.loc	1 219 0 is_stmt 0
	uxth	r5, r0
	movs	r1, #10
	mov	r0, r5
	bl	__aeabi_uidiv
	lsls	r1, r0, #1
	subs	r0, r4, #2
.Ltmp235:
	.loc	3 885 0 is_stmt 1
	cmp	r4, #1
	bhi	.LBB2_39
	b	.LBB2_80
.Ltmp236:
.LBB2_39:
	.loc	3 887 0
	cmp	r4, r6
.Ltmp237:
	.loc	3 0 0 is_stmt 0
	ldr	r3, [sp, #16]
	bhi	.LBB2_81
.Ltmp238:
	str	r5, [sp, #8]
	.loc	1 219 0 is_stmt 1
	uxth	r1, r1
.Ltmp239:
	adds	r2, r1, #2
.Ltmp240:
	.loc	3 875 0
	cmp	r2, #201
	bhs	.LBB2_60
.Ltmp241:
	.loc	4 582 0
	ldr	r2, .LCPI2_11
.Ltmp242:
	.loc	3 672 0
	ldrh	r1, [r2, r1]
.Ltmp243:
	strb	r1, [r3, r0]
.Ltmp244:
	.loc	4 1215 0
	adds	r0, r3, r0
.Ltmp245:
	.loc	3 672 0
	lsrs	r1, r1, #8
	strb	r1, [r0, #1]
.Ltmp246:
	.loc	1 130 0
	cmp	r4, r6
.Ltmp247:
	.loc	1 0 0 is_stmt 0
	mov	r5, r3
	.loc	1 130 0
	bhs	.LBB2_82
.Ltmp248:
	.loc	1 0 0
	movs	r1, #10
	ldr	r0, [sp, #8]
	bl	__aeabi_uidivmod
	.loc	1 219 0 is_stmt 1
	ldr	r0, .LCPI2_5
	ldrb	r0, [r0, r1]
	.loc	1 130 0
	strb	r0, [r5, r4]
	movs	r0, #3
	b	.LBB2_47
.Ltmp249:
.LBB2_43:
	.loc	1 219 0
	cmp	r1, #9
	ble	.LBB2_53
	adds	r3, r4, #1
.Ltmp250:
	subs	r1, r4, #1
.Ltmp251:
	lsls	r0, r0, #1
.Ltmp252:
	.loc	3 885 0
	cmp	r3, r1
	blo	.LBB2_83
.Ltmp253:
	.loc	3 887 0
	cmp	r3, r6
.Ltmp254:
	.loc	3 0 0 is_stmt 0
	bhi	.LBB2_84
.Ltmp255:
	.loc	1 219 0 is_stmt 1
	sxth	r0, r0
.Ltmp256:
	.loc	4 582 0
	ldr	r3, .LCPI2_11
.Ltmp257:
	.loc	3 672 0
	ldrh	r0, [r3, r0]
.Ltmp258:
	strb	r0, [r2, r1]
.Ltmp259:
	.loc	4 1215 0
	adds	r1, r2, r1
.Ltmp260:
	.loc	3 672 0
	lsrs	r0, r0, #8
	strb	r0, [r1, #1]
	movs	r0, #2
.Ltmp261:
.LBB2_47:
	.loc	2 1806 0
	subs	r4, r4, r0
.Ltmp262:
.LBB2_48:
	.loc	1 229 0
	ldr	r0, [sp]
	cmp	r0, #1
	bne	.LBB2_51
.Ltmp263:
	.loc	1 0 0 is_stmt 0
	ldr	r2, [sp, #12]
	.loc	1 230 0 is_stmt 1
	cmp	r4, r2
	bhs	.LBB2_59
.Ltmp264:
	movs	r0, #45
	ldr	r1, [sp, #16]
	strb	r0, [r1, r4]
	.loc	1 231 0
	subs	r4, r4, #1
.Ltmp265:
.LBB2_51:
	.loc	2 1787 0
	adds	r4, r4, #1
.Ltmp266:
.LBB2_52:
	.loc	1 235 0
	mov	r0, r4
	add	sp, #20
	pop	{r4, r5, r6, r7, pc}
.LBB2_53:
.Ltmp267:
	.loc	1 219 0
	uxth	r0, r0
	cmp	r0, #35
	bhi	.LBB2_54
	b	.LBB2_19
.LBB2_54:
	ldr	r0, .LCPI2_10
	b	.LBB2_57
.LBB2_55:
.Ltmp268:
	.loc	1 222 0
	ldr	r0, .LCPI2_6
	bl	_ZN4core9panicking5panic17hc432e1634db46879E
	.inst.n	0xdefe
.LBB2_56:
	.loc	1 223 0
	ldr	r0, .LCPI2_3
.LBB2_57:
	.loc	1 0 0 is_stmt 0
	movs	r2, #36
	bl	_ZN4core9panicking18panic_bounds_check17he1dc5c093ac62635E
	.inst.n	0xdefe
.LBB2_58:
	.loc	1 223 0
	ldr	r0, .LCPI2_4
	mov	r1, r4
	ldr	r2, [sp, #12]
	bl	_ZN4core9panicking18panic_bounds_check17he1dc5c093ac62635E
	.inst.n	0xdefe
.Ltmp269:
.LBB2_59:
	.loc	1 230 0 is_stmt 1
	ldr	r0, .LCPI2_15
	b	.LBB2_73
.Ltmp270:
.LBB2_60:
	.loc	1 0 0 is_stmt 0
	movs	r1, #200
.LBB2_61:
	mov	r0, r2
	bl	_ZN4core5slice20slice_index_len_fail17h3a657df3a06ab6caE
	.inst.n	0xdefe
.LBB2_62:
	movs	r1, #200
	bl	_ZN4core5slice20slice_index_len_fail17h3a657df3a06ab6caE
	.inst.n	0xdefe
.LBB2_63:
.Ltmp271:
	.loc	1 222 0 is_stmt 1
	ldr	r0, .LCPI2_7
	bl	_ZN4core9panicking5panic17hc432e1634db46879E
	.inst.n	0xdefe
.Ltmp272:
.LBB2_64:
	.loc	1 213 0
	ldr	r0, .LCPI2_0
.Ltmp273:
	.loc	1 0 0 is_stmt 0
	b	.LBB2_72
.Ltmp274:
.LBB2_65:
	.loc	1 137 0 is_stmt 1
	ldr	r0, .LCPI2_14
.LBB2_66:
	.loc	1 0 0 is_stmt 0
	mov	r1, r4
	mov	r2, r6
	bl	_ZN4core9panicking18panic_bounds_check17he1dc5c093ac62635E
	.inst.n	0xdefe
.LBB2_67:
.Ltmp275:
	.loc	3 888 0 is_stmt 1
	mov	r0, r1
.Ltmp276:
	.loc	3 0 0 is_stmt 0
	b	.LBB2_76
.Ltmp277:
.LBB2_68:
	.loc	3 886 0 is_stmt 1
	mov	r0, r1
	b	.LBB2_78
.Ltmp278:
.LBB2_69:
	.loc	3 888 0
	mov	r0, r2
.Ltmp279:
.LBB2_70:
	.loc	3 0 0 is_stmt 0
	mov	r1, r6
	bl	_ZN4core5slice20slice_index_len_fail17h3a657df3a06ab6caE
	.inst.n	0xdefe
.LBB2_71:
.Ltmp280:
	.loc	1 207 0 is_stmt 1
	ldr	r0, .LCPI2_16
.Ltmp281:
.LBB2_72:
	.loc	1 0 0 is_stmt 0
	movs	r2, #0
.Ltmp282:
.LBB2_73:
	mov	r1, r4
	bl	_ZN4core9panicking18panic_bounds_check17he1dc5c093ac62635E
	.inst.n	0xdefe
.LBB2_74:
.Ltmp283:
	.loc	3 886 0 is_stmt 1
	mov	r1, r5
	b	.LBB2_79
.Ltmp284:
.LBB2_75:
	.loc	3 888 0
	mov	r0, r5
.Ltmp285:
.LBB2_76:
	.loc	3 0 0 is_stmt 0
	ldr	r1, [sp, #12]
	bl	_ZN4core5slice20slice_index_len_fail17h3a657df3a06ab6caE
	.inst.n	0xdefe
.LBB2_77:
.Ltmp286:
	.loc	3 886 0 is_stmt 1
	mov	r0, r5
.Ltmp287:
.LBB2_78:
	.loc	3 0 0 is_stmt 0
	mov	r1, r2
.LBB2_79:
	bl	_ZN4core5slice22slice_index_order_fail17h1ebe63c40336a21cE
	.inst.n	0xdefe
.LBB2_80:
.Ltmp288:
	.loc	3 886 0
	mov	r1, r4
	b	.LBB2_79
.Ltmp289:
.LBB2_81:
	.loc	3 888 0 is_stmt 1
	mov	r0, r4
.Ltmp290:
	.loc	3 0 0 is_stmt 0
	b	.LBB2_70
.Ltmp291:
.LBB2_82:
	.loc	1 130 0 is_stmt 1
	ldr	r0, .LCPI2_12
	b	.LBB2_66
.Ltmp292:
.LBB2_83:
	.loc	3 886 0
	mov	r0, r1
	mov	r1, r3
.Ltmp293:
	.loc	3 0 0 is_stmt 0
	b	.LBB2_79
.Ltmp294:
.LBB2_84:
	.loc	3 888 0 is_stmt 1
	mov	r0, r3
	b	.LBB2_70
.Ltmp295:
	.p2align	2
	.loc	3 0 0 is_stmt 0
.LCPI2_0:
	.long	panic_bounds_check_loc.F
.LCPI2_1:
	.long	3276
.LCPI2_2:
	.long	65535
.LCPI2_3:
	.long	panic_bounds_check_loc.R
.LCPI2_4:
	.long	panic_bounds_check_loc.S
.LCPI2_5:
	.long	byte_str.3
.LCPI2_6:
	.long	panic_loc.Q
.LCPI2_7:
	.long	panic_loc.P
.LCPI2_8:
	.long	9999
.LCPI2_9:
	.long	999
.LCPI2_10:
	.long	panic_bounds_check_loc.N
.LCPI2_11:
	.long	byte_str.d
.LCPI2_12:
	.long	panic_bounds_check_loc.M
.LCPI2_13:
	.long	10000
.LCPI2_14:
	.long	panic_bounds_check_loc.O
.LCPI2_15:
	.long	panic_bounds_check_loc.V
.LCPI2_16:
	.long	panic_bounds_check_loc.D
.Lfunc_end2:
	.size	_ZN49_$LT$i16$u20$as$u20$numtoa..NumToA$LT$i16$GT$$GT$6numtoa17h0593de8b5531648aE, .Lfunc_end2-_ZN49_$LT$i16$u20$as$u20$numtoa..NumToA$LT$i16$GT$$GT$6numtoa17h0593de8b5531648aE
	.cfi_endproc
	.cantunwind
	.fnend

	.section	".text._ZN49_$LT$i32$u20$as$u20$numtoa..NumToA$LT$i32$GT$$GT$6numtoa17h629c13f7b7ad4682E","ax",%progbits
	.globl	_ZN49_$LT$i32$u20$as$u20$numtoa..NumToA$LT$i32$GT$$GT$6numtoa17h629c13f7b7ad4682E
	.p2align	2
	.type	_ZN49_$LT$i32$u20$as$u20$numtoa..NumToA$LT$i32$GT$$GT$6numtoa17h629c13f7b7ad4682E,%function
	.code	16
	.thumb_func
_ZN49_$LT$i32$u20$as$u20$numtoa..NumToA$LT$i32$GT$$GT$6numtoa17h629c13f7b7ad4682E:
.Lfunc_begin3:
	.loc	1 186 0 is_stmt 1
	.fnstart
	.cfi_startproc
	.save	{r4, r5, r6, r7, lr}
	push	{r4, r5, r6, r7, lr}
.Lcfi21:
	.cfi_def_cfa_offset 20
.Lcfi22:
	.cfi_offset lr, -4
.Lcfi23:
	.cfi_offset r7, -8
.Lcfi24:
	.cfi_offset r6, -12
.Lcfi25:
	.cfi_offset r5, -16
.Lcfi26:
	.cfi_offset r4, -20
	.setfp	r7, sp, #12
	add	r7, sp, #12
.Lcfi27:
	.cfi_def_cfa r7, 8
	.pad	#20
	sub	sp, #20
	str	r2, [sp, #12]
.Ltmp296:
	mov	r5, r1
.Ltmp297:
	mov	r4, r0
.Ltmp298:
	.loc	1 198 0 prologue_end
	subs	r6, r3, #1
.Ltmp299:
	.loc	1 0 0 is_stmt 0
	movs	r2, #1
.Ltmp300:
	lsls	r1, r2, #31
.Ltmp301:
	.loc	1 201 0 is_stmt 1
	cmp	r4, #0
	str	r1, [sp, #16]
	blt	.LBB3_4
.Ltmp302:
	.loc	1 0 0 is_stmt 0
	movs	r1, #0
	.loc	1 212 0 is_stmt 1
	cmp	r4, #0
	bne	.LBB3_9
.Ltmp303:
	.loc	1 213 0
	cmp	r3, #0
	bne	.LBB3_3
	b	.LBB3_72
.Ltmp304:
.LBB3_3:
	movs	r0, #48
	ldr	r1, [sp, #12]
	strb	r0, [r1, r6]
	b	.LBB3_54
.Ltmp305:
.LBB3_4:
	.loc	1 0 0 is_stmt 0
	movs	r0, #1
.Ltmp306:
	str	r0, [sp, #4]
.Ltmp307:
	.loc	2 495 0 is_stmt 1
	cmp	r4, r1
	bne	.LBB3_7
.Ltmp308:
	.loc	2 0 0 is_stmt 0
	str	r2, [sp]
.Ltmp309:
	.loc	1 207 0 is_stmt 1
	cmp	r3, #0
	bne	.LBB3_6
	b	.LBB3_73
.Ltmp310:
.LBB3_6:
	movs	r0, #56
	ldr	r1, [sp, #12]
	strb	r0, [r1, r6]
	.loc	1 208 0
	subs	r6, r3, #2
.Ltmp311:
	.loc	1 0 0 is_stmt 0
	ldr	r4, .LCPI3_1
.Ltmp312:
	ldr	r2, [sp]
	b	.LBB3_8
.Ltmp313:
.LBB3_7:
	.loc	2 1001 0 is_stmt 1
	rsbs	r4, r4, #0
.Ltmp314:
.LBB3_8:
	.loc	2 0 0 is_stmt 0
	ldr	r1, [sp, #4]
.Ltmp315:
.LBB3_9:
	.loc	1 217 0 is_stmt 1
	cmp	r5, #10
	str	r3, [sp, #8]
	str	r1, [sp, #4]
	bne	.LBB3_22
.Ltmp316:
	.loc	1 0 0 is_stmt 0
	str	r2, [sp]
	.loc	1 219 0 is_stmt 1
	ldr	r0, .LCPI3_7
	cmp	r4, r0
	blt	.LBB3_29
.Ltmp317:
	.loc	1 0 0 is_stmt 0
	subs	r5, r6, #3
.Ltmp318:
.LBB3_12:
	adds	r1, r5, #2
	movs	r6, #0
	movs	r0, #1
	str	r1, [sp, #16]
	cmp	r1, r5
	bhs	.LBB3_14
.Ltmp319:
	mov	r6, r0
.Ltmp320:
.LBB3_14:
	ldr	r1, .LCPI3_7
	mov	r0, r4
	bl	__aeabi_uidivmod
.Ltmp321:
	.loc	1 219 0
	movs	r2, #100
	mov	r0, r1
	mov	r1, r2
	bl	__aeabi_uidivmod
	lsls	r2, r1, #1
	lsls	r0, r0, #1
.Ltmp322:
	.loc	3 885 0 is_stmt 1
	cmp	r6, #0
	beq	.LBB3_15
	b	.LBB3_65
.LBB3_15:
	.loc	3 0 0 is_stmt 0
	ldr	r1, [sp, #8]
	.loc	3 887 0 is_stmt 1
	ldr	r3, [sp, #16]
	cmp	r3, r1
.Ltmp323:
	.loc	3 0 0 is_stmt 0
	ldr	r6, [sp, #12]
	bls	.LBB3_16
	b	.LBB3_67
.Ltmp324:
.LBB3_16:
	.loc	1 219 0 is_stmt 1
	uxth	r3, r0
.Ltmp325:
	adds	r0, r3, #2
.Ltmp326:
	.loc	3 875 0
	cmp	r0, #201
	blo	.LBB3_17
	b	.LBB3_58
.Ltmp327:
.LBB3_17:
	.loc	3 672 0
	ldr	r0, .LCPI3_8
	ldrh	r0, [r0, r3]
.Ltmp328:
	strb	r0, [r6, r5]
	adds	r3, r6, r5
	lsrs	r0, r0, #8
	strb	r0, [r3, #1]
.Ltmp329:
	.loc	3 885 0
	adds	r6, r5, #4
	ldr	r0, [sp, #16]
	cmp	r6, r0
	bhs	.LBB3_18
	b	.LBB3_63
.Ltmp330:
.LBB3_18:
	.loc	3 887 0
	cmp	r6, r1
.Ltmp331:
	.loc	3 0 0 is_stmt 0
	bls	.LBB3_19
	b	.LBB3_64
.Ltmp332:
.LBB3_19:
	.loc	1 219 0 is_stmt 1
	uxth	r1, r2
.Ltmp333:
	adds	r0, r1, #2
.Ltmp334:
	.loc	3 875 0
	cmp	r0, #201
	blo	.LBB3_20
	b	.LBB3_58
.Ltmp335:
.LBB3_20:
	.loc	3 672 0
	ldr	r0, .LCPI3_8
	ldrh	r0, [r0, r1]
	strb	r0, [r3, #2]
	lsrs	r0, r0, #8
	strb	r0, [r3, #3]
	ldr	r1, .LCPI3_7
	mov	r0, r4
	bl	__aeabi_uidiv
.Ltmp336:
	.loc	3 0 0 is_stmt 0
	mov	r6, r0
.Ltmp337:
	.loc	1 219 0 is_stmt 1
	subs	r5, r5, #4
	ldr	r0, .LCPI3_9
	cmp	r4, r0
.Ltmp338:
	.loc	1 0 0 is_stmt 0
	mov	r4, r6
	bhi	.LBB3_12
.Ltmp339:
	.loc	1 219 0
	adds	r0, r5, #3
	str	r0, [sp, #16]
	b	.LBB3_30
.Ltmp340:
.LBB3_22:
	.loc	1 221 0 is_stmt 1
	cmp	r4, #0
.Ltmp341:
	.loc	1 0 0 is_stmt 0
	bne	.LBB3_23
	b	.LBB3_50
.Ltmp342:
.LBB3_23:
	.loc	1 221 0
	cmp	r5, #0
	bne	.LBB3_24
	b	.LBB3_71
.Ltmp343:
.LBB3_24:
	.loc	1 222 0 is_stmt 1
	mov	r0, r5
	adds	r0, #1
	bne	.LBB3_26
.Ltmp344:
	.loc	1 0 0 is_stmt 0
	ldr	r0, [sp, #16]
	cmp	r4, r0
	bne	.LBB3_26
	b	.LBB3_59
.Ltmp345:
.LBB3_26:
	.loc	1 222 0
	mov	r0, r4
	mov	r1, r5
	bl	__aeabi_idivmod
.Ltmp346:
	.loc	1 223 0 is_stmt 1
	cmp	r1, #35
	bls	.LBB3_27
	b	.LBB3_60
.Ltmp347:
.LBB3_27:
	ldr	r0, [sp, #8]
	cmp	r6, r0
	blo	.LBB3_28
	b	.LBB3_61
.Ltmp348:
.LBB3_28:
	ldr	r0, .LCPI3_4
	ldrb	r0, [r0, r1]
	ldr	r1, [sp, #12]
	strb	r0, [r1, r6]
	.loc	1 225 0
	mov	r0, r4
	mov	r1, r5
	bl	__aeabi_idiv
	mov	r4, r0
.Ltmp349:
	.loc	2 1806 0
	subs	r6, r6, #1
.Ltmp350:
	.loc	1 221 0
	cmp	r4, #0
	bne	.LBB3_24
	b	.LBB3_50
.Ltmp351:
.LBB3_29:
	.loc	1 0 0 is_stmt 0
	str	r6, [sp, #16]
	mov	r6, r4
.Ltmp352:
.LBB3_30:
	.loc	1 219 0 is_stmt 1
	ldr	r0, .LCPI3_10
	cmp	r6, r0
	ble	.LBB3_38
	.loc	1 0 0 is_stmt 0
	movs	r1, #100
	mov	r0, r6
	bl	__aeabi_uidivmod
.Ltmp353:
	.loc	1 219 0
	lsls	r3, r1, #1
.Ltmp354:
	lsls	r5, r0, #1
.Ltmp355:
	.loc	1 0 0
	ldr	r0, [sp, #16]
	.loc	1 219 0
	subs	r6, r0, #1
.Ltmp356:
	subs	r0, r0, #3
.Ltmp357:
	.loc	3 885 0 is_stmt 1
	cmp	r6, r0
	bhs	.LBB3_32
	b	.LBB3_63
.Ltmp358:
.LBB3_32:
	.loc	3 0 0 is_stmt 0
	ldr	r1, [sp, #8]
	.loc	3 887 0 is_stmt 1
	cmp	r6, r1
.Ltmp359:
	.loc	3 0 0 is_stmt 0
	bls	.LBB3_33
	b	.LBB3_64
.Ltmp360:
.LBB3_33:
	.loc	1 219 0 is_stmt 1
	adds	r2, r5, #2
.Ltmp361:
	.loc	3 875 0
	cmp	r2, #201
	blo	.LBB3_34
	b	.LBB3_69
.Ltmp362:
.LBB3_34:
	.loc	4 582 0
	ldr	r4, .LCPI3_8
.Ltmp363:
	.loc	3 672 0
	ldrh	r2, [r4, r5]
.Ltmp364:
	.loc	3 0 0 is_stmt 0
	ldr	r5, [sp, #12]
.Ltmp365:
	.loc	3 672 0
	strb	r2, [r5, r0]
.Ltmp366:
	.loc	4 1215 0 is_stmt 1
	adds	r0, r5, r0
.Ltmp367:
	.loc	3 672 0
	lsrs	r2, r2, #8
	strb	r2, [r0, #1]
.Ltmp368:
	.loc	1 219 0
	ldr	r0, [sp, #16]
	adds	r2, r0, #1
.Ltmp369:
	.loc	3 885 0
	cmp	r2, r6
.Ltmp370:
	.loc	3 0 0 is_stmt 0
	bhs	.LBB3_35
	b	.LBB3_76
.Ltmp371:
.LBB3_35:
	.loc	3 887 0 is_stmt 1
	cmp	r2, r1
.Ltmp372:
	.loc	3 0 0 is_stmt 0
	bls	.LBB3_36
	b	.LBB3_70
.Ltmp373:
.LBB3_36:
	.loc	1 219 0 is_stmt 1
	adds	r0, r3, #2
.Ltmp374:
	.loc	3 875 0
	cmp	r0, #201
	bhs	.LBB3_58
.Ltmp375:
	.loc	3 672 0
	ldrh	r0, [r4, r3]
.Ltmp376:
	.loc	3 0 0 is_stmt 0
	ldr	r1, [sp, #12]
	.loc	3 672 0
	strb	r0, [r1, r6]
.Ltmp377:
	.loc	4 1215 0 is_stmt 1
	adds	r1, r1, r6
.Ltmp378:
	.loc	3 672 0
	lsrs	r0, r0, #8
	strb	r0, [r1, #1]
	movs	r0, #4
	b	.LBB3_48
.Ltmp379:
.LBB3_38:
	.loc	1 219 0
	cmp	r6, #99
	ble	.LBB3_44
.Ltmp380:
	.loc	1 219 0 is_stmt 0
	uxth	r0, r6
	movs	r1, #10
	bl	__aeabi_uidiv
	lsls	r3, r0, #1
	ldr	r1, [sp, #16]
	subs	r0, r1, #2
.Ltmp381:
	.loc	3 885 0 is_stmt 1
	cmp	r1, #1
	bls	.LBB3_66
.Ltmp382:
	.loc	3 887 0
	ldr	r2, [sp, #8]
	cmp	r1, r2
.Ltmp383:
	.loc	3 0 0 is_stmt 0
	bls	.LBB3_41
	b	.LBB3_77
.Ltmp384:
.LBB3_41:
	.loc	1 219 0 is_stmt 1
	uxth	r1, r3
.Ltmp385:
	adds	r2, r1, #2
.Ltmp386:
	.loc	3 875 0
	cmp	r2, #201
	bhs	.LBB3_69
.Ltmp387:
	.loc	4 582 0
	ldr	r2, .LCPI3_8
.Ltmp388:
	.loc	3 672 0
	ldrh	r1, [r2, r1]
.Ltmp389:
	.loc	3 0 0 is_stmt 0
	ldr	r4, [sp, #12]
	.loc	3 672 0
	strb	r1, [r4, r0]
.Ltmp390:
	.loc	4 1215 0 is_stmt 1
	adds	r0, r4, r0
.Ltmp391:
	.loc	3 672 0
	lsrs	r1, r1, #8
	strb	r1, [r0, #1]
.Ltmp392:
	.loc	1 130 0
	ldr	r0, [sp, #8]
	ldr	r5, [sp, #16]
	cmp	r5, r0
.Ltmp393:
	bhs	.LBB3_78
.Ltmp394:
	.loc	1 0 0 is_stmt 0
	movs	r1, #10
	mov	r0, r6
	bl	__aeabi_uidivmod
	.loc	1 219 0 is_stmt 1
	ldr	r0, .LCPI3_4
	ldrb	r0, [r0, r1]
	.loc	1 130 0
	strb	r0, [r4, r5]
	movs	r0, #3
	mov	r6, r5
	b	.LBB3_49
.Ltmp395:
.LBB3_44:
	.loc	1 219 0
	cmp	r6, #9
	ble	.LBB3_55
	.loc	1 0 0 is_stmt 0
	ldr	r0, [sp, #16]
	.loc	1 219 0
	adds	r1, r0, #1
.Ltmp396:
	subs	r0, r0, #1
.Ltmp397:
	lsls	r2, r6, #1
.Ltmp398:
	.loc	3 885 0 is_stmt 1
	cmp	r1, r0
	blo	.LBB3_66
.Ltmp399:
	.loc	3 887 0
	ldr	r3, [sp, #8]
	cmp	r1, r3
.Ltmp400:
	.loc	3 0 0 is_stmt 0
	ldr	r3, [sp, #12]
	bhi	.LBB3_79
.Ltmp401:
	.loc	4 582 0 is_stmt 1
	ldr	r1, .LCPI3_8
.Ltmp402:
	.loc	3 672 0
	ldrh	r1, [r1, r2]
.Ltmp403:
	strb	r1, [r3, r0]
.Ltmp404:
	.loc	4 1215 0
	adds	r0, r3, r0
.Ltmp405:
	.loc	3 672 0
	lsrs	r1, r1, #8
	strb	r1, [r0, #1]
	movs	r0, #2
.Ltmp406:
.LBB3_48:
	.loc	3 0 0 is_stmt 0
	ldr	r6, [sp, #16]
.LBB3_49:
.Ltmp407:
	.loc	2 1806 0 is_stmt 1
	subs	r6, r6, r0
.Ltmp408:
.LBB3_50:
	.loc	1 229 0
	ldr	r0, [sp, #4]
	cmp	r0, #1
	bne	.LBB3_53
.Ltmp409:
	.loc	1 0 0 is_stmt 0
	ldr	r2, [sp, #8]
	.loc	1 230 0 is_stmt 1
	cmp	r6, r2
	bhs	.LBB3_68
.Ltmp410:
	movs	r0, #45
	ldr	r1, [sp, #12]
	strb	r0, [r1, r6]
	.loc	1 231 0
	subs	r6, r6, #1
.Ltmp411:
.LBB3_53:
	.loc	2 1787 0
	adds	r6, r6, #1
.Ltmp412:
.LBB3_54:
	.loc	1 235 0
	mov	r0, r6
	add	sp, #20
	pop	{r4, r5, r6, r7, pc}
.LBB3_55:
.Ltmp413:
	.loc	1 219 0
	cmp	r6, #35
	bhi	.LBB3_81
	.loc	1 137 0
	ldr	r0, [sp, #8]
	ldr	r2, [sp, #16]
	cmp	r2, r0
	bhs	.LBB3_82
	.loc	1 219 0
	ldr	r0, .LCPI3_4
	ldrb	r0, [r0, r6]
	.loc	1 137 0
	ldr	r1, [sp, #12]
	strb	r0, [r1, r2]
	mov	r6, r2
	ldr	r0, [sp]
	b	.LBB3_49
.LBB3_58:
	.loc	1 0 0 is_stmt 0
	movs	r1, #200
	bl	_ZN4core5slice20slice_index_len_fail17h3a657df3a06ab6caE
	.inst.n	0xdefe
.LBB3_59:
.Ltmp414:
	.loc	1 222 0 is_stmt 1
	ldr	r0, .LCPI3_5
	bl	_ZN4core9panicking5panic17hc432e1634db46879E
.Ltmp415:
	.inst.n	0xdefe
.Ltmp416:
.LBB3_60:
	.loc	1 223 0
	ldr	r0, .LCPI3_2
	movs	r2, #36
	bl	_ZN4core9panicking18panic_bounds_check17he1dc5c093ac62635E
	.inst.n	0xdefe
.Ltmp417:
.LBB3_61:
	ldr	r0, .LCPI3_3
	mov	r1, r6
.Ltmp418:
.LBB3_62:
	.loc	1 0 0 is_stmt 0
	ldr	r2, [sp, #8]
	bl	_ZN4core9panicking18panic_bounds_check17he1dc5c093ac62635E
	.inst.n	0xdefe
.LBB3_63:
	mov	r1, r6
	b	.LBB3_66
.LBB3_64:
	mov	r0, r6
	bl	_ZN4core5slice20slice_index_len_fail17h3a657df3a06ab6caE
	.inst.n	0xdefe
.LBB3_65:
.Ltmp419:
	.loc	3 886 0 is_stmt 1
	mov	r0, r5
	ldr	r1, [sp, #16]
.LBB3_66:
	.loc	3 0 0 is_stmt 0
	bl	_ZN4core5slice22slice_index_order_fail17h1ebe63c40336a21cE
	.inst.n	0xdefe
.LBB3_67:
.Ltmp420:
	.loc	3 888 0 is_stmt 1
	ldr	r0, [sp, #16]
	bl	_ZN4core5slice20slice_index_len_fail17h3a657df3a06ab6caE
.Ltmp421:
	.inst.n	0xdefe
.Ltmp422:
.LBB3_68:
	.loc	1 230 0
	ldr	r0, .LCPI3_14
	b	.LBB3_75
.Ltmp423:
.LBB3_69:
	.loc	1 0 0 is_stmt 0
	movs	r1, #200
.LBB3_70:
	mov	r0, r2
	bl	_ZN4core5slice20slice_index_len_fail17h3a657df3a06ab6caE
	.inst.n	0xdefe
.LBB3_71:
.Ltmp424:
	.loc	1 222 0 is_stmt 1
	ldr	r0, .LCPI3_6
	bl	_ZN4core9panicking5panic17hc432e1634db46879E
.Ltmp425:
	.inst.n	0xdefe
.Ltmp426:
.LBB3_72:
	.loc	1 213 0
	ldr	r0, .LCPI3_0
	b	.LBB3_74
.Ltmp427:
.LBB3_73:
	.loc	1 207 0
	ldr	r0, .LCPI3_15
.Ltmp428:
.LBB3_74:
	.loc	1 0 0 is_stmt 0
	movs	r2, #0
.Ltmp429:
.LBB3_75:
	mov	r1, r6
	bl	_ZN4core9panicking18panic_bounds_check17he1dc5c093ac62635E
	.inst.n	0xdefe
.LBB3_76:
.Ltmp430:
	.loc	3 886 0 is_stmt 1
	mov	r0, r6
	mov	r1, r2
	b	.LBB3_66
.Ltmp431:
.LBB3_77:
	.loc	3 888 0
	ldr	r0, [sp, #16]
.Ltmp432:
	.loc	3 0 0 is_stmt 0
	b	.LBB3_80
.Ltmp433:
.LBB3_78:
	.loc	1 130 0 is_stmt 1
	ldr	r0, .LCPI3_13
	mov	r1, r5
	b	.LBB3_62
.Ltmp434:
.LBB3_79:
	.loc	3 888 0
	mov	r0, r1
.Ltmp435:
.LBB3_80:
	.loc	3 0 0 is_stmt 0
	ldr	r1, [sp, #8]
	bl	_ZN4core5slice20slice_index_len_fail17h3a657df3a06ab6caE
	.inst.n	0xdefe
.LBB3_81:
	.loc	1 219 0 is_stmt 1
	ldr	r0, .LCPI3_11
	movs	r2, #36
	b	.LBB3_75
.LBB3_82:
	.loc	1 137 0
	ldr	r0, .LCPI3_12
	mov	r1, r2
	b	.LBB3_62
.Ltmp436:
	.p2align	2
	.loc	1 0 0 is_stmt 0
.LCPI3_0:
	.long	panic_bounds_check_loc.F
.LCPI3_1:
	.long	214748364
.LCPI3_2:
	.long	panic_bounds_check_loc.R
.LCPI3_3:
	.long	panic_bounds_check_loc.S
.LCPI3_4:
	.long	byte_str.3
.LCPI3_5:
	.long	panic_loc.Q
.LCPI3_6:
	.long	panic_loc.P
.LCPI3_7:
	.long	10000
.LCPI3_8:
	.long	byte_str.d
.LCPI3_9:
	.long	99999999
.LCPI3_10:
	.long	999
.LCPI3_11:
	.long	panic_bounds_check_loc.N
.LCPI3_12:
	.long	panic_bounds_check_loc.O
.LCPI3_13:
	.long	panic_bounds_check_loc.M
.LCPI3_14:
	.long	panic_bounds_check_loc.V
.LCPI3_15:
	.long	panic_bounds_check_loc.D
.Lfunc_end3:
	.size	_ZN49_$LT$i32$u20$as$u20$numtoa..NumToA$LT$i32$GT$$GT$6numtoa17h629c13f7b7ad4682E, .Lfunc_end3-_ZN49_$LT$i32$u20$as$u20$numtoa..NumToA$LT$i32$GT$$GT$6numtoa17h629c13f7b7ad4682E
	.cfi_endproc
	.cantunwind
	.fnend

	.section	".text._ZN49_$LT$i64$u20$as$u20$numtoa..NumToA$LT$i64$GT$$GT$6numtoa17hb2d271de439ceb60E","ax",%progbits
	.globl	_ZN49_$LT$i64$u20$as$u20$numtoa..NumToA$LT$i64$GT$$GT$6numtoa17hb2d271de439ceb60E
	.p2align	2
	.type	_ZN49_$LT$i64$u20$as$u20$numtoa..NumToA$LT$i64$GT$$GT$6numtoa17hb2d271de439ceb60E,%function
	.code	16
	.thumb_func
_ZN49_$LT$i64$u20$as$u20$numtoa..NumToA$LT$i64$GT$$GT$6numtoa17hb2d271de439ceb60E:
.Lfunc_begin4:
	.loc	1 186 0 is_stmt 1
	.fnstart
	.cfi_startproc
	.save	{r4, r5, r6, r7, lr}
	push	{r4, r5, r6, r7, lr}
.Lcfi28:
	.cfi_def_cfa_offset 20
.Lcfi29:
	.cfi_offset lr, -4
.Lcfi30:
	.cfi_offset r7, -8
.Lcfi31:
	.cfi_offset r6, -12
.Lcfi32:
	.cfi_offset r5, -16
.Lcfi33:
	.cfi_offset r4, -20
	.setfp	r7, sp, #12
	add	r7, sp, #12
.Lcfi34:
	.cfi_def_cfa r7, 8
	.pad	#36
	sub	sp, #36
	str	r3, [sp, #20]
	str	r2, [sp, #24]
.Ltmp437:
	.loc	1 222 0 prologue_end
	movs	r4, #1
	lsls	r5, r4, #31
	ldr	r2, [sp, #60]
.Ltmp438:
	.loc	1 198 0
	subs	r6, r2, #1
.Ltmp439:
	.loc	1 0 0 is_stmt 0
	ldr	r3, [sp, #56]
.Ltmp440:
	.loc	1 201 0 is_stmt 1
	str	r3, [sp, #32]
	cmp	r1, #0
	str	r6, [sp, #12]
	str	r5, [sp, #16]
	blt	.LBB4_3
.Ltmp441:
	.loc	1 0 0 is_stmt 0
	mov	r5, r0
	.loc	1 212 0 is_stmt 1
	mov	r3, r0
	mov	r6, r1
.Ltmp442:
	orrs	r3, r1
	movs	r0, #0
	cmp	r3, #0
	beq	.LBB4_6
	.loc	1 0 0 is_stmt 0
	str	r0, [sp, #8]
	mov	r0, r5
	b	.LBB4_9
.Ltmp443:
.LBB4_3:
	.loc	2 998 0 is_stmt 1
	mov	r6, r1
.Ltmp444:
	eors	r6, r5
	orrs	r6, r0
	mov	r3, r1
	movs	r1, #1
.Ltmp445:
	.loc	2 495 0
	str	r1, [sp, #8]
	cmp	r6, #0
	bne	.LBB4_8
.Ltmp446:
	.loc	1 207 0
	cmp	r2, #0
	bne	.LBB4_5
	b	.LBB4_107
.LBB4_5:
	movs	r1, #56
	ldr	r3, [sp, #32]
	ldr	r0, [sp, #12]
	strb	r1, [r3, r0]
	.loc	1 208 0
	subs	r5, r2, #2
.Ltmp447:
	.loc	1 0 0 is_stmt 0
	ldr	r6, .LCPI4_1
	ldr	r0, .LCPI4_2
	b	.LBB4_10
.Ltmp448:
.LBB4_6:
	.loc	1 213 0 is_stmt 1
	cmp	r2, #0
	bne	.LBB4_7
	b	.LBB4_104
.LBB4_7:
	movs	r0, #48
	ldr	r1, [sp, #32]
	ldr	r4, [sp, #12]
	strb	r0, [r1, r4]
	b	.LBB4_90
.LBB4_8:
.Ltmp449:
	.loc	2 1001 0
	movs	r1, #0
	subs	r0, r1, r0
	sbcs	r1, r3
	mov	r6, r1
.Ltmp450:
.LBB4_9:
	.loc	2 0 0 is_stmt 0
	ldr	r5, [sp, #12]
.LBB4_10:
	.loc	1 217 0 is_stmt 1
	movs	r1, #10
	ldr	r3, [sp, #24]
	eors	r1, r3
	ldr	r3, [sp, #20]
	orrs	r1, r3
	cmp	r1, #0
	str	r2, [sp, #28]
	bne	.LBB4_35
	.loc	1 219 0
	ldr	r1, .LCPI4_8
	movs	r2, #0
	str	r0, [sp, #20]
	cmp	r0, r1
	mov	r1, r4
	blo	.LBB4_13
	mov	r1, r2
.LBB4_13:
	cmp	r6, #0
	mov	r3, r4
	blt	.LBB4_15
	mov	r3, r2
.LBB4_15:
	cmp	r6, #0
	beq	.LBB4_17
	mov	r1, r3
.LBB4_17:
	.loc	1 0 0 is_stmt 0
	mvns	r0, r4
	.loc	1 219 0
	str	r0, [sp, #4]
	cmp	r1, #0
	beq	.LBB4_18
	b	.LBB4_42
.LBB4_18:
	.loc	1 0 0
	subs	r5, r5, #3
	mov	r1, r6
	ldr	r0, [sp, #20]
.LBB4_19:
	ldr	r2, .LCPI4_8
	movs	r4, #0
	str	r0, [sp, #20]
	str	r1, [sp, #24]
	mov	r3, r4
	bl	__aeabi_uldivmod
.Ltmp451:
	.loc	1 219 0
	uxth	r0, r2
.Ltmp452:
	.loc	1 219 0
	movs	r1, #100
	bl	__aeabi_uidivmod
	adds	r3, r5, #2
	movs	r2, #1
	cmp	r3, r5
	bhs	.LBB4_21
	.loc	1 0 0
	mov	r4, r2
.LBB4_21:
	.loc	1 219 0
	lsls	r6, r1, #1
	lsls	r0, r0, #1
.Ltmp453:
	.loc	3 885 0 is_stmt 1
	cmp	r4, #0
	beq	.LBB4_22
	b	.LBB4_98
.LBB4_22:
	.loc	3 887 0
	ldr	r1, [sp, #28]
	cmp	r3, r1
.Ltmp454:
	.loc	3 0 0 is_stmt 0
	bls	.LBB4_23
	b	.LBB4_96
.Ltmp455:
.LBB4_23:
	.loc	1 219 0 is_stmt 1
	uxth	r2, r0
.Ltmp456:
	adds	r0, r2, #2
.Ltmp457:
	.loc	3 875 0
	cmp	r0, #201
	blo	.LBB4_24
	b	.LBB4_91
.Ltmp458:
.LBB4_24:
	.loc	3 672 0
	ldr	r0, .LCPI4_9
	ldrh	r0, [r0, r2]
.Ltmp459:
	.loc	3 0 0 is_stmt 0
	ldr	r1, [sp, #32]
	.loc	3 672 0
	strb	r0, [r1, r5]
	adds	r4, r1, r5
	lsrs	r0, r0, #8
	strb	r0, [r4, #1]
.Ltmp460:
	.loc	3 885 0 is_stmt 1
	adds	r2, r5, #4
	cmp	r2, r3
	bhs	.LBB4_25
	b	.LBB4_100
.LBB4_25:
	.loc	3 0 0 is_stmt 0
	ldr	r1, [sp, #28]
	.loc	3 887 0 is_stmt 1
	cmp	r2, r1
.Ltmp461:
	.loc	3 0 0 is_stmt 0
	bls	.LBB4_26
	b	.LBB4_115
.Ltmp462:
.LBB4_26:
	.loc	1 219 0 is_stmt 1
	uxth	r2, r6
.Ltmp463:
	adds	r0, r2, #2
.Ltmp464:
	.loc	3 875 0
	cmp	r0, #201
	ldr	r1, [sp, #24]
	ldr	r3, [sp, #20]
	blo	.LBB4_27
	b	.LBB4_91
.Ltmp465:
.LBB4_27:
	.loc	3 672 0
	ldr	r0, .LCPI4_9
	ldrh	r0, [r0, r2]
	strb	r0, [r4, #2]
	lsrs	r0, r0, #8
	strb	r0, [r4, #3]
	ldr	r2, .LCPI4_8
	movs	r4, #0
	mov	r0, r3
	mov	r6, r3
	mov	r3, r4
	bl	__aeabi_uldivmod
	str	r0, [sp, #16]
	mov	r3, r1
.Ltmp466:
	.loc	1 219 0
	ldr	r0, .LCPI4_10
	movs	r1, #1
	cmp	r6, r0
	mov	r0, r1
	ldr	r6, [sp, #32]
.Ltmp467:
	.loc	1 0 0 is_stmt 0
	bhi	.LBB4_29
.Ltmp468:
	.loc	1 219 0
	mov	r0, r4
.LBB4_29:
	.loc	1 0 0
	ldr	r2, [sp, #24]
	.loc	1 219 0
	cmp	r2, #0
	bne	.LBB4_31
	mov	r1, r2
.LBB4_31:
	cmp	r2, #0
	mov	r4, r3
	beq	.LBB4_33
	mov	r0, r1
.LBB4_33:
	subs	r5, r5, #4
	cmp	r0, #0
.Ltmp469:
	.loc	1 0 0
	ldr	r3, [sp, #16]
	mov	r0, r3
	mov	r1, r4
	bne	.LBB4_19
	.loc	1 219 0
	adds	r5, r5, #3
	b	.LBB4_43
.LBB4_35:
	.loc	1 221 0 is_stmt 1
	mov	r2, r0
	mov	r1, r6
	orrs	r2, r1
	cmp	r2, #0
	bne	.LBB4_36
	b	.LBB4_85
.LBB4_36:
	.loc	1 0 0 is_stmt 0
	mov	r4, r5
	ldr	r6, [sp, #24]
	mov	r2, r6
	orrs	r2, r3
	.loc	1 221 0
	cmp	r2, #0
	bne	.LBB4_37
	b	.LBB4_103
.LBB4_37:
.Ltmp470:
	.loc	1 222 0 is_stmt 1
	ands	r6, r3
	adds	r6, #1
	bne	.LBB4_39
	.loc	1 0 0 is_stmt 0
	mov	r2, r1
	ldr	r5, [sp, #16]
	eors	r2, r5
	orrs	r2, r0
	cmp	r2, #0
	bne	.LBB4_39
	b	.LBB4_92
.LBB4_39:
	mov	r5, r0
	mov	r6, r1
	.loc	1 222 0
	ldr	r2, [sp, #24]
	bl	__aeabi_ldivmod
	.loc	1 223 0 is_stmt 1
	cmp	r2, #35
	bls	.LBB4_40
	b	.LBB4_93
.LBB4_40:
.Ltmp471:
	ldr	r0, [sp, #28]
	cmp	r4, r0
	blo	.LBB4_41
	b	.LBB4_94
.Ltmp472:
.LBB4_41:
	ldr	r0, .LCPI4_5
	ldrb	r0, [r0, r2]
	ldr	r1, [sp, #32]
	strb	r0, [r1, r4]
	.loc	1 225 0
	mov	r0, r5
	mov	r1, r6
	ldr	r6, [sp, #24]
	mov	r2, r6
	ldr	r5, [sp, #20]
	mov	r3, r5
	bl	__aeabi_ldivmod
	mov	r3, r5
.Ltmp473:
	.loc	1 221 0
	mov	r2, r0
	orrs	r2, r1
.Ltmp474:
	.loc	2 1806 0
	subs	r4, r4, #1
.Ltmp475:
	.loc	1 221 0
	cmp	r2, #0
	bne	.LBB4_37
	b	.LBB4_86
.Ltmp476:
.LBB4_42:
	.loc	1 0 0 is_stmt 0
	ldr	r3, [sp, #20]
	mov	r4, r6
	ldr	r6, [sp, #32]
.LBB4_43:
	.loc	1 219 0 is_stmt 1
	lsrs	r1, r3, #3
	movs	r0, #1
	movs	r2, #0
	cmp	r1, #124
	mov	r1, r0
	bhi	.LBB4_45
	mov	r1, r2
.LBB4_45:
	cmp	r4, #0
	bgt	.LBB4_47
	mov	r0, r2
.LBB4_47:
	cmp	r4, #0
	beq	.LBB4_49
	mov	r1, r0
.LBB4_49:
	cmp	r1, #0
	beq	.LBB4_58
	.loc	1 0 0 is_stmt 0
	movs	r2, #100
	mov	r0, r3
	movs	r3, #0
	mov	r1, r4
	bl	__aeabi_uldivmod
.Ltmp477:
	.loc	1 219 0
	subs	r1, r5, #1
.Ltmp478:
	.loc	1 0 0
	str	r5, [sp, #12]
	.loc	1 219 0
	subs	r3, r5, #3
.Ltmp479:
	.loc	3 885 0 is_stmt 1
	cmp	r1, r3
	bhs	.LBB4_51
	b	.LBB4_105
.Ltmp480:
.LBB4_51:
	.loc	3 887 0
	ldr	r4, [sp, #28]
	cmp	r1, r4
.Ltmp481:
	.loc	3 0 0 is_stmt 0
	bls	.LBB4_52
	b	.LBB4_106
.Ltmp482:
.LBB4_52:
	.loc	4 1215 0 is_stmt 1
	adds	r5, r6, r3
.Ltmp483:
	.loc	1 219 0
	lsls	r0, r0, #1
.Ltmp484:
	adds	r3, r0, #2
.Ltmp485:
	.loc	3 873 0
	mov	r4, r0
	adds	r4, #2
.Ltmp486:
	.loc	3 0 0 is_stmt 0
	bne	.LBB4_53
	b	.LBB4_109
.Ltmp487:
.LBB4_53:
	.loc	3 875 0 is_stmt 1
	cmp	r3, #201
	blo	.LBB4_54
	b	.LBB4_110
.LBB4_54:
.Ltmp488:
	.loc	4 582 0
	ldr	r4, .LCPI4_9
.Ltmp489:
	.loc	3 672 0
	ldrh	r0, [r4, r0]
	strb	r0, [r5]
	lsrs	r0, r0, #8
	strb	r0, [r5, #1]
.Ltmp490:
	.loc	1 219 0
	ldr	r0, [sp, #12]
	adds	r3, r0, #1
.Ltmp491:
	.loc	3 885 0
	cmp	r3, r1
	bhs	.LBB4_55
	b	.LBB4_111
.Ltmp492:
.LBB4_55:
	.loc	3 887 0
	ldr	r0, [sp, #28]
	cmp	r3, r0
.Ltmp493:
	.loc	3 0 0 is_stmt 0
	bls	.LBB4_56
	b	.LBB4_96
.Ltmp494:
.LBB4_56:
	.loc	1 219 0 is_stmt 1
	lsls	r2, r2, #1
.Ltmp495:
	adds	r0, r2, #2
.Ltmp496:
	.loc	3 875 0
	cmp	r0, #201
	bhs	.LBB4_91
.Ltmp497:
	.loc	3 672 0
	ldrh	r0, [r4, r2]
.Ltmp498:
	strb	r0, [r6, r1]
.Ltmp499:
	.loc	4 1215 0
	adds	r1, r6, r1
.Ltmp500:
	.loc	3 672 0
	lsrs	r0, r0, #8
	strb	r0, [r1, #1]
	movs	r0, #4
.Ltmp501:
	.loc	3 0 0 is_stmt 0
	ldr	r5, [sp, #12]
	b	.LBB4_84
.Ltmp502:
.LBB4_58:
	.loc	1 219 0 is_stmt 1
	movs	r0, #1
	movs	r2, #0
	cmp	r3, #99
	mov	r1, r0
	bhi	.LBB4_60
	mov	r1, r2
.LBB4_60:
	cmp	r4, #0
	bgt	.LBB4_62
	mov	r0, r2
.LBB4_62:
	cmp	r4, #0
	beq	.LBB4_64
	mov	r1, r0
.LBB4_64:
	cmp	r1, #0
	str	r3, [sp, #16]
	beq	.LBB4_70
.Ltmp503:
	.loc	1 219 0 is_stmt 0
	uxth	r0, r3
	movs	r1, #10
	bl	__aeabi_uidiv
	lsls	r2, r0, #1
	subs	r0, r5, #2
.Ltmp504:
	.loc	3 885 0 is_stmt 1
	cmp	r5, #1
	bhi	.LBB4_66
	b	.LBB4_112
.Ltmp505:
.LBB4_66:
	.loc	3 0 0 is_stmt 0
	ldr	r1, [sp, #28]
	.loc	3 887 0 is_stmt 1
	cmp	r5, r1
.Ltmp506:
	.loc	3 0 0 is_stmt 0
	bls	.LBB4_67
	b	.LBB4_113
.Ltmp507:
.LBB4_67:
	.loc	1 219 0 is_stmt 1
	uxth	r3, r2
.Ltmp508:
	adds	r2, r3, #2
.Ltmp509:
	.loc	3 875 0
	cmp	r2, #201
	blo	.LBB4_68
	b	.LBB4_114
.Ltmp510:
.LBB4_68:
	.loc	4 582 0
	ldr	r2, .LCPI4_9
.Ltmp511:
	.loc	3 672 0
	ldrh	r2, [r2, r3]
.Ltmp512:
	strb	r2, [r6, r0]
.Ltmp513:
	.loc	4 1215 0
	adds	r0, r6, r0
.Ltmp514:
	.loc	3 672 0
	lsrs	r2, r2, #8
	strb	r2, [r0, #1]
.Ltmp515:
	.loc	1 130 0
	cmp	r5, r1
.Ltmp516:
	.loc	1 0 0 is_stmt 0
	blo	.LBB4_69
	b	.LBB4_116
.Ltmp517:
.LBB4_69:
	movs	r2, #10
	movs	r3, #0
	ldr	r0, [sp, #16]
	mov	r1, r4
	bl	__aeabi_uldivmod
	.loc	1 219 0 is_stmt 1
	ldr	r0, .LCPI4_5
	ldrb	r0, [r0, r2]
	.loc	1 130 0
	strb	r0, [r6, r5]
	movs	r0, #3
	b	.LBB4_84
.Ltmp518:
.LBB4_70:
	.loc	1 219 0
	movs	r0, #1
	movs	r2, #0
	cmp	r3, #9
	mov	r3, r0
	bhi	.LBB4_72
	mov	r3, r2
.LBB4_72:
	cmp	r4, #0
	ldr	r1, [sp, #28]
	bgt	.LBB4_74
	mov	r0, r2
.LBB4_74:
	cmp	r4, #0
	beq	.LBB4_76
	mov	r3, r0
.LBB4_76:
	cmp	r3, #0
	beq	.LBB4_81
	adds	r2, r5, #1
.Ltmp519:
	subs	r0, r5, #1
.Ltmp520:
	.loc	3 885 0
	cmp	r2, r0
	ldr	r4, [sp, #16]
	blo	.LBB4_101
.Ltmp521:
	.loc	3 887 0
	cmp	r2, r1
.Ltmp522:
	.loc	3 0 0 is_stmt 0
	bhi	.LBB4_115
.Ltmp523:
	.loc	1 219 0 is_stmt 1
	lsls	r1, r4, #1
.Ltmp524:
	.loc	3 873 0
	mov	r2, r1
	adds	r2, #2
	beq	.LBB4_117
.Ltmp525:
	.loc	4 582 0
	ldr	r2, .LCPI4_9
.Ltmp526:
	.loc	3 672 0
	ldrh	r1, [r2, r1]
.Ltmp527:
	strb	r1, [r6, r0]
.Ltmp528:
	.loc	4 1215 0
	adds	r0, r6, r0
.Ltmp529:
	.loc	3 672 0
	lsrs	r1, r1, #8
	strb	r1, [r0, #1]
	movs	r0, #2
.Ltmp530:
	.loc	3 0 0 is_stmt 0
	b	.LBB4_84
.Ltmp531:
.LBB4_81:
	ldr	r3, [sp, #16]
	.loc	1 219 0 is_stmt 1
	cmp	r3, #35
	bhi	.LBB4_118
	.loc	1 137 0
	cmp	r5, r1
	bhs	.LBB4_119
	.loc	1 219 0
	ldr	r0, .LCPI4_5
	ldrb	r0, [r0, r3]
	.loc	1 137 0
	strb	r0, [r6, r5]
	movs	r0, #1
.LBB4_84:
.Ltmp532:
	.loc	2 1806 0
	subs	r5, r5, r0
.Ltmp533:
.LBB4_85:
	.loc	2 0 0 is_stmt 0
	mov	r4, r5
.Ltmp534:
.LBB4_86:
	.loc	1 229 0 is_stmt 1
	ldr	r0, [sp, #8]
	cmp	r0, #1
	bne	.LBB4_89
.Ltmp535:
	.loc	1 0 0 is_stmt 0
	ldr	r2, [sp, #28]
	.loc	1 230 0 is_stmt 1
	cmp	r4, r2
	bhs	.LBB4_102
.Ltmp536:
	movs	r0, #45
	ldr	r1, [sp, #32]
	strb	r0, [r1, r4]
	.loc	1 231 0
	subs	r4, r4, #1
.Ltmp537:
.LBB4_89:
	.loc	2 1787 0
	adds	r4, r4, #1
.Ltmp538:
.LBB4_90:
	.loc	1 235 0
	mov	r0, r4
	add	sp, #36
	pop	{r4, r5, r6, r7, pc}
.LBB4_91:
	.loc	1 0 0 is_stmt 0
	movs	r1, #200
	bl	_ZN4core5slice20slice_index_len_fail17h3a657df3a06ab6caE
	.inst.n	0xdefe
.LBB4_92:
.Ltmp539:
	.loc	1 222 0 is_stmt 1
	ldr	r0, .LCPI4_6
	bl	_ZN4core9panicking5panic17hc432e1634db46879E
	.inst.n	0xdefe
.LBB4_93:
	.loc	1 223 0
	ldr	r0, .LCPI4_3
	movs	r3, #36
	mov	r1, r2
	mov	r2, r3
	bl	_ZN4core9panicking18panic_bounds_check17he1dc5c093ac62635E
	.inst.n	0xdefe
.LBB4_94:
	ldr	r0, .LCPI4_4
	mov	r1, r4
.Ltmp540:
.LBB4_95:
	.loc	1 0 0 is_stmt 0
	ldr	r2, [sp, #28]
	bl	_ZN4core9panicking18panic_bounds_check17he1dc5c093ac62635E
	.inst.n	0xdefe
.LBB4_96:
	mov	r0, r3
.LBB4_97:
	ldr	r1, [sp, #28]
	bl	_ZN4core5slice20slice_index_len_fail17h3a657df3a06ab6caE
	.inst.n	0xdefe
.LBB4_98:
.Ltmp541:
	.loc	3 886 0 is_stmt 1
	mov	r0, r5
.Ltmp542:
.LBB4_99:
	.loc	3 0 0 is_stmt 0
	mov	r1, r3
	bl	_ZN4core5slice22slice_index_order_fail17h1ebe63c40336a21cE
	.inst.n	0xdefe
.LBB4_100:
.Ltmp543:
	.loc	3 886 0
	mov	r0, r3
.Ltmp544:
.LBB4_101:
	.loc	3 0 0
	mov	r1, r2
	bl	_ZN4core5slice22slice_index_order_fail17h1ebe63c40336a21cE
	.inst.n	0xdefe
.LBB4_102:
.Ltmp545:
	.loc	1 230 0 is_stmt 1
	ldr	r0, .LCPI4_14
	mov	r1, r4
	bl	_ZN4core9panicking18panic_bounds_check17he1dc5c093ac62635E
	.inst.n	0xdefe
.Ltmp546:
.LBB4_103:
	.loc	1 222 0
	ldr	r0, .LCPI4_7
	bl	_ZN4core9panicking5panic17hc432e1634db46879E
	.inst.n	0xdefe
.Ltmp547:
.LBB4_104:
	.loc	1 213 0
	ldr	r0, .LCPI4_0
	b	.LBB4_108
.LBB4_105:
.Ltmp548:
	.loc	3 886 0
	mov	r0, r3
	bl	_ZN4core5slice22slice_index_order_fail17h1ebe63c40336a21cE
.Ltmp549:
	.inst.n	0xdefe
.LBB4_106:
.Ltmp550:
	.loc	3 888 0
	mov	r0, r1
	b	.LBB4_97
.Ltmp551:
.LBB4_107:
	.loc	1 207 0
	ldr	r0, .LCPI4_15
.Ltmp552:
.LBB4_108:
	.loc	1 0 0 is_stmt 0
	movs	r2, #0
	ldr	r1, [sp, #12]
	bl	_ZN4core9panicking18panic_bounds_check17he1dc5c093ac62635E
	.inst.n	0xdefe
.LBB4_109:
.Ltmp553:
	.loc	3 874 0 is_stmt 1
	ldr	r0, [sp, #4]
	b	.LBB4_99
.LBB4_110:
	.loc	3 876 0
	movs	r1, #200
	mov	r0, r3
	bl	_ZN4core5slice20slice_index_len_fail17h3a657df3a06ab6caE
	.inst.n	0xdefe
.Ltmp554:
.LBB4_111:
	.loc	3 886 0
	mov	r0, r1
	b	.LBB4_99
.Ltmp555:
.LBB4_112:
	.loc	3 886 0 is_stmt 0
	mov	r1, r5
	bl	_ZN4core5slice22slice_index_order_fail17h1ebe63c40336a21cE
.Ltmp556:
	.inst.n	0xdefe
.LBB4_113:
.Ltmp557:
	.loc	3 888 0 is_stmt 1
	mov	r0, r5
.Ltmp558:
	bl	_ZN4core5slice20slice_index_len_fail17h3a657df3a06ab6caE
	.inst.n	0xdefe
.Ltmp559:
.LBB4_114:
	.loc	3 876 0
	movs	r1, #200
.Ltmp560:
.LBB4_115:
	.loc	3 0 0 is_stmt 0
	mov	r0, r2
	bl	_ZN4core5slice20slice_index_len_fail17h3a657df3a06ab6caE
	.inst.n	0xdefe
.LBB4_116:
	.loc	1 130 0 is_stmt 1
	ldr	r0, .LCPI4_13
	b	.LBB4_120
.Ltmp561:
.LBB4_117:
	.loc	3 874 0
	movs	r1, #0
	ldr	r0, [sp, #4]
	bl	_ZN4core5slice22slice_index_order_fail17h1ebe63c40336a21cE
	.inst.n	0xdefe
.Ltmp562:
.LBB4_118:
	.loc	1 219 0
	ldr	r0, .LCPI4_11
	movs	r2, #36
	mov	r1, r3
	bl	_ZN4core9panicking18panic_bounds_check17he1dc5c093ac62635E
	.inst.n	0xdefe
.LBB4_119:
	.loc	1 137 0
	ldr	r0, .LCPI4_12
.Ltmp563:
.LBB4_120:
	.loc	1 0 0 is_stmt 0
	mov	r1, r5
	b	.LBB4_95
	.p2align	2
.LCPI4_0:
	.long	panic_bounds_check_loc.F
.LCPI4_1:
	.long	214748364
.LCPI4_2:
	.long	3435973836
.LCPI4_3:
	.long	panic_bounds_check_loc.R
.LCPI4_4:
	.long	panic_bounds_check_loc.S
.LCPI4_5:
	.long	byte_str.3
.LCPI4_6:
	.long	panic_loc.Q
.LCPI4_7:
	.long	panic_loc.P
.LCPI4_8:
	.long	10000
.LCPI4_9:
	.long	byte_str.d
.LCPI4_10:
	.long	99999999
.LCPI4_11:
	.long	panic_bounds_check_loc.N
.LCPI4_12:
	.long	panic_bounds_check_loc.O
.LCPI4_13:
	.long	panic_bounds_check_loc.M
.LCPI4_14:
	.long	panic_bounds_check_loc.V
.LCPI4_15:
	.long	panic_bounds_check_loc.D
.Lfunc_end4:
	.size	_ZN49_$LT$i64$u20$as$u20$numtoa..NumToA$LT$i64$GT$$GT$6numtoa17hb2d271de439ceb60E, .Lfunc_end4-_ZN49_$LT$i64$u20$as$u20$numtoa..NumToA$LT$i64$GT$$GT$6numtoa17hb2d271de439ceb60E
	.cfi_endproc
	.cantunwind
	.fnend

	.section	".text._ZN53_$LT$isize$u20$as$u20$numtoa..NumToA$LT$isize$GT$$GT$6numtoa17h66963fdb3fcc7695E","ax",%progbits
	.globl	_ZN53_$LT$isize$u20$as$u20$numtoa..NumToA$LT$isize$GT$$GT$6numtoa17h66963fdb3fcc7695E
	.p2align	2
	.type	_ZN53_$LT$isize$u20$as$u20$numtoa..NumToA$LT$isize$GT$$GT$6numtoa17h66963fdb3fcc7695E,%function
	.code	16
	.thumb_func
_ZN53_$LT$isize$u20$as$u20$numtoa..NumToA$LT$isize$GT$$GT$6numtoa17h66963fdb3fcc7695E:
.Lfunc_begin5:
	.loc	1 186 0 is_stmt 1
	.fnstart
	.cfi_startproc
	.save	{r4, r5, r6, r7, lr}
	push	{r4, r5, r6, r7, lr}
.Lcfi35:
	.cfi_def_cfa_offset 20
.Lcfi36:
	.cfi_offset lr, -4
.Lcfi37:
	.cfi_offset r7, -8
.Lcfi38:
	.cfi_offset r6, -12
.Lcfi39:
	.cfi_offset r5, -16
.Lcfi40:
	.cfi_offset r4, -20
	.setfp	r7, sp, #12
	add	r7, sp, #12
.Lcfi41:
	.cfi_def_cfa r7, 8
	.pad	#20
	sub	sp, #20
	str	r2, [sp, #12]
.Ltmp564:
	mov	r5, r1
.Ltmp565:
	mov	r4, r0
.Ltmp566:
	.loc	1 198 0 prologue_end
	subs	r6, r3, #1
.Ltmp567:
	.loc	1 0 0 is_stmt 0
	movs	r2, #1
.Ltmp568:
	lsls	r1, r2, #31
.Ltmp569:
	.loc	1 201 0 is_stmt 1
	cmp	r4, #0
	str	r1, [sp, #16]
	blt	.LBB5_4
.Ltmp570:
	.loc	1 0 0 is_stmt 0
	movs	r1, #0
	.loc	1 212 0 is_stmt 1
	cmp	r4, #0
	bne	.LBB5_9
.Ltmp571:
	.loc	1 213 0
	cmp	r3, #0
	bne	.LBB5_3
	b	.LBB5_72
.Ltmp572:
.LBB5_3:
	movs	r0, #48
	ldr	r1, [sp, #12]
	strb	r0, [r1, r6]
	b	.LBB5_54
.Ltmp573:
.LBB5_4:
	.loc	1 0 0 is_stmt 0
	movs	r0, #1
.Ltmp574:
	str	r0, [sp, #4]
.Ltmp575:
	.loc	2 495 0 is_stmt 1
	cmp	r4, r1
	bne	.LBB5_7
.Ltmp576:
	.loc	2 0 0 is_stmt 0
	str	r2, [sp]
.Ltmp577:
	.loc	1 207 0 is_stmt 1
	cmp	r3, #0
	bne	.LBB5_6
	b	.LBB5_73
.Ltmp578:
.LBB5_6:
	movs	r0, #56
	ldr	r1, [sp, #12]
	strb	r0, [r1, r6]
	.loc	1 208 0
	subs	r6, r3, #2
.Ltmp579:
	.loc	1 0 0 is_stmt 0
	ldr	r4, .LCPI5_1
.Ltmp580:
	ldr	r2, [sp]
	b	.LBB5_8
.Ltmp581:
.LBB5_7:
	.loc	2 1001 0 is_stmt 1
	rsbs	r4, r4, #0
.Ltmp582:
.LBB5_8:
	.loc	2 0 0 is_stmt 0
	ldr	r1, [sp, #4]
.Ltmp583:
.LBB5_9:
	.loc	1 217 0 is_stmt 1
	cmp	r5, #10
	str	r3, [sp, #8]
	str	r1, [sp, #4]
	bne	.LBB5_22
.Ltmp584:
	.loc	1 0 0 is_stmt 0
	str	r2, [sp]
	.loc	1 219 0 is_stmt 1
	ldr	r0, .LCPI5_7
	cmp	r4, r0
	blt	.LBB5_29
.Ltmp585:
	.loc	1 0 0 is_stmt 0
	subs	r5, r6, #3
.Ltmp586:
.LBB5_12:
	adds	r1, r5, #2
	movs	r6, #0
	movs	r0, #1
	str	r1, [sp, #16]
	cmp	r1, r5
	bhs	.LBB5_14
.Ltmp587:
	mov	r6, r0
.Ltmp588:
.LBB5_14:
	ldr	r1, .LCPI5_7
	mov	r0, r4
	bl	__aeabi_uidivmod
.Ltmp589:
	.loc	1 219 0
	movs	r2, #100
	mov	r0, r1
	mov	r1, r2
	bl	__aeabi_uidivmod
	lsls	r2, r1, #1
	lsls	r0, r0, #1
.Ltmp590:
	.loc	3 885 0 is_stmt 1
	cmp	r6, #0
	beq	.LBB5_15
	b	.LBB5_65
.LBB5_15:
	.loc	3 0 0 is_stmt 0
	ldr	r1, [sp, #8]
	.loc	3 887 0 is_stmt 1
	ldr	r3, [sp, #16]
	cmp	r3, r1
.Ltmp591:
	.loc	3 0 0 is_stmt 0
	ldr	r6, [sp, #12]
	bls	.LBB5_16
	b	.LBB5_67
.Ltmp592:
.LBB5_16:
	.loc	1 219 0 is_stmt 1
	uxth	r3, r0
.Ltmp593:
	adds	r0, r3, #2
.Ltmp594:
	.loc	3 875 0
	cmp	r0, #201
	blo	.LBB5_17
	b	.LBB5_58
.Ltmp595:
.LBB5_17:
	.loc	3 672 0
	ldr	r0, .LCPI5_8
	ldrh	r0, [r0, r3]
.Ltmp596:
	strb	r0, [r6, r5]
	adds	r3, r6, r5
	lsrs	r0, r0, #8
	strb	r0, [r3, #1]
.Ltmp597:
	.loc	3 885 0
	adds	r6, r5, #4
	ldr	r0, [sp, #16]
	cmp	r6, r0
	bhs	.LBB5_18
	b	.LBB5_63
.Ltmp598:
.LBB5_18:
	.loc	3 887 0
	cmp	r6, r1
.Ltmp599:
	.loc	3 0 0 is_stmt 0
	bls	.LBB5_19
	b	.LBB5_64
.Ltmp600:
.LBB5_19:
	.loc	1 219 0 is_stmt 1
	uxth	r1, r2
.Ltmp601:
	adds	r0, r1, #2
.Ltmp602:
	.loc	3 875 0
	cmp	r0, #201
	blo	.LBB5_20
	b	.LBB5_58
.Ltmp603:
.LBB5_20:
	.loc	3 672 0
	ldr	r0, .LCPI5_8
	ldrh	r0, [r0, r1]
	strb	r0, [r3, #2]
	lsrs	r0, r0, #8
	strb	r0, [r3, #3]
	ldr	r1, .LCPI5_7
	mov	r0, r4
	bl	__aeabi_uidiv
.Ltmp604:
	.loc	3 0 0 is_stmt 0
	mov	r6, r0
.Ltmp605:
	.loc	1 219 0 is_stmt 1
	subs	r5, r5, #4
	ldr	r0, .LCPI5_9
	cmp	r4, r0
.Ltmp606:
	.loc	1 0 0 is_stmt 0
	mov	r4, r6
	bhi	.LBB5_12
.Ltmp607:
	.loc	1 219 0
	adds	r0, r5, #3
	str	r0, [sp, #16]
	b	.LBB5_30
.Ltmp608:
.LBB5_22:
	.loc	1 221 0 is_stmt 1
	cmp	r4, #0
.Ltmp609:
	.loc	1 0 0 is_stmt 0
	bne	.LBB5_23
	b	.LBB5_50
.Ltmp610:
.LBB5_23:
	.loc	1 221 0
	cmp	r5, #0
	bne	.LBB5_24
	b	.LBB5_71
.Ltmp611:
.LBB5_24:
	.loc	1 222 0 is_stmt 1
	mov	r0, r5
	adds	r0, #1
	bne	.LBB5_26
.Ltmp612:
	.loc	1 0 0 is_stmt 0
	ldr	r0, [sp, #16]
	cmp	r4, r0
	bne	.LBB5_26
	b	.LBB5_59
.Ltmp613:
.LBB5_26:
	.loc	1 222 0
	mov	r0, r4
	mov	r1, r5
	bl	__aeabi_idivmod
.Ltmp614:
	.loc	1 223 0 is_stmt 1
	cmp	r1, #35
	bls	.LBB5_27
	b	.LBB5_60
.Ltmp615:
.LBB5_27:
	ldr	r0, [sp, #8]
	cmp	r6, r0
	blo	.LBB5_28
	b	.LBB5_61
.Ltmp616:
.LBB5_28:
	ldr	r0, .LCPI5_4
	ldrb	r0, [r0, r1]
	ldr	r1, [sp, #12]
	strb	r0, [r1, r6]
	.loc	1 225 0
	mov	r0, r4
	mov	r1, r5
	bl	__aeabi_idiv
	mov	r4, r0
.Ltmp617:
	.loc	2 1806 0
	subs	r6, r6, #1
.Ltmp618:
	.loc	1 221 0
	cmp	r4, #0
	bne	.LBB5_24
	b	.LBB5_50
.Ltmp619:
.LBB5_29:
	.loc	1 0 0 is_stmt 0
	str	r6, [sp, #16]
	mov	r6, r4
.Ltmp620:
.LBB5_30:
	.loc	1 219 0 is_stmt 1
	ldr	r0, .LCPI5_10
	cmp	r6, r0
	ble	.LBB5_38
	.loc	1 0 0 is_stmt 0
	movs	r1, #100
	mov	r0, r6
	bl	__aeabi_uidivmod
.Ltmp621:
	.loc	1 219 0
	lsls	r3, r1, #1
.Ltmp622:
	lsls	r5, r0, #1
.Ltmp623:
	.loc	1 0 0
	ldr	r0, [sp, #16]
	.loc	1 219 0
	subs	r6, r0, #1
.Ltmp624:
	subs	r0, r0, #3
.Ltmp625:
	.loc	3 885 0 is_stmt 1
	cmp	r6, r0
	bhs	.LBB5_32
	b	.LBB5_63
.Ltmp626:
.LBB5_32:
	.loc	3 0 0 is_stmt 0
	ldr	r1, [sp, #8]
	.loc	3 887 0 is_stmt 1
	cmp	r6, r1
.Ltmp627:
	.loc	3 0 0 is_stmt 0
	bls	.LBB5_33
	b	.LBB5_64
.Ltmp628:
.LBB5_33:
	.loc	1 219 0 is_stmt 1
	adds	r2, r5, #2
.Ltmp629:
	.loc	3 875 0
	cmp	r2, #201
	blo	.LBB5_34
	b	.LBB5_69
.Ltmp630:
.LBB5_34:
	.loc	4 582 0
	ldr	r4, .LCPI5_8
.Ltmp631:
	.loc	3 672 0
	ldrh	r2, [r4, r5]
.Ltmp632:
	.loc	3 0 0 is_stmt 0
	ldr	r5, [sp, #12]
.Ltmp633:
	.loc	3 672 0
	strb	r2, [r5, r0]
.Ltmp634:
	.loc	4 1215 0 is_stmt 1
	adds	r0, r5, r0
.Ltmp635:
	.loc	3 672 0
	lsrs	r2, r2, #8
	strb	r2, [r0, #1]
.Ltmp636:
	.loc	1 219 0
	ldr	r0, [sp, #16]
	adds	r2, r0, #1
.Ltmp637:
	.loc	3 885 0
	cmp	r2, r6
.Ltmp638:
	.loc	3 0 0 is_stmt 0
	bhs	.LBB5_35
	b	.LBB5_76
.Ltmp639:
.LBB5_35:
	.loc	3 887 0 is_stmt 1
	cmp	r2, r1
.Ltmp640:
	.loc	3 0 0 is_stmt 0
	bls	.LBB5_36
	b	.LBB5_70
.Ltmp641:
.LBB5_36:
	.loc	1 219 0 is_stmt 1
	adds	r0, r3, #2
.Ltmp642:
	.loc	3 875 0
	cmp	r0, #201
	bhs	.LBB5_58
.Ltmp643:
	.loc	3 672 0
	ldrh	r0, [r4, r3]
.Ltmp644:
	.loc	3 0 0 is_stmt 0
	ldr	r1, [sp, #12]
	.loc	3 672 0
	strb	r0, [r1, r6]
.Ltmp645:
	.loc	4 1215 0 is_stmt 1
	adds	r1, r1, r6
.Ltmp646:
	.loc	3 672 0
	lsrs	r0, r0, #8
	strb	r0, [r1, #1]
	movs	r0, #4
	b	.LBB5_48
.Ltmp647:
.LBB5_38:
	.loc	1 219 0
	cmp	r6, #99
	ble	.LBB5_44
.Ltmp648:
	.loc	1 219 0 is_stmt 0
	uxth	r0, r6
	movs	r1, #10
	bl	__aeabi_uidiv
	lsls	r3, r0, #1
	ldr	r1, [sp, #16]
	subs	r0, r1, #2
.Ltmp649:
	.loc	3 885 0 is_stmt 1
	cmp	r1, #1
	bls	.LBB5_66
.Ltmp650:
	.loc	3 887 0
	ldr	r2, [sp, #8]
	cmp	r1, r2
.Ltmp651:
	.loc	3 0 0 is_stmt 0
	bls	.LBB5_41
	b	.LBB5_77
.Ltmp652:
.LBB5_41:
	.loc	1 219 0 is_stmt 1
	uxth	r1, r3
.Ltmp653:
	adds	r2, r1, #2
.Ltmp654:
	.loc	3 875 0
	cmp	r2, #201
	bhs	.LBB5_69
.Ltmp655:
	.loc	4 582 0
	ldr	r2, .LCPI5_8
.Ltmp656:
	.loc	3 672 0
	ldrh	r1, [r2, r1]
.Ltmp657:
	.loc	3 0 0 is_stmt 0
	ldr	r4, [sp, #12]
	.loc	3 672 0
	strb	r1, [r4, r0]
.Ltmp658:
	.loc	4 1215 0 is_stmt 1
	adds	r0, r4, r0
.Ltmp659:
	.loc	3 672 0
	lsrs	r1, r1, #8
	strb	r1, [r0, #1]
.Ltmp660:
	.loc	1 130 0
	ldr	r0, [sp, #8]
	ldr	r5, [sp, #16]
	cmp	r5, r0
.Ltmp661:
	bhs	.LBB5_78
.Ltmp662:
	.loc	1 0 0 is_stmt 0
	movs	r1, #10
	mov	r0, r6
	bl	__aeabi_uidivmod
	.loc	1 219 0 is_stmt 1
	ldr	r0, .LCPI5_4
	ldrb	r0, [r0, r1]
	.loc	1 130 0
	strb	r0, [r4, r5]
	movs	r0, #3
	mov	r6, r5
	b	.LBB5_49
.Ltmp663:
.LBB5_44:
	.loc	1 219 0
	cmp	r6, #9
	ble	.LBB5_55
	.loc	1 0 0 is_stmt 0
	ldr	r0, [sp, #16]
	.loc	1 219 0
	adds	r1, r0, #1
.Ltmp664:
	subs	r0, r0, #1
.Ltmp665:
	lsls	r2, r6, #1
.Ltmp666:
	.loc	3 885 0 is_stmt 1
	cmp	r1, r0
	blo	.LBB5_66
.Ltmp667:
	.loc	3 887 0
	ldr	r3, [sp, #8]
	cmp	r1, r3
.Ltmp668:
	.loc	3 0 0 is_stmt 0
	ldr	r3, [sp, #12]
	bhi	.LBB5_79
.Ltmp669:
	.loc	4 582 0 is_stmt 1
	ldr	r1, .LCPI5_8
.Ltmp670:
	.loc	3 672 0
	ldrh	r1, [r1, r2]
.Ltmp671:
	strb	r1, [r3, r0]
.Ltmp672:
	.loc	4 1215 0
	adds	r0, r3, r0
.Ltmp673:
	.loc	3 672 0
	lsrs	r1, r1, #8
	strb	r1, [r0, #1]
	movs	r0, #2
.Ltmp674:
.LBB5_48:
	.loc	3 0 0 is_stmt 0
	ldr	r6, [sp, #16]
.LBB5_49:
.Ltmp675:
	.loc	2 1806 0 is_stmt 1
	subs	r6, r6, r0
.Ltmp676:
.LBB5_50:
	.loc	1 229 0
	ldr	r0, [sp, #4]
	cmp	r0, #1
	bne	.LBB5_53
.Ltmp677:
	.loc	1 0 0 is_stmt 0
	ldr	r2, [sp, #8]
	.loc	1 230 0 is_stmt 1
	cmp	r6, r2
	bhs	.LBB5_68
.Ltmp678:
	movs	r0, #45
	ldr	r1, [sp, #12]
	strb	r0, [r1, r6]
	.loc	1 231 0
	subs	r6, r6, #1
.Ltmp679:
.LBB5_53:
	.loc	2 1787 0
	adds	r6, r6, #1
.Ltmp680:
.LBB5_54:
	.loc	1 235 0
	mov	r0, r6
	add	sp, #20
	pop	{r4, r5, r6, r7, pc}
.LBB5_55:
.Ltmp681:
	.loc	1 219 0
	cmp	r6, #35
	bhi	.LBB5_81
	.loc	1 137 0
	ldr	r0, [sp, #8]
	ldr	r2, [sp, #16]
	cmp	r2, r0
	bhs	.LBB5_82
	.loc	1 219 0
	ldr	r0, .LCPI5_4
	ldrb	r0, [r0, r6]
	.loc	1 137 0
	ldr	r1, [sp, #12]
	strb	r0, [r1, r2]
	mov	r6, r2
	ldr	r0, [sp]
	b	.LBB5_49
.LBB5_58:
	.loc	1 0 0 is_stmt 0
	movs	r1, #200
	bl	_ZN4core5slice20slice_index_len_fail17h3a657df3a06ab6caE
	.inst.n	0xdefe
.LBB5_59:
.Ltmp682:
	.loc	1 222 0 is_stmt 1
	ldr	r0, .LCPI5_5
	bl	_ZN4core9panicking5panic17hc432e1634db46879E
.Ltmp683:
	.inst.n	0xdefe
.Ltmp684:
.LBB5_60:
	.loc	1 223 0
	ldr	r0, .LCPI5_2
	movs	r2, #36
	bl	_ZN4core9panicking18panic_bounds_check17he1dc5c093ac62635E
	.inst.n	0xdefe
.Ltmp685:
.LBB5_61:
	ldr	r0, .LCPI5_3
	mov	r1, r6
.Ltmp686:
.LBB5_62:
	.loc	1 0 0 is_stmt 0
	ldr	r2, [sp, #8]
	bl	_ZN4core9panicking18panic_bounds_check17he1dc5c093ac62635E
	.inst.n	0xdefe
.LBB5_63:
	mov	r1, r6
	b	.LBB5_66
.LBB5_64:
	mov	r0, r6
	bl	_ZN4core5slice20slice_index_len_fail17h3a657df3a06ab6caE
	.inst.n	0xdefe
.LBB5_65:
.Ltmp687:
	.loc	3 886 0 is_stmt 1
	mov	r0, r5
	ldr	r1, [sp, #16]
.LBB5_66:
	.loc	3 0 0 is_stmt 0
	bl	_ZN4core5slice22slice_index_order_fail17h1ebe63c40336a21cE
	.inst.n	0xdefe
.LBB5_67:
.Ltmp688:
	.loc	3 888 0 is_stmt 1
	ldr	r0, [sp, #16]
	bl	_ZN4core5slice20slice_index_len_fail17h3a657df3a06ab6caE
.Ltmp689:
	.inst.n	0xdefe
.Ltmp690:
.LBB5_68:
	.loc	1 230 0
	ldr	r0, .LCPI5_14
	b	.LBB5_75
.Ltmp691:
.LBB5_69:
	.loc	1 0 0 is_stmt 0
	movs	r1, #200
.LBB5_70:
	mov	r0, r2
	bl	_ZN4core5slice20slice_index_len_fail17h3a657df3a06ab6caE
	.inst.n	0xdefe
.LBB5_71:
.Ltmp692:
	.loc	1 222 0 is_stmt 1
	ldr	r0, .LCPI5_6
	bl	_ZN4core9panicking5panic17hc432e1634db46879E
.Ltmp693:
	.inst.n	0xdefe
.Ltmp694:
.LBB5_72:
	.loc	1 213 0
	ldr	r0, .LCPI5_0
	b	.LBB5_74
.Ltmp695:
.LBB5_73:
	.loc	1 207 0
	ldr	r0, .LCPI5_15
.Ltmp696:
.LBB5_74:
	.loc	1 0 0 is_stmt 0
	movs	r2, #0
.Ltmp697:
.LBB5_75:
	mov	r1, r6
	bl	_ZN4core9panicking18panic_bounds_check17he1dc5c093ac62635E
	.inst.n	0xdefe
.LBB5_76:
.Ltmp698:
	.loc	3 886 0 is_stmt 1
	mov	r0, r6
	mov	r1, r2
	b	.LBB5_66
.Ltmp699:
.LBB5_77:
	.loc	3 888 0
	ldr	r0, [sp, #16]
.Ltmp700:
	.loc	3 0 0 is_stmt 0
	b	.LBB5_80
.Ltmp701:
.LBB5_78:
	.loc	1 130 0 is_stmt 1
	ldr	r0, .LCPI5_13
	mov	r1, r5
	b	.LBB5_62
.Ltmp702:
.LBB5_79:
	.loc	3 888 0
	mov	r0, r1
.Ltmp703:
.LBB5_80:
	.loc	3 0 0 is_stmt 0
	ldr	r1, [sp, #8]
	bl	_ZN4core5slice20slice_index_len_fail17h3a657df3a06ab6caE
	.inst.n	0xdefe
.LBB5_81:
	.loc	1 219 0 is_stmt 1
	ldr	r0, .LCPI5_11
	movs	r2, #36
	b	.LBB5_75
.LBB5_82:
	.loc	1 137 0
	ldr	r0, .LCPI5_12
	mov	r1, r2
	b	.LBB5_62
.Ltmp704:
	.p2align	2
	.loc	1 0 0 is_stmt 0
.LCPI5_0:
	.long	panic_bounds_check_loc.F
.LCPI5_1:
	.long	214748364
.LCPI5_2:
	.long	panic_bounds_check_loc.R
.LCPI5_3:
	.long	panic_bounds_check_loc.S
.LCPI5_4:
	.long	byte_str.3
.LCPI5_5:
	.long	panic_loc.Q
.LCPI5_6:
	.long	panic_loc.P
.LCPI5_7:
	.long	10000
.LCPI5_8:
	.long	byte_str.d
.LCPI5_9:
	.long	99999999
.LCPI5_10:
	.long	999
.LCPI5_11:
	.long	panic_bounds_check_loc.N
.LCPI5_12:
	.long	panic_bounds_check_loc.O
.LCPI5_13:
	.long	panic_bounds_check_loc.M
.LCPI5_14:
	.long	panic_bounds_check_loc.V
.LCPI5_15:
	.long	panic_bounds_check_loc.D
.Lfunc_end5:
	.size	_ZN53_$LT$isize$u20$as$u20$numtoa..NumToA$LT$isize$GT$$GT$6numtoa17h66963fdb3fcc7695E, .Lfunc_end5-_ZN53_$LT$isize$u20$as$u20$numtoa..NumToA$LT$isize$GT$$GT$6numtoa17h66963fdb3fcc7695E
	.cfi_endproc
	.cantunwind
	.fnend

	.section	".text._ZN49_$LT$u16$u20$as$u20$numtoa..NumToA$LT$u16$GT$$GT$6numtoa17h94d5a4a069550674E","ax",%progbits
	.globl	_ZN49_$LT$u16$u20$as$u20$numtoa..NumToA$LT$u16$GT$$GT$6numtoa17h94d5a4a069550674E
	.p2align	2
	.type	_ZN49_$LT$u16$u20$as$u20$numtoa..NumToA$LT$u16$GT$$GT$6numtoa17h94d5a4a069550674E,%function
	.code	16
	.thumb_func
_ZN49_$LT$u16$u20$as$u20$numtoa..NumToA$LT$u16$GT$$GT$6numtoa17h94d5a4a069550674E:
.Lfunc_begin6:
	.loc	1 146 0 is_stmt 1
	.fnstart
	.cfi_startproc
	.save	{r4, r5, r6, r7, lr}
	push	{r4, r5, r6, r7, lr}
.Lcfi42:
	.cfi_def_cfa_offset 20
.Lcfi43:
	.cfi_offset lr, -4
.Lcfi44:
	.cfi_offset r7, -8
.Lcfi45:
	.cfi_offset r6, -12
.Lcfi46:
	.cfi_offset r5, -16
.Lcfi47:
	.cfi_offset r4, -20
	.setfp	r7, sp, #12
	add	r7, sp, #12
.Lcfi48:
	.cfi_def_cfa r7, 8
	.pad	#12
	sub	sp, #12
	mov	r6, r2
.Ltmp705:
	.loc	1 159 0 prologue_end
	subs	r5, r3, #1
.Ltmp706:
	.loc	1 0 0 is_stmt 0
	ldr	r2, .LCPI6_0
	.loc	1 160 0 is_stmt 1
	tst	r0, r2
	beq	.LBB6_6
.Ltmp707:
	.loc	1 0 0 is_stmt 0
	str	r3, [sp, #8]
	uxth	r4, r1
	.loc	1 165 0 is_stmt 1
	cmp	r4, #10
	beq	.LBB6_8
.Ltmp708:
	.loc	1 0 0 is_stmt 0
	str	r6, [sp, #4]
	cmp	r4, #0
	bne	.LBB6_3
	b	.LBB6_38
.Ltmp709:
.LBB6_3:
	.loc	1 170 0 is_stmt 1
	uxth	r6, r0
.Ltmp710:
	mov	r0, r6
.Ltmp711:
	mov	r1, r4
	bl	__aeabi_uidivmod
	.loc	1 171 0
	cmp	r1, #35
	bls	.LBB6_4
	b	.LBB6_36
.LBB6_4:
.Ltmp712:
	ldr	r0, [sp, #8]
	cmp	r5, r0
	blo	.LBB6_5
	b	.LBB6_37
.Ltmp713:
.LBB6_5:
	ldr	r0, .LCPI6_5
	ldrb	r0, [r0, r1]
	ldr	r1, [sp, #4]
	strb	r0, [r1, r5]
	.loc	1 173 0
	mov	r0, r6
	mov	r1, r4
	bl	__aeabi_uidiv
.Ltmp714:
	.loc	2 1806 0
	subs	r5, r5, #1
.Ltmp715:
	.loc	1 169 0
	cmp	r6, r4
	bhs	.LBB6_3
	b	.LBB6_34
.Ltmp716:
.LBB6_6:
	.loc	1 161 0
	cmp	r3, #0
	bne	.LBB6_7
	b	.LBB6_39
.Ltmp717:
.LBB6_7:
	movs	r0, #48
.Ltmp718:
	strb	r0, [r6, r5]
	b	.LBB6_35
.Ltmp719:
.LBB6_8:
	.loc	1 167 0
	uxth	r2, r0
	ldr	r1, .LCPI6_2
	cmp	r2, r1
	bls	.LBB6_16
.Ltmp720:
	.loc	1 167 0 is_stmt 0
	ldr	r1, .LCPI6_7
	mov	r5, r2
.Ltmp721:
	mov	r0, r2
.Ltmp722:
	bl	__aeabi_uidivmod
.Ltmp723:
	.loc	1 167 0
	movs	r2, #100
	mov	r0, r1
	mov	r1, r2
	bl	__aeabi_uidivmod
	lsls	r3, r1, #1
	lsls	r2, r0, #1
	ldr	r4, [sp, #8]
	subs	r1, r4, #2
.Ltmp724:
	subs	r0, r4, #4
.Ltmp725:
	.loc	3 885 0 is_stmt 1
	cmp	r1, r0
	bhs	.LBB6_10
	b	.LBB6_50
.Ltmp726:
.LBB6_10:
	.loc	3 887 0
	cmp	r4, #1
.Ltmp727:
	.loc	3 0 0 is_stmt 0
	bhi	.LBB6_11
	b	.LBB6_42
.Ltmp728:
.LBB6_11:
	.loc	1 167 0 is_stmt 1
	uxth	r4, r2
.Ltmp729:
	adds	r2, r4, #2
.Ltmp730:
	.loc	3 875 0
	cmp	r2, #201
	blo	.LBB6_12
	b	.LBB6_40
.Ltmp731:
.LBB6_12:
	.loc	4 582 0
	ldr	r2, .LCPI6_4
.Ltmp732:
	.loc	3 672 0
	ldrh	r4, [r2, r4]
.Ltmp733:
	strb	r4, [r6, r0]
.Ltmp734:
	.loc	4 1215 0
	adds	r0, r6, r0
.Ltmp735:
	.loc	3 672 0
	lsrs	r4, r4, #8
	strb	r4, [r0, #1]
.Ltmp736:
	.loc	1 167 0
	uxth	r3, r3
	adds	r0, r3, #2
.Ltmp737:
	.loc	3 875 0
	cmp	r0, #201
.Ltmp738:
	.loc	3 0 0 is_stmt 0
	blo	.LBB6_13
	b	.LBB6_41
.Ltmp739:
.LBB6_13:
	.loc	3 672 0 is_stmt 1
	ldrh	r0, [r2, r3]
.Ltmp740:
	strb	r0, [r6, r1]
.Ltmp741:
	.loc	4 1215 0
	adds	r1, r6, r1
.Ltmp742:
	.loc	3 672 0
	lsrs	r0, r0, #8
	strb	r0, [r1, #1]
.Ltmp743:
	.loc	1 167 0
	ldr	r1, .LCPI6_7
	mov	r0, r5
	bl	__aeabi_uidiv
	ldr	r4, [sp, #8]
.Ltmp744:
	.loc	2 1806 0
	subs	r5, r4, #5
.Ltmp745:
.LBB6_14:
	.loc	1 137 0
	cmp	r5, r4
	blo	.LBB6_15
	b	.LBB6_43
.Ltmp746:
.LBB6_15:
	.loc	1 167 0
	uxth	r0, r0
	ldr	r1, .LCPI6_5
	ldrb	r0, [r1, r0]
	.loc	1 137 0
	strb	r0, [r6, r5]
	movs	r0, #1
	b	.LBB6_33
.Ltmp747:
.LBB6_16:
	.loc	1 167 0
	ldr	r1, .LCPI6_3
	ands	r1, r0
	lsrs	r1, r1, #3
	cmp	r1, #124
	ldr	r4, [sp, #8]
	bls	.LBB6_23
.Ltmp748:
	.loc	1 167 0 is_stmt 0
	movs	r1, #100
	mov	r0, r2
.Ltmp749:
	bl	__aeabi_uidivmod
	lsls	r3, r1, #1
	lsls	r2, r0, #1
	subs	r1, r4, #2
.Ltmp750:
	subs	r0, r4, #4
.Ltmp751:
	.loc	3 885 0 is_stmt 1
	cmp	r1, r0
	bhs	.LBB6_18
	b	.LBB6_50
.Ltmp752:
.LBB6_18:
	.loc	3 887 0
	cmp	r4, #1
.Ltmp753:
	.loc	3 0 0 is_stmt 0
	bls	.LBB6_42
.Ltmp754:
	str	r1, [sp, #4]
	.loc	1 167 0 is_stmt 1
	uxth	r4, r2
.Ltmp755:
	adds	r2, r4, #2
.Ltmp756:
	.loc	3 875 0
	cmp	r2, #201
	bhs	.LBB6_40
.Ltmp757:
	.loc	4 582 0
	ldr	r2, .LCPI6_4
.Ltmp758:
	.loc	3 672 0
	ldrh	r4, [r2, r4]
.Ltmp759:
	strb	r4, [r6, r0]
.Ltmp760:
	.loc	4 1215 0
	adds	r0, r6, r0
.Ltmp761:
	.loc	3 672 0
	lsrs	r4, r4, #8
	strb	r4, [r0, #1]
	ldr	r1, [sp, #8]
.Ltmp762:
	.loc	3 885 0
	cmp	r1, #1
.Ltmp763:
	.loc	3 0 0 is_stmt 0
	bls	.LBB6_45
.Ltmp764:
	.loc	1 167 0 is_stmt 1
	uxth	r3, r3
.Ltmp765:
	adds	r0, r3, #2
.Ltmp766:
	.loc	3 875 0
	cmp	r0, #201
	bhs	.LBB6_41
.Ltmp767:
	.loc	3 672 0
	ldrh	r0, [r2, r3]
.Ltmp768:
	.loc	3 0 0 is_stmt 0
	ldr	r1, [sp, #4]
	.loc	3 672 0
	strb	r0, [r6, r1]
.Ltmp769:
	.loc	4 1215 0 is_stmt 1
	adds	r1, r6, r1
.Ltmp770:
	.loc	3 672 0
	lsrs	r0, r0, #8
	strb	r0, [r1, #1]
	movs	r0, #4
.Ltmp771:
	.loc	3 0 0 is_stmt 0
	b	.LBB6_33
.Ltmp772:
.LBB6_23:
	.loc	1 167 0 is_stmt 1
	cmp	r2, #100
	blo	.LBB6_29
.Ltmp773:
	.loc	1 167 0 is_stmt 0
	movs	r1, #10
	str	r2, [sp, #4]
	mov	r0, r2
.Ltmp774:
	bl	__aeabi_uidiv
	lsls	r1, r0, #1
	subs	r0, r4, #3
.Ltmp775:
	.loc	3 885 0 is_stmt 1
	cmp	r5, #1
	bls	.LBB6_46
.Ltmp776:
	.loc	3 887 0
	cmp	r4, #0
.Ltmp777:
	beq	.LBB6_47
.Ltmp778:
	.loc	1 167 0
	uxth	r1, r1
.Ltmp779:
	adds	r2, r1, #2
.Ltmp780:
	.loc	3 875 0
	cmp	r2, #201
	bhs	.LBB6_40
.Ltmp781:
	.loc	4 582 0
	ldr	r2, .LCPI6_4
.Ltmp782:
	.loc	3 672 0
	ldrh	r1, [r2, r1]
.Ltmp783:
	strb	r1, [r6, r0]
.Ltmp784:
	.loc	4 1215 0
	adds	r0, r6, r0
.Ltmp785:
	.loc	3 672 0
	lsrs	r1, r1, #8
	strb	r1, [r0, #1]
.Ltmp786:
	.loc	1 130 0
	cmp	r4, #0
.Ltmp787:
	beq	.LBB6_48
.Ltmp788:
	.loc	1 167 0
	movs	r1, #10
	ldr	r0, [sp, #4]
	bl	__aeabi_uidivmod
	ldr	r0, .LCPI6_5
	ldrb	r0, [r0, r1]
	.loc	1 130 0
	strb	r0, [r6, r5]
	movs	r0, #3
	b	.LBB6_33
.Ltmp789:
.LBB6_29:
	.loc	1 167 0
	cmp	r2, #9
	bls	.LBB6_14
.Ltmp790:
	subs	r1, r4, #2
.Ltmp791:
	.loc	3 885 0
	cmp	r4, #1
	bls	.LBB6_49
.Ltmp792:
	.loc	1 167 0
	lsls	r0, r0, #1
.Ltmp793:
	uxth	r2, r0
.Ltmp794:
	adds	r0, r2, #2
.Ltmp795:
	.loc	3 875 0
	cmp	r0, #201
	bhs	.LBB6_41
.Ltmp796:
	.loc	4 582 0
	ldr	r0, .LCPI6_4
.Ltmp797:
	.loc	3 672 0
	ldrh	r0, [r0, r2]
.Ltmp798:
	strb	r0, [r6, r1]
.Ltmp799:
	.loc	4 1215 0
	adds	r1, r6, r1
.Ltmp800:
	.loc	3 672 0
	lsrs	r0, r0, #8
	strb	r0, [r1, #1]
	movs	r0, #2
.Ltmp801:
.LBB6_33:
	.loc	2 1806 0
	subs	r5, r5, r0
.Ltmp802:
.LBB6_34:
	.loc	2 1787 0
	adds	r5, r5, #1
.Ltmp803:
.LBB6_35:
	.loc	1 178 0
	mov	r0, r5
	add	sp, #12
	pop	{r4, r5, r6, r7, pc}
.LBB6_36:
.Ltmp804:
	.loc	1 171 0
	ldr	r0, .LCPI6_9
	movs	r2, #36
	bl	_ZN4core9panicking18panic_bounds_check17he1dc5c093ac62635E
	.inst.n	0xdefe
.LBB6_37:
	ldr	r0, .LCPI6_10
	mov	r1, r5
	ldr	r2, [sp, #8]
	bl	_ZN4core9panicking18panic_bounds_check17he1dc5c093ac62635E
	.inst.n	0xdefe
.LBB6_38:
.Ltmp805:
	.loc	1 170 0
	ldr	r0, .LCPI6_1
.Ltmp806:
	bl	_ZN4core9panicking5panic17hc432e1634db46879E
	.inst.n	0xdefe
.Ltmp807:
.LBB6_39:
	.loc	1 161 0
	ldr	r0, .LCPI6_11
.Ltmp808:
	movs	r2, #0
	mov	r1, r5
	bl	_ZN4core9panicking18panic_bounds_check17he1dc5c093ac62635E
	.inst.n	0xdefe
.Ltmp809:
.LBB6_40:
	.loc	1 0 0 is_stmt 0
	movs	r1, #200
	mov	r0, r2
	bl	_ZN4core5slice20slice_index_len_fail17h3a657df3a06ab6caE
	.inst.n	0xdefe
.Ltmp810:
.LBB6_41:
	movs	r1, #200
	bl	_ZN4core5slice20slice_index_len_fail17h3a657df3a06ab6caE
	.inst.n	0xdefe
.Ltmp811:
.LBB6_42:
	mov	r0, r1
	ldr	r1, [sp, #8]
	bl	_ZN4core5slice20slice_index_len_fail17h3a657df3a06ab6caE
	.inst.n	0xdefe
.Ltmp812:
.LBB6_43:
	.loc	1 137 0 is_stmt 1
	ldr	r0, .LCPI6_8
.Ltmp813:
.LBB6_44:
	.loc	1 0 0 is_stmt 0
	mov	r1, r5
	mov	r2, r4
	bl	_ZN4core9panicking18panic_bounds_check17he1dc5c093ac62635E
	.inst.n	0xdefe
.Ltmp814:
.LBB6_45:
	.loc	3 886 0 is_stmt 1
	ldr	r0, [sp, #4]
	b	.LBB6_50
.Ltmp815:
.LBB6_46:
	.loc	3 886 0 is_stmt 0
	mov	r1, r5
	b	.LBB6_50
.Ltmp816:
.LBB6_47:
	.loc	3 888 0 is_stmt 1
	mov	r0, r5
.Ltmp817:
	mov	r1, r4
	bl	_ZN4core5slice20slice_index_len_fail17h3a657df3a06ab6caE
	.inst.n	0xdefe
.Ltmp818:
.LBB6_48:
	.loc	1 130 0
	ldr	r0, .LCPI6_6
	b	.LBB6_44
.Ltmp819:
.LBB6_49:
	.loc	3 886 0
	mov	r0, r1
.Ltmp820:
	mov	r1, r4
.Ltmp821:
.LBB6_50:
	.loc	3 0 0 is_stmt 0
	bl	_ZN4core5slice22slice_index_order_fail17h1ebe63c40336a21cE
	.inst.n	0xdefe
.Ltmp822:
	.p2align	2
.LCPI6_0:
	.long	65535
.LCPI6_1:
	.long	panic_loc.X
.LCPI6_2:
	.long	9999
.LCPI6_3:
	.long	65528
.LCPI6_4:
	.long	byte_str.d
.LCPI6_5:
	.long	byte_str.3
.LCPI6_6:
	.long	panic_bounds_check_loc.M
.LCPI6_7:
	.long	10000
.LCPI6_8:
	.long	panic_bounds_check_loc.O
.LCPI6_9:
	.long	panic_bounds_check_loc.Y
.LCPI6_10:
	.long	panic_bounds_check_loc.Z
.LCPI6_11:
	.long	panic_bounds_check_loc.W
.Lfunc_end6:
	.size	_ZN49_$LT$u16$u20$as$u20$numtoa..NumToA$LT$u16$GT$$GT$6numtoa17h94d5a4a069550674E, .Lfunc_end6-_ZN49_$LT$u16$u20$as$u20$numtoa..NumToA$LT$u16$GT$$GT$6numtoa17h94d5a4a069550674E
	.cfi_endproc
	.cantunwind
	.fnend

	.section	".text._ZN49_$LT$u32$u20$as$u20$numtoa..NumToA$LT$u32$GT$$GT$6numtoa17h43460acef05e153cE","ax",%progbits
	.globl	_ZN49_$LT$u32$u20$as$u20$numtoa..NumToA$LT$u32$GT$$GT$6numtoa17h43460acef05e153cE
	.p2align	2
	.type	_ZN49_$LT$u32$u20$as$u20$numtoa..NumToA$LT$u32$GT$$GT$6numtoa17h43460acef05e153cE,%function
	.code	16
	.thumb_func
_ZN49_$LT$u32$u20$as$u20$numtoa..NumToA$LT$u32$GT$$GT$6numtoa17h43460acef05e153cE:
.Lfunc_begin7:
	.loc	1 146 0 is_stmt 1
	.fnstart
	.cfi_startproc
	.save	{r4, r5, r6, r7, lr}
	push	{r4, r5, r6, r7, lr}
.Lcfi49:
	.cfi_def_cfa_offset 20
.Lcfi50:
	.cfi_offset lr, -4
.Lcfi51:
	.cfi_offset r7, -8
.Lcfi52:
	.cfi_offset r6, -12
.Lcfi53:
	.cfi_offset r5, -16
.Lcfi54:
	.cfi_offset r4, -20
	.setfp	r7, sp, #12
	add	r7, sp, #12
.Lcfi55:
	.cfi_def_cfa r7, 8
	.pad	#20
	sub	sp, #20
	mov	r5, r1
.Ltmp823:
	mov	r6, r0
.Ltmp824:
	.loc	1 159 0 prologue_end
	subs	r4, r3, #1
.Ltmp825:
	.loc	1 160 0
	cmp	r6, #0
	beq	.LBB7_6
.Ltmp826:
	.loc	1 165 0
	cmp	r5, #10
	str	r3, [sp, #16]
	str	r2, [sp, #12]
	beq	.LBB7_8
.Ltmp827:
	.loc	1 0 0 is_stmt 0
	cmp	r5, #0
	bne	.LBB7_3
	b	.LBB7_51
.Ltmp828:
.LBB7_3:
	.loc	1 170 0 is_stmt 1
	mov	r0, r6
	mov	r1, r5
	bl	__aeabi_uidivmod
.Ltmp829:
	.loc	1 171 0
	cmp	r1, #35
	bls	.LBB7_4
	b	.LBB7_43
.Ltmp830:
.LBB7_4:
	ldr	r0, [sp, #16]
	cmp	r4, r0
	ldr	r2, [sp, #12]
	blo	.LBB7_5
	b	.LBB7_44
.Ltmp831:
.LBB7_5:
	ldr	r0, .LCPI7_5
	ldrb	r0, [r0, r1]
	strb	r0, [r2, r4]
	.loc	1 173 0
	mov	r0, r6
	mov	r1, r5
	bl	__aeabi_uidiv
.Ltmp832:
	.loc	2 1806 0
	subs	r4, r4, #1
.Ltmp833:
	.loc	1 169 0
	cmp	r6, r5
	mov	r6, r0
.Ltmp834:
	.loc	1 0 0 is_stmt 0
	bhs	.LBB7_3
	b	.LBB7_40
.Ltmp835:
.LBB7_6:
	.loc	1 161 0 is_stmt 1
	cmp	r3, #0
	bne	.LBB7_7
	b	.LBB7_52
.Ltmp836:
.LBB7_7:
	movs	r0, #48
	strb	r0, [r2, r4]
	b	.LBB7_41
.Ltmp837:
.LBB7_8:
	.loc	1 167 0
	ldr	r0, .LCPI7_1
	cmp	r6, r0
	blo	.LBB7_18
.Ltmp838:
	.loc	1 167 0 is_stmt 0
	adds	r0, r2, r4
	str	r0, [sp, #4]
	movs	r5, #0
.Ltmp839:
	str	r4, [sp]
.Ltmp840:
.LBB7_10:
	ldr	r1, .LCPI7_1
	mov	r0, r6
	bl	__aeabi_uidivmod
.Ltmp841:
	.loc	1 167 0
	movs	r2, #100
	mov	r0, r1
	mov	r1, r2
	bl	__aeabi_uidivmod
.Ltmp842:
	.loc	3 885 0 is_stmt 1
	adds	r2, r4, r5
	subs	r3, r2, #1
.Ltmp843:
	.loc	1 167 0
	lsls	r1, r1, #1
	str	r1, [sp, #8]
	lsls	r0, r0, #1
	subs	r1, r2, #3
.Ltmp844:
	.loc	3 885 0
	cmp	r3, r1
	bhs	.LBB7_11
	b	.LBB7_47
.Ltmp845:
.LBB7_11:
	.loc	3 887 0
	ldr	r1, [sp, #16]
	cmp	r3, r1
.Ltmp846:
	.loc	3 0 0 is_stmt 0
	bls	.LBB7_12
	b	.LBB7_48
.Ltmp847:
.LBB7_12:
	.loc	1 167 0 is_stmt 1
	uxth	r1, r0
.Ltmp848:
	adds	r0, r1, #2
.Ltmp849:
	.loc	3 875 0
	cmp	r0, #201
	blo	.LBB7_13
	b	.LBB7_42
.Ltmp850:
.LBB7_13:
	.loc	3 672 0
	ldr	r0, .LCPI7_2
	ldrh	r0, [r0, r1]
	ldr	r1, [sp, #4]
	adds	r4, r1, r5
.Ltmp851:
	.loc	3 0 0 is_stmt 0
	movs	r1, #0
	mvns	r2, r1
	.loc	3 672 0
	lsls	r1, r2, #1
	adds	r1, r4, r1
	strb	r0, [r1, r2]
	lsrs	r0, r0, #8
	subs	r1, r1, #1
.Ltmp852:
	strb	r0, [r1, #1]
	ldr	r0, [sp, #16]
.Ltmp853:
	.loc	3 885 0 is_stmt 1
	adds	r1, r0, r5
	cmp	r1, r3
	bhs	.LBB7_14
	b	.LBB7_49
.Ltmp854:
.LBB7_14:
	.loc	3 887 0
	cmp	r1, r0
	bls	.LBB7_15
	b	.LBB7_45
.Ltmp855:
.LBB7_15:
	.loc	1 167 0
	ldr	r0, [sp, #8]
	uxth	r1, r0
.Ltmp856:
	adds	r0, r1, #2
.Ltmp857:
	.loc	3 875 0
	cmp	r0, #201
	blo	.LBB7_16
	b	.LBB7_42
.Ltmp858:
.LBB7_16:
	.loc	3 672 0
	ldr	r0, .LCPI7_2
	ldrh	r0, [r0, r1]
	strb	r0, [r4, r2]
	adds	r1, r4, r2
	lsrs	r0, r0, #8
	strb	r0, [r1, #1]
.Ltmp859:
	.loc	1 167 0
	ldr	r1, .LCPI7_1
	mov	r0, r6
	bl	__aeabi_uidiv
	mov	r3, r0
.Ltmp860:
	.loc	1 167 0 is_stmt 0
	subs	r5, r5, #4
	ldr	r0, .LCPI7_3
	cmp	r6, r0
	mov	r6, r3
	ldr	r4, [sp]
	bhi	.LBB7_10
.Ltmp861:
	ldr	r0, [sp, #16]
	adds	r0, r0, r5
	subs	r4, r0, #1
	ldr	r2, [sp, #12]
	b	.LBB7_19
.Ltmp862:
.LBB7_18:
	.loc	1 0 0
	mov	r3, r6
.Ltmp863:
.LBB7_19:
	.loc	1 167 0
	lsrs	r0, r3, #3
	cmp	r0, #124
	bls	.LBB7_27
.Ltmp864:
	.loc	1 167 0
	movs	r1, #100
	mov	r0, r3
	bl	__aeabi_uidivmod
	lsls	r3, r1, #1
.Ltmp865:
	lsls	r5, r0, #1
.Ltmp866:
	subs	r1, r4, #1
.Ltmp867:
	subs	r0, r4, #3
.Ltmp868:
	.loc	3 885 0 is_stmt 1
	cmp	r1, r0
	bhs	.LBB7_21
	b	.LBB7_50
.Ltmp869:
.LBB7_21:
	.loc	3 887 0
	ldr	r2, [sp, #16]
	cmp	r1, r2
.Ltmp870:
	.loc	3 0 0 is_stmt 0
	bhi	.LBB7_45
.Ltmp871:
	mov	r6, r4
	.loc	1 167 0 is_stmt 1
	adds	r2, r5, #2
.Ltmp872:
	.loc	3 875 0
	cmp	r2, #201
	blo	.LBB7_23
	b	.LBB7_54
.Ltmp873:
.LBB7_23:
	.loc	4 582 0
	ldr	r4, .LCPI7_2
.Ltmp874:
	.loc	3 672 0
	ldrh	r2, [r4, r5]
.Ltmp875:
	.loc	3 0 0 is_stmt 0
	ldr	r5, [sp, #12]
.Ltmp876:
	.loc	3 672 0
	strb	r2, [r5, r0]
.Ltmp877:
	.loc	4 1215 0 is_stmt 1
	adds	r0, r5, r0
.Ltmp878:
	.loc	3 672 0
	lsrs	r2, r2, #8
	strb	r2, [r0, #1]
.Ltmp879:
	.loc	1 167 0
	adds	r2, r6, #1
.Ltmp880:
	.loc	3 885 0
	cmp	r2, r1
.Ltmp881:
	.loc	3 0 0 is_stmt 0
	bhs	.LBB7_24
	b	.LBB7_55
.Ltmp882:
.LBB7_24:
	ldr	r0, [sp, #16]
	.loc	3 887 0 is_stmt 1
	cmp	r2, r0
.Ltmp883:
	.loc	3 0 0 is_stmt 0
	bls	.LBB7_25
	b	.LBB7_56
.Ltmp884:
.LBB7_25:
	.loc	1 167 0 is_stmt 1
	adds	r0, r3, #2
.Ltmp885:
	.loc	3 875 0
	cmp	r0, #201
	bhs	.LBB7_42
.Ltmp886:
	.loc	3 672 0
	ldrh	r0, [r4, r3]
.Ltmp887:
	.loc	3 0 0 is_stmt 0
	ldr	r2, [sp, #12]
.Ltmp888:
	.loc	3 672 0
	strb	r0, [r2, r1]
.Ltmp889:
	.loc	4 1215 0 is_stmt 1
	adds	r1, r2, r1
.Ltmp890:
	.loc	3 672 0
	lsrs	r0, r0, #8
	strb	r0, [r1, #1]
	movs	r0, #4
.Ltmp891:
	.loc	3 0 0 is_stmt 0
	mov	r4, r6
	b	.LBB7_39
.Ltmp892:
.LBB7_27:
	.loc	1 167 0 is_stmt 1
	cmp	r3, #100
	blo	.LBB7_33
	.loc	1 0 0 is_stmt 0
	mov	r5, r3
.Ltmp893:
	.loc	1 167 0
	uxth	r0, r3
	movs	r1, #10
	bl	__aeabi_uidiv
	lsls	r1, r0, #1
	subs	r0, r4, #2
.Ltmp894:
	.loc	3 885 0 is_stmt 1
	cmp	r4, #1
	bls	.LBB7_58
.Ltmp895:
	.loc	3 887 0
	ldr	r2, [sp, #16]
	cmp	r4, r2
.Ltmp896:
	.loc	3 0 0 is_stmt 0
	bhi	.LBB7_59
.Ltmp897:
	.loc	1 167 0 is_stmt 1
	uxth	r1, r1
.Ltmp898:
	adds	r2, r1, #2
.Ltmp899:
	.loc	3 875 0
	cmp	r2, #201
	mov	r3, r5
	bhs	.LBB7_54
.Ltmp900:
	.loc	4 582 0
	ldr	r2, .LCPI7_2
.Ltmp901:
	.loc	3 672 0
	ldrh	r1, [r2, r1]
.Ltmp902:
	.loc	3 0 0 is_stmt 0
	ldr	r5, [sp, #12]
.Ltmp903:
	.loc	3 672 0
	strb	r1, [r5, r0]
.Ltmp904:
	.loc	4 1215 0 is_stmt 1
	adds	r0, r5, r0
.Ltmp905:
	.loc	3 672 0
	lsrs	r1, r1, #8
	strb	r1, [r0, #1]
	ldr	r0, [sp, #16]
.Ltmp906:
	.loc	1 130 0
	cmp	r4, r0
.Ltmp907:
	bhs	.LBB7_60
.Ltmp908:
	.loc	1 167 0
	movs	r1, #10
	mov	r0, r3
	bl	__aeabi_uidivmod
	ldr	r0, .LCPI7_5
	ldrb	r0, [r0, r1]
	.loc	1 130 0
	strb	r0, [r5, r4]
	movs	r0, #3
	b	.LBB7_39
.Ltmp909:
.LBB7_33:
	.loc	1 167 0
	cmp	r3, #9
	bls	.LBB7_37
	.loc	1 0 0 is_stmt 0
	mov	r1, r3
	.loc	1 167 0
	adds	r3, r4, #1
.Ltmp910:
	subs	r0, r4, #1
.Ltmp911:
	lsls	r2, r1, #1
.Ltmp912:
	.loc	3 885 0 is_stmt 1
	cmp	r3, r0
	blo	.LBB7_61
.Ltmp913:
	.loc	3 0 0 is_stmt 0
	ldr	r1, [sp, #16]
	.loc	3 887 0 is_stmt 1
	cmp	r3, r1
.Ltmp914:
	bhi	.LBB7_62
.Ltmp915:
	.loc	4 582 0
	ldr	r1, .LCPI7_2
.Ltmp916:
	.loc	3 672 0
	ldrh	r1, [r1, r2]
.Ltmp917:
	.loc	3 0 0 is_stmt 0
	ldr	r2, [sp, #12]
.Ltmp918:
	.loc	3 672 0
	strb	r1, [r2, r0]
.Ltmp919:
	.loc	4 1215 0 is_stmt 1
	adds	r0, r2, r0
.Ltmp920:
	.loc	3 672 0
	lsrs	r1, r1, #8
	strb	r1, [r0, #1]
	movs	r0, #2
.Ltmp921:
	.loc	3 0 0 is_stmt 0
	b	.LBB7_39
.Ltmp922:
.LBB7_37:
	ldr	r0, [sp, #16]
	.loc	1 137 0 is_stmt 1
	cmp	r4, r0
	bhs	.LBB7_63
	.loc	1 167 0
	ldr	r0, .LCPI7_5
	ldrb	r0, [r0, r3]
.Ltmp923:
	.loc	1 137 0
	strb	r0, [r2, r4]
	movs	r0, #1
.Ltmp924:
.LBB7_39:
	.loc	2 1806 0
	subs	r4, r4, r0
.Ltmp925:
.LBB7_40:
	.loc	2 1787 0
	adds	r4, r4, #1
.Ltmp926:
.LBB7_41:
	.loc	1 178 0
	mov	r0, r4
	add	sp, #20
	pop	{r4, r5, r6, r7, pc}
.LBB7_42:
	.loc	1 0 0 is_stmt 0
	movs	r1, #200
	bl	_ZN4core5slice20slice_index_len_fail17h3a657df3a06ab6caE
	.inst.n	0xdefe
.LBB7_43:
.Ltmp927:
	.loc	1 171 0 is_stmt 1
	ldr	r0, .LCPI7_7
	movs	r2, #36
	bl	_ZN4core9panicking18panic_bounds_check17he1dc5c093ac62635E
	.inst.n	0xdefe
.Ltmp928:
.LBB7_44:
	ldr	r0, .LCPI7_8
	mov	r1, r4
	ldr	r2, [sp, #16]
	bl	_ZN4core9panicking18panic_bounds_check17he1dc5c093ac62635E
	.inst.n	0xdefe
.Ltmp929:
.LBB7_45:
	.loc	1 0 0 is_stmt 0
	mov	r0, r1
.LBB7_46:
	ldr	r1, [sp, #16]
	bl	_ZN4core5slice20slice_index_len_fail17h3a657df3a06ab6caE
	.inst.n	0xdefe
.LBB7_47:
.Ltmp930:
	.loc	3 886 0 is_stmt 1
	ldr	r0, [sp, #16]
	adds	r1, r0, r5
	subs	r0, r1, #4
	subs	r1, r1, #2
	b	.LBB7_50
.Ltmp931:
.LBB7_48:
	.loc	3 0 0 is_stmt 0
	ldr	r1, [sp, #16]
	.loc	3 888 0 is_stmt 1
	adds	r0, r1, r5
	subs	r0, r0, #2
	bl	_ZN4core5slice20slice_index_len_fail17h3a657df3a06ab6caE
.Ltmp932:
	.inst.n	0xdefe
.Ltmp933:
.LBB7_49:
	.loc	3 886 0
	subs	r0, r1, #2
.Ltmp934:
.LBB7_50:
	.loc	3 0 0 is_stmt 0
	bl	_ZN4core5slice22slice_index_order_fail17h1ebe63c40336a21cE
	.inst.n	0xdefe
.LBB7_51:
.Ltmp935:
	.loc	1 170 0 is_stmt 1
	ldr	r0, .LCPI7_0
	bl	_ZN4core9panicking5panic17hc432e1634db46879E
.Ltmp936:
	.inst.n	0xdefe
.Ltmp937:
.LBB7_52:
	.loc	1 161 0
	ldr	r0, .LCPI7_9
	movs	r2, #0
.Ltmp938:
.LBB7_53:
	.loc	1 0 0 is_stmt 0
	mov	r1, r4
	bl	_ZN4core9panicking18panic_bounds_check17he1dc5c093ac62635E
	.inst.n	0xdefe
.LBB7_54:
	movs	r1, #200
	b	.LBB7_57
.LBB7_55:
.Ltmp939:
	.loc	3 886 0 is_stmt 1
	mov	r0, r1
	mov	r1, r2
	b	.LBB7_50
.Ltmp940:
.LBB7_56:
	.loc	3 0 0 is_stmt 0
	mov	r1, r0
.LBB7_57:
	mov	r0, r2
	bl	_ZN4core5slice20slice_index_len_fail17h3a657df3a06ab6caE
	.inst.n	0xdefe
.LBB7_58:
.Ltmp941:
	.loc	3 886 0
	mov	r1, r4
	b	.LBB7_50
.Ltmp942:
.LBB7_59:
	.loc	3 888 0 is_stmt 1
	mov	r0, r4
.Ltmp943:
	.loc	3 0 0 is_stmt 0
	b	.LBB7_46
.Ltmp944:
.LBB7_60:
	mov	r2, r0
	.loc	1 130 0 is_stmt 1
	ldr	r0, .LCPI7_6
	b	.LBB7_53
.Ltmp945:
.LBB7_61:
	.loc	3 886 0
	mov	r1, r3
	b	.LBB7_50
.Ltmp946:
.LBB7_62:
	.loc	3 888 0
	mov	r0, r3
.Ltmp947:
	bl	_ZN4core5slice20slice_index_len_fail17h3a657df3a06ab6caE
.Ltmp948:
	.inst.n	0xdefe
.Ltmp949:
.LBB7_63:
	.loc	3 0 0 is_stmt 0
	mov	r2, r0
	.loc	1 137 0 is_stmt 1
	ldr	r0, .LCPI7_4
	b	.LBB7_53
.Ltmp950:
	.p2align	2
	.loc	1 0 0 is_stmt 0
.LCPI7_0:
	.long	panic_loc.X
.LCPI7_1:
	.long	10000
.LCPI7_2:
	.long	byte_str.d
.LCPI7_3:
	.long	99999999
.LCPI7_4:
	.long	panic_bounds_check_loc.O
.LCPI7_5:
	.long	byte_str.3
.LCPI7_6:
	.long	panic_bounds_check_loc.M
.LCPI7_7:
	.long	panic_bounds_check_loc.Y
.LCPI7_8:
	.long	panic_bounds_check_loc.Z
.LCPI7_9:
	.long	panic_bounds_check_loc.W
.Lfunc_end7:
	.size	_ZN49_$LT$u32$u20$as$u20$numtoa..NumToA$LT$u32$GT$$GT$6numtoa17h43460acef05e153cE, .Lfunc_end7-_ZN49_$LT$u32$u20$as$u20$numtoa..NumToA$LT$u32$GT$$GT$6numtoa17h43460acef05e153cE
	.cfi_endproc
	.cantunwind
	.fnend

	.section	".text._ZN49_$LT$u64$u20$as$u20$numtoa..NumToA$LT$u64$GT$$GT$6numtoa17h4125de4347fbe21bE","ax",%progbits
	.globl	_ZN49_$LT$u64$u20$as$u20$numtoa..NumToA$LT$u64$GT$$GT$6numtoa17h4125de4347fbe21bE
	.p2align	2
	.type	_ZN49_$LT$u64$u20$as$u20$numtoa..NumToA$LT$u64$GT$$GT$6numtoa17h4125de4347fbe21bE,%function
	.code	16
	.thumb_func
_ZN49_$LT$u64$u20$as$u20$numtoa..NumToA$LT$u64$GT$$GT$6numtoa17h4125de4347fbe21bE:
.Lfunc_begin8:
	.loc	1 146 0 is_stmt 1
	.fnstart
	.cfi_startproc
	.save	{r4, r5, r6, r7, lr}
	push	{r4, r5, r6, r7, lr}
.Lcfi56:
	.cfi_def_cfa_offset 20
.Lcfi57:
	.cfi_offset lr, -4
.Lcfi58:
	.cfi_offset r7, -8
.Lcfi59:
	.cfi_offset r6, -12
.Lcfi60:
	.cfi_offset r5, -16
.Lcfi61:
	.cfi_offset r4, -20
	.setfp	r7, sp, #12
	add	r7, sp, #12
.Lcfi62:
	.cfi_def_cfa r7, 8
	.pad	#36
	sub	sp, #36
	str	r2, [sp, #20]
	mov	r6, r1
	mov	r5, r0
.Ltmp951:
	.loc	1 160 0 prologue_end
	orrs	r0, r6
	ldr	r2, [sp, #60]
	.loc	1 159 0
	subs	r4, r2, #1
.Ltmp952:
	.loc	1 0 0 is_stmt 0
	ldr	r1, [sp, #56]
	.loc	1 160 0 is_stmt 1
	cmp	r0, #0
	beq	.LBB8_13
.Ltmp953:
	.loc	1 165 0
	movs	r0, #10
	str	r1, [sp, #16]
	ldr	r1, [sp, #20]
.Ltmp954:
	eors	r0, r1
	orrs	r0, r3
	cmp	r0, #0
	str	r2, [sp, #24]
	beq	.LBB8_15
.Ltmp955:
	.loc	1 0 0 is_stmt 0
	ldr	r0, [sp, #20]
	orrs	r0, r3
	cmp	r0, #0
	bne	.LBB8_3
	b	.LBB8_84
.Ltmp956:
.LBB8_3:
	ldr	r2, [sp, #20]
.Ltmp957:
.LBB8_4:
	mov	r1, r6
	str	r5, [sp, #32]
.Ltmp958:
	.loc	1 170 0 is_stmt 1
	mov	r0, r5
	mov	r5, r3
.Ltmp959:
	bl	__aeabi_uldivmod
.Ltmp960:
	.loc	1 171 0
	cmp	r2, #35
	bls	.LBB8_5
	b	.LBB8_78
.LBB8_5:
.Ltmp961:
	ldr	r0, [sp, #24]
	cmp	r4, r0
	ldr	r3, [sp, #16]
	blo	.LBB8_6
	b	.LBB8_79
.Ltmp962:
.LBB8_6:
	ldr	r0, .LCPI8_6
	ldrb	r0, [r0, r2]
	str	r4, [sp, #28]
	strb	r0, [r3, r4]
.Ltmp963:
	.loc	1 169 0
	movs	r0, #1
	movs	r1, #0
	ldr	r2, [sp, #32]
	ldr	r3, [sp, #20]
	cmp	r2, r3
	mov	r4, r0
	mov	r2, r5
	blo	.LBB8_8
	mov	r4, r1
.LBB8_8:
	cmp	r6, r2
	blo	.LBB8_10
	mov	r0, r1
.LBB8_10:
	cmp	r6, r2
	beq	.LBB8_12
	mov	r4, r0
.LBB8_12:
.Ltmp964:
	.loc	1 173 0
	ldr	r0, [sp, #32]
	mov	r1, r6
	mov	r2, r3
	mov	r6, r3
	mov	r3, r5
	bl	__aeabi_uldivmod
	mov	r2, r6
	mov	r3, r5
	mov	r5, r0
	mov	r6, r1
.Ltmp965:
	.loc	1 0 0 is_stmt 0
	ldr	r0, [sp, #28]
.Ltmp966:
	.loc	2 1806 0 is_stmt 1
	subs	r0, r0, #1
.Ltmp967:
	.loc	1 169 0
	cmp	r4, #0
	mov	r4, r0
.Ltmp968:
	.loc	1 0 0 is_stmt 0
	beq	.LBB8_4
	b	.LBB8_75
.Ltmp969:
.LBB8_13:
	.loc	1 161 0 is_stmt 1
	cmp	r2, #0
	bne	.LBB8_14
	b	.LBB8_85
.Ltmp970:
.LBB8_14:
	movs	r0, #48
	strb	r0, [r1, r4]
	b	.LBB8_76
.Ltmp971:
.LBB8_15:
	.loc	1 167 0
	ldr	r2, .LCPI8_1
	movs	r0, #1
	movs	r1, #0
	cmp	r5, r2
	mov	r2, r0
	blo	.LBB8_17
.Ltmp972:
	mov	r2, r1
.Ltmp973:
.LBB8_17:
	cmp	r6, #0
	beq	.LBB8_19
.Ltmp974:
	mov	r2, r1
.Ltmp975:
.LBB8_19:
	.loc	1 0 0 is_stmt 0
	mvns	r0, r0
	.loc	1 167 0
	str	r0, [sp, #20]
	cmp	r2, #0
	bne	.LBB8_35
.Ltmp976:
	.loc	1 167 0
	ldr	r0, [sp, #16]
	adds	r0, r0, r4
	str	r0, [sp, #4]
	movs	r2, #0
	str	r4, [sp, #28]
.Ltmp977:
.LBB8_21:
	str	r2, [sp, #32]
	ldr	r2, .LCPI8_1
	movs	r3, #0
	mov	r0, r5
	mov	r1, r6
	str	r3, [sp, #8]
	bl	__aeabi_uldivmod
	uxth	r0, r2
.Ltmp978:
	.loc	1 167 0
	movs	r1, #100
	bl	__aeabi_uidivmod
	ldr	r2, [sp, #32]
	lsls	r1, r1, #1
	str	r1, [sp, #12]
	lsls	r0, r0, #1
.Ltmp979:
	.loc	3 885 0 is_stmt 1
	adds	r1, r4, r2
	subs	r3, r1, #1
.Ltmp980:
	.loc	1 167 0
	subs	r1, r1, #3
.Ltmp981:
	.loc	3 885 0
	cmp	r3, r1
	bhs	.LBB8_22
	b	.LBB8_80
.Ltmp982:
.LBB8_22:
	.loc	3 0 0 is_stmt 0
	ldr	r1, [sp, #24]
	.loc	3 887 0 is_stmt 1
	cmp	r3, r1
.Ltmp983:
	.loc	3 0 0 is_stmt 0
	bls	.LBB8_23
	b	.LBB8_81
.Ltmp984:
.LBB8_23:
	.loc	1 167 0 is_stmt 1
	uxth	r1, r0
.Ltmp985:
	adds	r0, r1, #2
.Ltmp986:
	.loc	3 875 0
	cmp	r0, #201
	blo	.LBB8_24
	b	.LBB8_77
.Ltmp987:
.LBB8_24:
	.loc	3 672 0
	ldr	r0, .LCPI8_2
	ldrh	r0, [r0, r1]
	ldr	r1, [sp, #4]
	adds	r4, r1, r2
.Ltmp988:
	ldr	r1, [sp, #20]
	adds	r1, r1, #1
	lsls	r2, r1, #1
	adds	r2, r4, r2
	strb	r0, [r2, r1]
	adds	r1, r2, r1
	lsrs	r0, r0, #8
.Ltmp989:
	strb	r0, [r1, #1]
	ldr	r1, [sp, #24]
.Ltmp990:
	.loc	3 885 0
	ldr	r0, [sp, #32]
	adds	r2, r1, r0
	cmp	r2, r3
	bhs	.LBB8_25
	b	.LBB8_82
.Ltmp991:
.LBB8_25:
	.loc	3 887 0
	cmp	r2, r1
	bls	.LBB8_26
	b	.LBB8_96
.Ltmp992:
.LBB8_26:
	.loc	1 167 0
	ldr	r0, [sp, #12]
	uxth	r1, r0
.Ltmp993:
	adds	r0, r1, #2
.Ltmp994:
	.loc	3 875 0
	cmp	r0, #201
	blo	.LBB8_27
	b	.LBB8_77
.Ltmp995:
.LBB8_27:
	.loc	3 672 0
	ldr	r0, [sp, #20]
	adds	r0, r4, r0
	ldr	r2, .LCPI8_2
	ldrh	r1, [r2, r1]
	lsrs	r2, r1, #8
	strb	r2, [r0, #2]
	strb	r1, [r0, #1]
.Ltmp996:
	.loc	1 167 0
	ldr	r2, .LCPI8_1
	mov	r0, r5
	mov	r1, r6
	ldr	r4, [sp, #8]
	mov	r3, r4
	bl	__aeabi_uldivmod
	mov	r3, r0
.Ltmp997:
	.loc	1 167 0 is_stmt 0
	ldr	r0, .LCPI8_3
	movs	r2, #1
	cmp	r5, r0
	mov	r0, r2
	bhi	.LBB8_29
.Ltmp998:
	mov	r0, r4
.Ltmp999:
.LBB8_29:
	cmp	r6, #0
	ldr	r4, [sp, #28]
	bne	.LBB8_31
.Ltmp1000:
	mov	r2, r6
.Ltmp1001:
.LBB8_31:
	cmp	r6, #0
	beq	.LBB8_33
.Ltmp1002:
	mov	r0, r2
.Ltmp1003:
.LBB8_33:
	.loc	1 0 0
	ldr	r2, [sp, #32]
	.loc	1 167 0
	subs	r2, r2, #4
	cmp	r0, #0
	mov	r5, r3
.Ltmp1004:
	.loc	1 0 0
	mov	r6, r1
	bne	.LBB8_21
	.loc	1 167 0
	ldr	r0, [sp, #24]
	adds	r0, r0, r2
	subs	r4, r0, #1
	b	.LBB8_36
.LBB8_35:
.Ltmp1005:
	.loc	1 0 0
	mov	r3, r5
	mov	r1, r6
.Ltmp1006:
.LBB8_36:
	.loc	1 167 0
	lsrs	r0, r3, #3
	mov	r6, r1
	lsls	r1, r1, #29
	orrs	r1, r0
	movs	r0, #1
	movs	r2, #0
	cmp	r1, #124
	mov	r1, r0
	bhi	.LBB8_38
	mov	r1, r2
.LBB8_38:
	lsrs	r2, r6, #3
	bne	.LBB8_40
	mov	r0, r2
.LBB8_40:
	cmp	r2, #0
	beq	.LBB8_42
	mov	r1, r0
.LBB8_42:
	cmp	r1, #0
	beq	.LBB8_50
.Ltmp1007:
	.loc	1 167 0
	movs	r2, #100
	mov	r0, r3
	movs	r3, #0
	mov	r1, r6
	bl	__aeabi_uldivmod
	mov	r3, r0
	subs	r5, r4, #1
.Ltmp1008:
	subs	r0, r4, #3
.Ltmp1009:
	.loc	3 885 0 is_stmt 1
	cmp	r5, r0
	bhs	.LBB8_44
	b	.LBB8_88
.Ltmp1010:
.LBB8_44:
	.loc	3 0 0 is_stmt 0
	str	r4, [sp, #28]
	.loc	3 887 0 is_stmt 1
	ldr	r1, [sp, #24]
	cmp	r5, r1
.Ltmp1011:
	.loc	3 0 0 is_stmt 0
	bls	.LBB8_45
	b	.LBB8_89
.Ltmp1012:
.LBB8_45:
	.loc	1 167 0 is_stmt 1
	lsls	r3, r3, #1
.Ltmp1013:
	.loc	3 873 0
	mov	r4, r3
	adds	r4, #2
	bne	.LBB8_46
	b	.LBB8_87
.Ltmp1014:
.LBB8_46:
	.loc	4 582 0
	ldr	r4, .LCPI8_2
.Ltmp1015:
	.loc	3 672 0
	ldrh	r3, [r4, r3]
.Ltmp1016:
	.loc	3 0 0 is_stmt 0
	ldr	r6, [sp, #16]
	.loc	3 672 0
	strb	r3, [r6, r0]
.Ltmp1017:
	.loc	4 1215 0 is_stmt 1
	adds	r0, r6, r0
.Ltmp1018:
	.loc	3 672 0
	lsrs	r3, r3, #8
	strb	r3, [r0, #1]
.Ltmp1019:
	.loc	1 167 0
	ldr	r0, [sp, #28]
	adds	r3, r0, #1
.Ltmp1020:
	.loc	3 885 0
	cmp	r3, r5
.Ltmp1021:
	.loc	3 0 0 is_stmt 0
	bhs	.LBB8_47
	b	.LBB8_90
.Ltmp1022:
.LBB8_47:
	ldr	r1, [sp, #24]
	.loc	3 887 0 is_stmt 1
	cmp	r3, r1
.Ltmp1023:
	.loc	3 0 0 is_stmt 0
	bls	.LBB8_48
	b	.LBB8_91
.Ltmp1024:
.LBB8_48:
	.loc	1 167 0 is_stmt 1
	lsls	r2, r2, #1
.Ltmp1025:
	adds	r0, r2, #2
.Ltmp1026:
	.loc	3 875 0
	cmp	r0, #201
	bhs	.LBB8_77
.Ltmp1027:
	.loc	3 672 0
	ldrh	r0, [r4, r2]
.Ltmp1028:
	.loc	3 0 0 is_stmt 0
	ldr	r2, [sp, #16]
.Ltmp1029:
	.loc	3 672 0
	strb	r0, [r2, r5]
.Ltmp1030:
	.loc	4 1215 0 is_stmt 1
	adds	r1, r2, r5
.Ltmp1031:
	.loc	3 672 0
	lsrs	r0, r0, #8
	strb	r0, [r1, #1]
	movs	r0, #4
.Ltmp1032:
	.loc	3 0 0 is_stmt 0
	ldr	r4, [sp, #28]
	b	.LBB8_74
.Ltmp1033:
.LBB8_50:
	.loc	1 167 0 is_stmt 1
	movs	r0, #1
	movs	r1, #0
	cmp	r3, #100
	blo	.LBB8_52
	mov	r0, r1
.LBB8_52:
	.loc	1 0 0 is_stmt 0
	mov	r2, r6
	.loc	1 167 0
	cmp	r2, #0
	beq	.LBB8_54
	mov	r0, r1
.LBB8_54:
	cmp	r0, #0
	bne	.LBB8_60
	.loc	1 0 0
	str	r3, [sp, #32]
.Ltmp1034:
	.loc	1 167 0
	uxth	r0, r3
	movs	r1, #10
	bl	__aeabi_uidiv
	lsls	r1, r0, #1
	subs	r0, r4, #2
.Ltmp1035:
	.loc	3 885 0 is_stmt 1
	cmp	r4, #1
	bhi	.LBB8_56
	b	.LBB8_92
.Ltmp1036:
.LBB8_56:
	.loc	3 887 0
	ldr	r2, [sp, #24]
	cmp	r4, r2
.Ltmp1037:
	.loc	3 0 0 is_stmt 0
	bls	.LBB8_57
	b	.LBB8_93
.Ltmp1038:
.LBB8_57:
	.loc	1 167 0 is_stmt 1
	uxth	r1, r1
.Ltmp1039:
	adds	r2, r1, #2
.Ltmp1040:
	.loc	3 875 0
	cmp	r2, #201
	blo	.LBB8_58
	b	.LBB8_95
.Ltmp1041:
.LBB8_58:
	.loc	4 582 0
	ldr	r2, .LCPI8_2
.Ltmp1042:
	.loc	3 672 0
	ldrh	r1, [r2, r1]
.Ltmp1043:
	.loc	3 0 0 is_stmt 0
	ldr	r5, [sp, #16]
.Ltmp1044:
	.loc	3 672 0
	strb	r1, [r5, r0]
.Ltmp1045:
	.loc	4 1215 0 is_stmt 1
	adds	r0, r5, r0
.Ltmp1046:
	.loc	3 672 0
	lsrs	r1, r1, #8
	strb	r1, [r0, #1]
	ldr	r2, [sp, #24]
.Ltmp1047:
	.loc	1 130 0
	cmp	r4, r2
.Ltmp1048:
	bhs	.LBB8_97
.Ltmp1049:
	.loc	1 167 0
	movs	r2, #10
	movs	r3, #0
	ldr	r0, [sp, #32]
	mov	r1, r6
	bl	__aeabi_uldivmod
	ldr	r0, .LCPI8_6
	ldrb	r0, [r0, r2]
	.loc	1 130 0
	strb	r0, [r5, r4]
	movs	r0, #3
	b	.LBB8_74
.Ltmp1050:
.LBB8_60:
	.loc	1 167 0
	movs	r0, #1
	movs	r2, #0
	cmp	r3, #9
	mov	r1, r0
	bhi	.LBB8_62
	mov	r1, r2
.LBB8_62:
	cmp	r6, #0
	bne	.LBB8_64
	mov	r0, r6
.LBB8_64:
	cmp	r6, #0
	ldr	r2, [sp, #24]
	beq	.LBB8_66
	mov	r1, r0
.LBB8_66:
	cmp	r1, #0
	beq	.LBB8_71
	adds	r1, r4, #1
.Ltmp1051:
	subs	r0, r4, #1
.Ltmp1052:
	.loc	3 885 0
	cmp	r1, r0
	blo	.LBB8_83
.Ltmp1053:
	.loc	3 887 0
	cmp	r1, r2
.Ltmp1054:
	bhi	.LBB8_98
.Ltmp1055:
	.loc	1 167 0
	lsls	r1, r3, #1
.Ltmp1056:
	.loc	3 873 0
	mov	r2, r1
.Ltmp1057:
	adds	r2, #2
	beq	.LBB8_87
.Ltmp1058:
	.loc	4 582 0
	ldr	r2, .LCPI8_2
.Ltmp1059:
	.loc	3 672 0
	ldrh	r1, [r2, r1]
.Ltmp1060:
	.loc	3 0 0 is_stmt 0
	ldr	r2, [sp, #16]
.Ltmp1061:
	.loc	3 672 0
	strb	r1, [r2, r0]
.Ltmp1062:
	.loc	4 1215 0 is_stmt 1
	adds	r0, r2, r0
.Ltmp1063:
	.loc	3 672 0
	lsrs	r1, r1, #8
	strb	r1, [r0, #1]
	movs	r0, #2
.Ltmp1064:
	.loc	3 0 0 is_stmt 0
	b	.LBB8_74
.Ltmp1065:
.LBB8_71:
	.loc	1 167 0 is_stmt 1
	cmp	r3, #35
	bhi	.LBB8_99
	.loc	1 137 0
	cmp	r4, r2
	ldr	r1, [sp, #16]
	bhs	.LBB8_100
	.loc	1 167 0
	ldr	r0, .LCPI8_6
	ldrb	r0, [r0, r3]
.Ltmp1066:
	.loc	1 137 0
	strb	r0, [r1, r4]
	movs	r0, #1
.Ltmp1067:
.LBB8_74:
	.loc	2 1806 0
	subs	r4, r4, r0
.Ltmp1068:
.LBB8_75:
	.loc	2 1787 0
	adds	r4, r4, #1
.Ltmp1069:
.LBB8_76:
	.loc	1 178 0
	mov	r0, r4
	add	sp, #36
	pop	{r4, r5, r6, r7, pc}
.LBB8_77:
	.loc	1 0 0 is_stmt 0
	movs	r1, #200
	bl	_ZN4core5slice20slice_index_len_fail17h3a657df3a06ab6caE
	.inst.n	0xdefe
.LBB8_78:
.Ltmp1070:
	.loc	1 171 0 is_stmt 1
	ldr	r0, .LCPI8_8
	movs	r3, #36
	mov	r1, r2
	mov	r2, r3
	bl	_ZN4core9panicking18panic_bounds_check17he1dc5c093ac62635E
	.inst.n	0xdefe
.LBB8_79:
	ldr	r0, .LCPI8_9
	mov	r1, r4
	ldr	r2, [sp, #24]
	bl	_ZN4core9panicking18panic_bounds_check17he1dc5c093ac62635E
	.inst.n	0xdefe
.Ltmp1071:
.LBB8_80:
	.loc	3 886 0
	ldr	r0, [sp, #24]
	adds	r1, r0, r2
	subs	r0, r1, #4
	subs	r1, r1, #2
	b	.LBB8_83
.Ltmp1072:
.LBB8_81:
	.loc	3 888 0
	adds	r0, r1, r2
	subs	r0, r0, #2
	bl	_ZN4core5slice20slice_index_len_fail17h3a657df3a06ab6caE
.Ltmp1073:
	.inst.n	0xdefe
.Ltmp1074:
.LBB8_82:
	.loc	3 886 0
	subs	r0, r2, #2
	mov	r1, r2
.Ltmp1075:
.LBB8_83:
	.loc	3 0 0 is_stmt 0
	bl	_ZN4core5slice22slice_index_order_fail17h1ebe63c40336a21cE
	.inst.n	0xdefe
.LBB8_84:
.Ltmp1076:
	.loc	1 170 0 is_stmt 1
	ldr	r0, .LCPI8_0
	bl	_ZN4core9panicking5panic17hc432e1634db46879E
	.inst.n	0xdefe
.Ltmp1077:
.LBB8_85:
	.loc	1 161 0
	ldr	r0, .LCPI8_10
	movs	r2, #0
.Ltmp1078:
.LBB8_86:
	.loc	1 0 0 is_stmt 0
	mov	r1, r4
	bl	_ZN4core9panicking18panic_bounds_check17he1dc5c093ac62635E
	.inst.n	0xdefe
.LBB8_87:
	movs	r1, #0
	ldr	r0, [sp, #20]
	b	.LBB8_83
.LBB8_88:
.Ltmp1079:
	.loc	3 886 0 is_stmt 1
	mov	r1, r5
	b	.LBB8_83
.Ltmp1080:
.LBB8_89:
	.loc	3 888 0
	mov	r0, r5
.Ltmp1081:
	.loc	3 0 0 is_stmt 0
	b	.LBB8_94
.Ltmp1082:
.LBB8_90:
	.loc	3 886 0 is_stmt 1
	mov	r0, r5
	mov	r1, r3
	b	.LBB8_83
.Ltmp1083:
.LBB8_91:
	.loc	3 888 0
	mov	r0, r3
	bl	_ZN4core5slice20slice_index_len_fail17h3a657df3a06ab6caE
.Ltmp1084:
	.inst.n	0xdefe
.Ltmp1085:
.LBB8_92:
	.loc	3 886 0
	mov	r1, r4
	b	.LBB8_83
.Ltmp1086:
.LBB8_93:
	.loc	3 888 0
	mov	r0, r4
.Ltmp1087:
.LBB8_94:
	.loc	3 0 0 is_stmt 0
	ldr	r1, [sp, #24]
	bl	_ZN4core5slice20slice_index_len_fail17h3a657df3a06ab6caE
	.inst.n	0xdefe
.LBB8_95:
.Ltmp1088:
	.loc	3 876 0 is_stmt 1
	movs	r1, #200
.Ltmp1089:
.LBB8_96:
	.loc	3 0 0 is_stmt 0
	mov	r0, r2
	bl	_ZN4core5slice20slice_index_len_fail17h3a657df3a06ab6caE
	.inst.n	0xdefe
.LBB8_97:
	.loc	1 130 0 is_stmt 1
	ldr	r0, .LCPI8_7
	b	.LBB8_86
.Ltmp1090:
.LBB8_98:
	.loc	3 888 0
	mov	r0, r1
.Ltmp1091:
	mov	r1, r2
	bl	_ZN4core5slice20slice_index_len_fail17h3a657df3a06ab6caE
.Ltmp1092:
	.inst.n	0xdefe
.Ltmp1093:
.LBB8_99:
	.loc	1 167 0
	ldr	r0, .LCPI8_4
	movs	r2, #36
	mov	r1, r3
	bl	_ZN4core9panicking18panic_bounds_check17he1dc5c093ac62635E
	.inst.n	0xdefe
.LBB8_100:
	.loc	1 137 0
	ldr	r0, .LCPI8_5
	b	.LBB8_86
.Ltmp1094:
	.p2align	2
	.loc	1 0 0 is_stmt 0
.LCPI8_0:
	.long	panic_loc.X
.LCPI8_1:
	.long	10000
.LCPI8_2:
	.long	byte_str.d
.LCPI8_3:
	.long	99999999
.LCPI8_4:
	.long	panic_bounds_check_loc.N
.LCPI8_5:
	.long	panic_bounds_check_loc.O
.LCPI8_6:
	.long	byte_str.3
.LCPI8_7:
	.long	panic_bounds_check_loc.M
.LCPI8_8:
	.long	panic_bounds_check_loc.Y
.LCPI8_9:
	.long	panic_bounds_check_loc.Z
.LCPI8_10:
	.long	panic_bounds_check_loc.W
.Lfunc_end8:
	.size	_ZN49_$LT$u64$u20$as$u20$numtoa..NumToA$LT$u64$GT$$GT$6numtoa17h4125de4347fbe21bE, .Lfunc_end8-_ZN49_$LT$u64$u20$as$u20$numtoa..NumToA$LT$u64$GT$$GT$6numtoa17h4125de4347fbe21bE
	.cfi_endproc
	.cantunwind
	.fnend

	.section	".text._ZN53_$LT$usize$u20$as$u20$numtoa..NumToA$LT$usize$GT$$GT$6numtoa17h894ea63f69d05613E","ax",%progbits
	.globl	_ZN53_$LT$usize$u20$as$u20$numtoa..NumToA$LT$usize$GT$$GT$6numtoa17h894ea63f69d05613E
	.p2align	2
	.type	_ZN53_$LT$usize$u20$as$u20$numtoa..NumToA$LT$usize$GT$$GT$6numtoa17h894ea63f69d05613E,%function
	.code	16
	.thumb_func
_ZN53_$LT$usize$u20$as$u20$numtoa..NumToA$LT$usize$GT$$GT$6numtoa17h894ea63f69d05613E:
.Lfunc_begin9:
	.loc	1 146 0 is_stmt 1
	.fnstart
	.cfi_startproc
	.save	{r4, r5, r6, r7, lr}
	push	{r4, r5, r6, r7, lr}
.Lcfi63:
	.cfi_def_cfa_offset 20
.Lcfi64:
	.cfi_offset lr, -4
.Lcfi65:
	.cfi_offset r7, -8
.Lcfi66:
	.cfi_offset r6, -12
.Lcfi67:
	.cfi_offset r5, -16
.Lcfi68:
	.cfi_offset r4, -20
	.setfp	r7, sp, #12
	add	r7, sp, #12
.Lcfi69:
	.cfi_def_cfa r7, 8
	.pad	#20
	sub	sp, #20
	mov	r5, r1
.Ltmp1095:
	mov	r6, r0
.Ltmp1096:
	.loc	1 159 0 prologue_end
	subs	r4, r3, #1
.Ltmp1097:
	.loc	1 160 0
	cmp	r6, #0
	beq	.LBB9_6
.Ltmp1098:
	.loc	1 165 0
	cmp	r5, #10
	str	r3, [sp, #16]
	str	r2, [sp, #12]
	beq	.LBB9_8
.Ltmp1099:
	.loc	1 0 0 is_stmt 0
	cmp	r5, #0
	bne	.LBB9_3
	b	.LBB9_51
.Ltmp1100:
.LBB9_3:
	.loc	1 170 0 is_stmt 1
	mov	r0, r6
	mov	r1, r5
	bl	__aeabi_uidivmod
.Ltmp1101:
	.loc	1 171 0
	cmp	r1, #35
	bls	.LBB9_4
	b	.LBB9_43
.Ltmp1102:
.LBB9_4:
	ldr	r0, [sp, #16]
	cmp	r4, r0
	ldr	r2, [sp, #12]
	blo	.LBB9_5
	b	.LBB9_44
.Ltmp1103:
.LBB9_5:
	ldr	r0, .LCPI9_5
	ldrb	r0, [r0, r1]
	strb	r0, [r2, r4]
	.loc	1 173 0
	mov	r0, r6
	mov	r1, r5
	bl	__aeabi_uidiv
.Ltmp1104:
	.loc	2 1806 0
	subs	r4, r4, #1
.Ltmp1105:
	.loc	1 169 0
	cmp	r6, r5
	mov	r6, r0
.Ltmp1106:
	.loc	1 0 0 is_stmt 0
	bhs	.LBB9_3
	b	.LBB9_40
.Ltmp1107:
.LBB9_6:
	.loc	1 161 0 is_stmt 1
	cmp	r3, #0
	bne	.LBB9_7
	b	.LBB9_52
.Ltmp1108:
.LBB9_7:
	movs	r0, #48
	strb	r0, [r2, r4]
	b	.LBB9_41
.Ltmp1109:
.LBB9_8:
	.loc	1 167 0
	ldr	r0, .LCPI9_1
	cmp	r6, r0
	blo	.LBB9_18
.Ltmp1110:
	.loc	1 167 0 is_stmt 0
	adds	r0, r2, r4
	str	r0, [sp, #4]
	movs	r5, #0
.Ltmp1111:
	str	r4, [sp]
.Ltmp1112:
.LBB9_10:
	ldr	r1, .LCPI9_1
	mov	r0, r6
	bl	__aeabi_uidivmod
.Ltmp1113:
	.loc	1 167 0
	movs	r2, #100
	mov	r0, r1
	mov	r1, r2
	bl	__aeabi_uidivmod
.Ltmp1114:
	.loc	3 885 0 is_stmt 1
	adds	r2, r4, r5
	subs	r3, r2, #1
.Ltmp1115:
	.loc	1 167 0
	lsls	r1, r1, #1
	str	r1, [sp, #8]
	lsls	r0, r0, #1
	subs	r1, r2, #3
.Ltmp1116:
	.loc	3 885 0
	cmp	r3, r1
	bhs	.LBB9_11
	b	.LBB9_47
.Ltmp1117:
.LBB9_11:
	.loc	3 887 0
	ldr	r1, [sp, #16]
	cmp	r3, r1
.Ltmp1118:
	.loc	3 0 0 is_stmt 0
	bls	.LBB9_12
	b	.LBB9_48
.Ltmp1119:
.LBB9_12:
	.loc	1 167 0 is_stmt 1
	uxth	r1, r0
.Ltmp1120:
	adds	r0, r1, #2
.Ltmp1121:
	.loc	3 875 0
	cmp	r0, #201
	blo	.LBB9_13
	b	.LBB9_42
.Ltmp1122:
.LBB9_13:
	.loc	3 672 0
	ldr	r0, .LCPI9_2
	ldrh	r0, [r0, r1]
	ldr	r1, [sp, #4]
	adds	r4, r1, r5
.Ltmp1123:
	.loc	3 0 0 is_stmt 0
	movs	r1, #0
	mvns	r2, r1
	.loc	3 672 0
	lsls	r1, r2, #1
	adds	r1, r4, r1
	strb	r0, [r1, r2]
	lsrs	r0, r0, #8
	subs	r1, r1, #1
.Ltmp1124:
	strb	r0, [r1, #1]
	ldr	r0, [sp, #16]
.Ltmp1125:
	.loc	3 885 0 is_stmt 1
	adds	r1, r0, r5
	cmp	r1, r3
	bhs	.LBB9_14
	b	.LBB9_49
.Ltmp1126:
.LBB9_14:
	.loc	3 887 0
	cmp	r1, r0
	bls	.LBB9_15
	b	.LBB9_45
.Ltmp1127:
.LBB9_15:
	.loc	1 167 0
	ldr	r0, [sp, #8]
	uxth	r1, r0
.Ltmp1128:
	adds	r0, r1, #2
.Ltmp1129:
	.loc	3 875 0
	cmp	r0, #201
	blo	.LBB9_16
	b	.LBB9_42
.Ltmp1130:
.LBB9_16:
	.loc	3 672 0
	ldr	r0, .LCPI9_2
	ldrh	r0, [r0, r1]
	strb	r0, [r4, r2]
	adds	r1, r4, r2
	lsrs	r0, r0, #8
	strb	r0, [r1, #1]
.Ltmp1131:
	.loc	1 167 0
	ldr	r1, .LCPI9_1
	mov	r0, r6
	bl	__aeabi_uidiv
	mov	r3, r0
.Ltmp1132:
	.loc	1 167 0 is_stmt 0
	subs	r5, r5, #4
	ldr	r0, .LCPI9_3
	cmp	r6, r0
	mov	r6, r3
	ldr	r4, [sp]
	bhi	.LBB9_10
.Ltmp1133:
	ldr	r0, [sp, #16]
	adds	r0, r0, r5
	subs	r4, r0, #1
	ldr	r2, [sp, #12]
	b	.LBB9_19
.Ltmp1134:
.LBB9_18:
	.loc	1 0 0
	mov	r3, r6
.Ltmp1135:
.LBB9_19:
	.loc	1 167 0
	lsrs	r0, r3, #3
	cmp	r0, #124
	bls	.LBB9_27
.Ltmp1136:
	.loc	1 167 0
	movs	r1, #100
	mov	r0, r3
	bl	__aeabi_uidivmod
	lsls	r3, r1, #1
.Ltmp1137:
	lsls	r5, r0, #1
.Ltmp1138:
	subs	r1, r4, #1
.Ltmp1139:
	subs	r0, r4, #3
.Ltmp1140:
	.loc	3 885 0 is_stmt 1
	cmp	r1, r0
	bhs	.LBB9_21
	b	.LBB9_50
.Ltmp1141:
.LBB9_21:
	.loc	3 887 0
	ldr	r2, [sp, #16]
	cmp	r1, r2
.Ltmp1142:
	.loc	3 0 0 is_stmt 0
	bhi	.LBB9_45
.Ltmp1143:
	mov	r6, r4
	.loc	1 167 0 is_stmt 1
	adds	r2, r5, #2
.Ltmp1144:
	.loc	3 875 0
	cmp	r2, #201
	blo	.LBB9_23
	b	.LBB9_54
.Ltmp1145:
.LBB9_23:
	.loc	4 582 0
	ldr	r4, .LCPI9_2
.Ltmp1146:
	.loc	3 672 0
	ldrh	r2, [r4, r5]
.Ltmp1147:
	.loc	3 0 0 is_stmt 0
	ldr	r5, [sp, #12]
.Ltmp1148:
	.loc	3 672 0
	strb	r2, [r5, r0]
.Ltmp1149:
	.loc	4 1215 0 is_stmt 1
	adds	r0, r5, r0
.Ltmp1150:
	.loc	3 672 0
	lsrs	r2, r2, #8
	strb	r2, [r0, #1]
.Ltmp1151:
	.loc	1 167 0
	adds	r2, r6, #1
.Ltmp1152:
	.loc	3 885 0
	cmp	r2, r1
.Ltmp1153:
	.loc	3 0 0 is_stmt 0
	bhs	.LBB9_24
	b	.LBB9_55
.Ltmp1154:
.LBB9_24:
	ldr	r0, [sp, #16]
	.loc	3 887 0 is_stmt 1
	cmp	r2, r0
.Ltmp1155:
	.loc	3 0 0 is_stmt 0
	bls	.LBB9_25
	b	.LBB9_56
.Ltmp1156:
.LBB9_25:
	.loc	1 167 0 is_stmt 1
	adds	r0, r3, #2
.Ltmp1157:
	.loc	3 875 0
	cmp	r0, #201
	bhs	.LBB9_42
.Ltmp1158:
	.loc	3 672 0
	ldrh	r0, [r4, r3]
.Ltmp1159:
	.loc	3 0 0 is_stmt 0
	ldr	r2, [sp, #12]
.Ltmp1160:
	.loc	3 672 0
	strb	r0, [r2, r1]
.Ltmp1161:
	.loc	4 1215 0 is_stmt 1
	adds	r1, r2, r1
.Ltmp1162:
	.loc	3 672 0
	lsrs	r0, r0, #8
	strb	r0, [r1, #1]
	movs	r0, #4
.Ltmp1163:
	.loc	3 0 0 is_stmt 0
	mov	r4, r6
	b	.LBB9_39
.Ltmp1164:
.LBB9_27:
	.loc	1 167 0 is_stmt 1
	cmp	r3, #100
	blo	.LBB9_33
	.loc	1 0 0 is_stmt 0
	mov	r5, r3
.Ltmp1165:
	.loc	1 167 0
	uxth	r0, r3
	movs	r1, #10
	bl	__aeabi_uidiv
	lsls	r1, r0, #1
	subs	r0, r4, #2
.Ltmp1166:
	.loc	3 885 0 is_stmt 1
	cmp	r4, #1
	bls	.LBB9_58
.Ltmp1167:
	.loc	3 887 0
	ldr	r2, [sp, #16]
	cmp	r4, r2
.Ltmp1168:
	.loc	3 0 0 is_stmt 0
	bhi	.LBB9_59
.Ltmp1169:
	.loc	1 167 0 is_stmt 1
	uxth	r1, r1
.Ltmp1170:
	adds	r2, r1, #2
.Ltmp1171:
	.loc	3 875 0
	cmp	r2, #201
	mov	r3, r5
	bhs	.LBB9_54
.Ltmp1172:
	.loc	4 582 0
	ldr	r2, .LCPI9_2
.Ltmp1173:
	.loc	3 672 0
	ldrh	r1, [r2, r1]
.Ltmp1174:
	.loc	3 0 0 is_stmt 0
	ldr	r5, [sp, #12]
.Ltmp1175:
	.loc	3 672 0
	strb	r1, [r5, r0]
.Ltmp1176:
	.loc	4 1215 0 is_stmt 1
	adds	r0, r5, r0
.Ltmp1177:
	.loc	3 672 0
	lsrs	r1, r1, #8
	strb	r1, [r0, #1]
	ldr	r0, [sp, #16]
.Ltmp1178:
	.loc	1 130 0
	cmp	r4, r0
.Ltmp1179:
	bhs	.LBB9_60
.Ltmp1180:
	.loc	1 167 0
	movs	r1, #10
	mov	r0, r3
	bl	__aeabi_uidivmod
	ldr	r0, .LCPI9_5
	ldrb	r0, [r0, r1]
	.loc	1 130 0
	strb	r0, [r5, r4]
	movs	r0, #3
	b	.LBB9_39
.Ltmp1181:
.LBB9_33:
	.loc	1 167 0
	cmp	r3, #9
	bls	.LBB9_37
	.loc	1 0 0 is_stmt 0
	mov	r1, r3
	.loc	1 167 0
	adds	r3, r4, #1
.Ltmp1182:
	subs	r0, r4, #1
.Ltmp1183:
	lsls	r2, r1, #1
.Ltmp1184:
	.loc	3 885 0 is_stmt 1
	cmp	r3, r0
	blo	.LBB9_61
.Ltmp1185:
	.loc	3 0 0 is_stmt 0
	ldr	r1, [sp, #16]
	.loc	3 887 0 is_stmt 1
	cmp	r3, r1
.Ltmp1186:
	bhi	.LBB9_62
.Ltmp1187:
	.loc	4 582 0
	ldr	r1, .LCPI9_2
.Ltmp1188:
	.loc	3 672 0
	ldrh	r1, [r1, r2]
.Ltmp1189:
	.loc	3 0 0 is_stmt 0
	ldr	r2, [sp, #12]
.Ltmp1190:
	.loc	3 672 0
	strb	r1, [r2, r0]
.Ltmp1191:
	.loc	4 1215 0 is_stmt 1
	adds	r0, r2, r0
.Ltmp1192:
	.loc	3 672 0
	lsrs	r1, r1, #8
	strb	r1, [r0, #1]
	movs	r0, #2
.Ltmp1193:
	.loc	3 0 0 is_stmt 0
	b	.LBB9_39
.Ltmp1194:
.LBB9_37:
	ldr	r0, [sp, #16]
	.loc	1 137 0 is_stmt 1
	cmp	r4, r0
	bhs	.LBB9_63
	.loc	1 167 0
	ldr	r0, .LCPI9_5
	ldrb	r0, [r0, r3]
.Ltmp1195:
	.loc	1 137 0
	strb	r0, [r2, r4]
	movs	r0, #1
.Ltmp1196:
.LBB9_39:
	.loc	2 1806 0
	subs	r4, r4, r0
.Ltmp1197:
.LBB9_40:
	.loc	2 1787 0
	adds	r4, r4, #1
.Ltmp1198:
.LBB9_41:
	.loc	1 178 0
	mov	r0, r4
	add	sp, #20
	pop	{r4, r5, r6, r7, pc}
.LBB9_42:
	.loc	1 0 0 is_stmt 0
	movs	r1, #200
	bl	_ZN4core5slice20slice_index_len_fail17h3a657df3a06ab6caE
	.inst.n	0xdefe
.LBB9_43:
.Ltmp1199:
	.loc	1 171 0 is_stmt 1
	ldr	r0, .LCPI9_7
	movs	r2, #36
	bl	_ZN4core9panicking18panic_bounds_check17he1dc5c093ac62635E
	.inst.n	0xdefe
.Ltmp1200:
.LBB9_44:
	ldr	r0, .LCPI9_8
	mov	r1, r4
	ldr	r2, [sp, #16]
	bl	_ZN4core9panicking18panic_bounds_check17he1dc5c093ac62635E
	.inst.n	0xdefe
.Ltmp1201:
.LBB9_45:
	.loc	1 0 0 is_stmt 0
	mov	r0, r1
.LBB9_46:
	ldr	r1, [sp, #16]
	bl	_ZN4core5slice20slice_index_len_fail17h3a657df3a06ab6caE
	.inst.n	0xdefe
.LBB9_47:
.Ltmp1202:
	.loc	3 886 0 is_stmt 1
	ldr	r0, [sp, #16]
	adds	r1, r0, r5
	subs	r0, r1, #4
	subs	r1, r1, #2
	b	.LBB9_50
.Ltmp1203:
.LBB9_48:
	.loc	3 0 0 is_stmt 0
	ldr	r1, [sp, #16]
	.loc	3 888 0 is_stmt 1
	adds	r0, r1, r5
	subs	r0, r0, #2
	bl	_ZN4core5slice20slice_index_len_fail17h3a657df3a06ab6caE
.Ltmp1204:
	.inst.n	0xdefe
.Ltmp1205:
.LBB9_49:
	.loc	3 886 0
	subs	r0, r1, #2
.Ltmp1206:
.LBB9_50:
	.loc	3 0 0 is_stmt 0
	bl	_ZN4core5slice22slice_index_order_fail17h1ebe63c40336a21cE
	.inst.n	0xdefe
.LBB9_51:
.Ltmp1207:
	.loc	1 170 0 is_stmt 1
	ldr	r0, .LCPI9_0
	bl	_ZN4core9panicking5panic17hc432e1634db46879E
.Ltmp1208:
	.inst.n	0xdefe
.Ltmp1209:
.LBB9_52:
	.loc	1 161 0
	ldr	r0, .LCPI9_9
	movs	r2, #0
.Ltmp1210:
.LBB9_53:
	.loc	1 0 0 is_stmt 0
	mov	r1, r4
	bl	_ZN4core9panicking18panic_bounds_check17he1dc5c093ac62635E
	.inst.n	0xdefe
.LBB9_54:
	movs	r1, #200
	b	.LBB9_57
.LBB9_55:
.Ltmp1211:
	.loc	3 886 0 is_stmt 1
	mov	r0, r1
	mov	r1, r2
	b	.LBB9_50
.Ltmp1212:
.LBB9_56:
	.loc	3 0 0 is_stmt 0
	mov	r1, r0
.LBB9_57:
	mov	r0, r2
	bl	_ZN4core5slice20slice_index_len_fail17h3a657df3a06ab6caE
	.inst.n	0xdefe
.LBB9_58:
.Ltmp1213:
	.loc	3 886 0
	mov	r1, r4
	b	.LBB9_50
.Ltmp1214:
.LBB9_59:
	.loc	3 888 0 is_stmt 1
	mov	r0, r4
.Ltmp1215:
	.loc	3 0 0 is_stmt 0
	b	.LBB9_46
.Ltmp1216:
.LBB9_60:
	mov	r2, r0
	.loc	1 130 0 is_stmt 1
	ldr	r0, .LCPI9_6
	b	.LBB9_53
.Ltmp1217:
.LBB9_61:
	.loc	3 886 0
	mov	r1, r3
	b	.LBB9_50
.Ltmp1218:
.LBB9_62:
	.loc	3 888 0
	mov	r0, r3
.Ltmp1219:
	bl	_ZN4core5slice20slice_index_len_fail17h3a657df3a06ab6caE
.Ltmp1220:
	.inst.n	0xdefe
.Ltmp1221:
.LBB9_63:
	.loc	3 0 0 is_stmt 0
	mov	r2, r0
	.loc	1 137 0 is_stmt 1
	ldr	r0, .LCPI9_4
	b	.LBB9_53
.Ltmp1222:
	.p2align	2
	.loc	1 0 0 is_stmt 0
.LCPI9_0:
	.long	panic_loc.X
.LCPI9_1:
	.long	10000
.LCPI9_2:
	.long	byte_str.d
.LCPI9_3:
	.long	99999999
.LCPI9_4:
	.long	panic_bounds_check_loc.O
.LCPI9_5:
	.long	byte_str.3
.LCPI9_6:
	.long	panic_bounds_check_loc.M
.LCPI9_7:
	.long	panic_bounds_check_loc.Y
.LCPI9_8:
	.long	panic_bounds_check_loc.Z
.LCPI9_9:
	.long	panic_bounds_check_loc.W
.Lfunc_end9:
	.size	_ZN53_$LT$usize$u20$as$u20$numtoa..NumToA$LT$usize$GT$$GT$6numtoa17h894ea63f69d05613E, .Lfunc_end9-_ZN53_$LT$usize$u20$as$u20$numtoa..NumToA$LT$usize$GT$$GT$6numtoa17h894ea63f69d05613E
	.cfi_endproc
	.cantunwind
	.fnend

	.type	byte_str.3,%object
	.section	.rodata.byte_str.3,"a",%progbits
	.p2align	2
byte_str.3:
	.ascii	"0123456789ABCDEFGHIJKLMNOPQRSTUVWXYZ"
	.size	byte_str.3, 36

	.type	str.4,%object
	.section	.rodata.str.4,"a",%progbits
	.p2align	4
str.4:
	.ascii	"/Users/arko/.cargo/registry/src/github.com-1ecc6299db9ec823/numtoa-0.0.7/src/lib.rs"
	.size	str.4, 83

	.type	str.5,%object
	.section	.rodata.str.5,"a",%progbits
	.p2align	4
str.5:
	.ascii	"attempt to calculate the remainder with overflow"
	.size	str.5, 48

	.type	panic_bounds_check_loc.8,%object
	.section	.rodata.panic_bounds_check_loc.8,"a",%progbits
	.p2align	2
panic_bounds_check_loc.8:
	.long	str.4
	.long	83
	.long	267
	.long	21
	.size	panic_bounds_check_loc.8, 16

	.type	panic_bounds_check_loc.b,%object
	.section	.rodata.panic_bounds_check_loc.b,"a",%progbits
	.p2align	2
panic_bounds_check_loc.b:
	.long	str.4
	.long	83
	.long	273
	.long	13
	.size	panic_bounds_check_loc.b, 16

	.type	byte_str.d,%object
	.section	.rodata.byte_str.d,"a",%progbits
	.p2align	2
byte_str.d:
	.ascii	"00010203040506070809101112131415161718192021222324252627282930313233343536373839404142434445464748495051525354555657585960616263646566676869707172737475767778798081828384858687888990919293949596979899"
	.size	byte_str.d, 200

	.type	panic_bounds_check_loc.g,%object
	.section	.rodata.panic_bounds_check_loc.g,"a",%progbits
	.p2align	2
panic_bounds_check_loc.g:
	.long	str.4
	.long	83
	.long	281
	.long	17
	.size	panic_bounds_check_loc.g, 16

	.type	panic_bounds_check_loc.h,%object
	.section	.rodata.panic_bounds_check_loc.h,"a",%progbits
	.p2align	2
panic_bounds_check_loc.h:
	.long	str.4
	.long	83
	.long	288
	.long	33
	.size	panic_bounds_check_loc.h, 16

	.type	panic_bounds_check_loc.i,%object
	.section	.rodata.panic_bounds_check_loc.i,"a",%progbits
	.p2align	2
panic_bounds_check_loc.i:
	.long	str.4
	.long	83
	.long	288
	.long	17
	.size	panic_bounds_check_loc.i, 16

	.type	str.j,%object
	.section	.rodata.str.j,"a",%progbits
	.p2align	4
str.j:
	.ascii	"attempt to calculate the remainder with a divisor of zero"
	.size	str.j, 57

	.type	panic_loc.k,%object
	.section	.rodata.panic_loc.k,"a",%progbits
	.p2align	2
panic_loc.k:
	.long	str.j
	.long	57
	.long	str.4
	.long	83
	.long	293
	.long	27
	.size	panic_loc.k, 24

	.type	panic_loc.l,%object
	.section	.rodata.panic_loc.l,"a",%progbits
	.p2align	2
panic_loc.l:
	.long	str.5
	.long	48
	.long	str.4
	.long	83
	.long	293
	.long	27
	.size	panic_loc.l, 24

	.type	panic_bounds_check_loc.m,%object
	.section	.rodata.panic_bounds_check_loc.m,"a",%progbits
	.p2align	2
panic_bounds_check_loc.m:
	.long	str.4
	.long	83
	.long	294
	.long	33
	.size	panic_bounds_check_loc.m, 16

	.type	panic_bounds_check_loc.n,%object
	.section	.rodata.panic_bounds_check_loc.n,"a",%progbits
	.p2align	2
panic_bounds_check_loc.n:
	.long	str.4
	.long	83
	.long	294
	.long	17
	.size	panic_bounds_check_loc.n, 16

	.type	panic_bounds_check_loc.r,%object
	.section	.rodata.panic_bounds_check_loc.r,"a",%progbits
	.p2align	2
panic_bounds_check_loc.r:
	.long	str.4
	.long	83
	.long	301
	.long	13
	.size	panic_bounds_check_loc.r, 16

	.type	panic_bounds_check_loc.s,%object
	.section	.rodata.panic_bounds_check_loc.s,"a",%progbits
	.p2align	2
panic_bounds_check_loc.s:
	.long	str.4
	.long	83
	.long	319
	.long	13
	.size	panic_bounds_check_loc.s, 16

	.type	panic_bounds_check_loc.w,%object
	.section	.rodata.panic_bounds_check_loc.w,"a",%progbits
	.p2align	2
panic_bounds_check_loc.w:
	.long	str.4
	.long	83
	.long	334
	.long	17
	.size	panic_bounds_check_loc.w, 16

	.type	panic_loc.x,%object
	.section	.rodata.panic_loc.x,"a",%progbits
	.p2align	2
panic_loc.x:
	.long	str.j
	.long	57
	.long	str.4
	.long	83
	.long	339
	.long	27
	.size	panic_loc.x, 24

	.type	panic_bounds_check_loc.y,%object
	.section	.rodata.panic_bounds_check_loc.y,"a",%progbits
	.p2align	2
panic_bounds_check_loc.y:
	.long	str.4
	.long	83
	.long	340
	.long	33
	.size	panic_bounds_check_loc.y, 16

	.type	panic_bounds_check_loc.z,%object
	.section	.rodata.panic_bounds_check_loc.z,"a",%progbits
	.p2align	2
panic_bounds_check_loc.z:
	.long	str.4
	.long	83
	.long	340
	.long	17
	.size	panic_bounds_check_loc.z, 16

	.type	panic_bounds_check_loc.D,%object
	.section	.rodata.panic_bounds_check_loc.D,"a",%progbits
	.p2align	2
panic_bounds_check_loc.D:
	.long	str.4
	.long	83
	.long	207
	.long	29
	.size	panic_bounds_check_loc.D, 16

	.type	panic_bounds_check_loc.F,%object
	.section	.rodata.panic_bounds_check_loc.F,"a",%progbits
	.p2align	2
panic_bounds_check_loc.F:
	.long	str.4
	.long	83
	.long	213
	.long	21
	.size	panic_bounds_check_loc.F, 16

	.type	panic_bounds_check_loc.M,%object
	.section	.rodata.panic_bounds_check_loc.M,"a",%progbits
	.p2align	2
panic_bounds_check_loc.M:
	.long	str.4
	.long	83
	.long	130
	.long	27
	.size	panic_bounds_check_loc.M, 16

	.type	panic_bounds_check_loc.N,%object
	.section	.rodata.panic_bounds_check_loc.N,"a",%progbits
	.p2align	2
panic_bounds_check_loc.N:
	.long	str.4
	.long	83
	.long	137
	.long	31
	.size	panic_bounds_check_loc.N, 16

	.type	panic_bounds_check_loc.O,%object
	.section	.rodata.panic_bounds_check_loc.O,"a",%progbits
	.p2align	2
panic_bounds_check_loc.O:
	.long	str.4
	.long	83
	.long	137
	.long	27
	.size	panic_bounds_check_loc.O, 16

	.type	panic_loc.P,%object
	.section	.rodata.panic_loc.P,"a",%progbits
	.p2align	2
panic_loc.P:
	.long	str.j
	.long	57
	.long	str.4
	.long	83
	.long	222
	.long	35
	.size	panic_loc.P, 24

	.type	panic_loc.Q,%object
	.section	.rodata.panic_loc.Q,"a",%progbits
	.p2align	2
panic_loc.Q:
	.long	str.5
	.long	48
	.long	str.4
	.long	83
	.long	222
	.long	35
	.size	panic_loc.Q, 24

	.type	panic_bounds_check_loc.R,%object
	.section	.rodata.panic_bounds_check_loc.R,"a",%progbits
	.p2align	2
panic_bounds_check_loc.R:
	.long	str.4
	.long	83
	.long	223
	.long	41
	.size	panic_bounds_check_loc.R, 16

	.type	panic_bounds_check_loc.S,%object
	.section	.rodata.panic_bounds_check_loc.S,"a",%progbits
	.p2align	2
panic_bounds_check_loc.S:
	.long	str.4
	.long	83
	.long	223
	.long	25
	.size	panic_bounds_check_loc.S, 16

	.type	panic_bounds_check_loc.V,%object
	.section	.rodata.panic_bounds_check_loc.V,"a",%progbits
	.p2align	2
panic_bounds_check_loc.V:
	.long	str.4
	.long	83
	.long	230
	.long	21
	.size	panic_bounds_check_loc.V, 16

	.type	panic_bounds_check_loc.W,%object
	.section	.rodata.panic_bounds_check_loc.W,"a",%progbits
	.p2align	2
panic_bounds_check_loc.W:
	.long	str.4
	.long	83
	.long	161
	.long	21
	.size	panic_bounds_check_loc.W, 16

	.type	panic_loc.X,%object
	.section	.rodata.panic_loc.X,"a",%progbits
	.p2align	2
panic_loc.X:
	.long	str.j
	.long	57
	.long	str.4
	.long	83
	.long	170
	.long	35
	.size	panic_loc.X, 24

	.type	panic_bounds_check_loc.Y,%object
	.section	.rodata.panic_bounds_check_loc.Y,"a",%progbits
	.p2align	2
panic_bounds_check_loc.Y:
	.long	str.4
	.long	83
	.long	171
	.long	41
	.size	panic_bounds_check_loc.Y, 16

	.type	panic_bounds_check_loc.Z,%object
	.section	.rodata.panic_bounds_check_loc.Z,"a",%progbits
	.p2align	2
panic_bounds_check_loc.Z:
	.long	str.4
	.long	83
	.long	171
	.long	25
	.size	panic_bounds_check_loc.Z, 16

	.section	".note.GNU-stack","",%progbits
	.eabi_attribute	30, 3