	.text
	.syntax unified
	.eabi_attribute	67, "2.09"
	.eabi_attribute	6, 12
	.eabi_attribute	8, 0
	.eabi_attribute	9, 1
	.eabi_attribute	17, 1
	.eabi_attribute	20, 1
	.eabi_attribute	21, 1
	.eabi_attribute	23, 3
	.eabi_attribute	34, 0
	.eabi_attribute	24, 1
	.eabi_attribute	25, 1
	.eabi_attribute	38, 1
	.eabi_attribute	14, 0
	.file	"r00-8e2a0c6938386e95fcf66af6bffd084e.rs"
	.section	.text._ZN2r014run_init_array17h981878f3db5560edE,"ax",%progbits
	.globl	_ZN2r014run_init_array17h981878f3db5560edE
	.p2align	1
	.type	_ZN2r014run_init_array17h981878f3db5560edE,%function
	.code	16
	.thumb_func
_ZN2r014run_init_array17h981878f3db5560edE:
.Lfunc_begin0:
	.file	1 "/Users/arko/.cargo/registry/src/github.com-1ecc6299db9ec823/r0-0.2.2/src/lib.rs"
	.loc	1 139 0
	.fnstart
	.cfi_sections .debug_frame
	.cfi_startproc
	.save	{r4, r5, r7, lr}
	push	{r4, r5, r7, lr}
.Lcfi0:
	.cfi_def_cfa_offset 16
.Lcfi1:
	.cfi_offset lr, -4
.Lcfi2:
	.cfi_offset r7, -8
.Lcfi3:
	.cfi_offset r5, -12
.Lcfi4:
	.cfi_offset r4, -16
	.setfp	r7, sp, #8
	add	r7, sp, #8
.Lcfi5:
	.cfi_def_cfa r7, 8
	mov	r4, r0
.Ltmp0:
	.loc	1 143 0 prologue_end
	subs	r0, r1, r4
	lsrs	r0, r0, #2
.Ltmp1:
	.loc	1 0 0 is_stmt 0
	beq	.LBB0_3
.Ltmp2:
	.file	2 "/Users/arko/.rustup/toolchains/nightly-x86_64-apple-darwin/lib/rustlib/src/rust/src/libcore/slice/mod.rs"
	.loc	2 1 0 is_stmt 1
	lsls	r5, r0, #2
.Ltmp3:
.LBB0_2:
	.loc	1 148 0
	ldm	r4!, {r0}
.Ltmp4:
	blx	r0
.Ltmp5:
	.loc	2 1138 0
	subs	r5, r5, #4
	bne	.LBB0_2
.Ltmp6:
.LBB0_3:
	.loc	1 150 0
	pop	{r4, r5, r7, pc}
.Ltmp7:
.Lfunc_end0:
	.size	_ZN2r014run_init_array17h981878f3db5560edE, .Lfunc_end0-_ZN2r014run_init_array17h981878f3db5560edE
	.cfi_endproc
	.cantunwind
	.fnend

	.section	".note.GNU-stack","",%progbits
	.eabi_attribute	30, 3