
src/build/fast-f042-48000000i/onebutton.elf:     file format elf32-littlearm

Sections:
Idx Name          Size      VMA       LMA       File off  Algn
  0 .isr_vector   000000c4  08000000  08000000  00010000  2**0
                  CONTENTS, ALLOC, LOAD, READONLY, DATA
  1 .text         00003130  080000c4  080000c4  000100c4  2**2
                  CONTENTS, ALLOC, LOAD, READONLY, CODE
  2 .ARM          00000008  080031f4  080031f4  000131f4  2**2
                  CONTENTS, ALLOC, LOAD, READONLY, DATA
  3 .init_array   0000000c  080031fc  080031fc  000131fc  2**2
                  CONTENTS, ALLOC, LOAD, DATA
  4 .fini_array   00000004  08003208  08003208  00013208  2**2
                  CONTENTS, ALLOC, LOAD, DATA
  5 .data         0000084c  20000000  0800320c  00020000  2**3
                  CONTENTS, ALLOC, LOAD, DATA
  6 .bss          000000a4  2000084c  08003a58  0002084c  2**2
                  ALLOC
  7 ._user_heap_stack 00000400  200008f0  08003afc  0002084c  2**0
                  ALLOC
  8 .ARM.attributes 00000028  00000000  00000000  0002084c  2**0
                  CONTENTS, READONLY
  9 .debug_info   000229a4  00000000  00000000  00020874  2**0
                  CONTENTS, READONLY, DEBUGGING
 10 .debug_abbrev 00002e10  00000000  00000000  00043218  2**0
                  CONTENTS, READONLY, DEBUGGING
 11 .debug_loc    0000ab43  00000000  00000000  00046028  2**0
                  CONTENTS, READONLY, DEBUGGING
 12 .debug_aranges 00000528  00000000  00000000  00050b6b  2**0
                  CONTENTS, READONLY, DEBUGGING
 13 .debug_ranges 00001ca8  00000000  00000000  00051093  2**0
                  CONTENTS, READONLY, DEBUGGING
 14 .debug_line   000040e4  00000000  00000000  00052d3b  2**0
                  CONTENTS, READONLY, DEBUGGING
 15 .debug_str    00017358  00000000  00000000  00056e1f  2**0
                  CONTENTS, READONLY, DEBUGGING
 16 .comment      0000007f  00000000  00000000  0006e177  2**0
                  CONTENTS, READONLY
 17 .debug_frame  00000ed4  00000000  00000000  0006e1f8  2**2
                  CONTENTS, READONLY, DEBUGGING

Disassembly of section .text:

080000c4 <__do_global_dtors_aux>:
 80000c4:	b510      	push	{r4, lr}
 80000c6:	4c06      	ldr	r4, [pc, #24]	; (80000e0 <__do_global_dtors_aux+0x1c>)
 80000c8:	7823      	ldrb	r3, [r4, #0]
 80000ca:	2b00      	cmp	r3, #0
 80000cc:	d107      	bne.n	80000de <__do_global_dtors_aux+0x1a>
 80000ce:	4b05      	ldr	r3, [pc, #20]	; (80000e4 <__do_global_dtors_aux+0x20>)
 80000d0:	2b00      	cmp	r3, #0
 80000d2:	d002      	beq.n	80000da <__do_global_dtors_aux+0x16>
 80000d4:	4804      	ldr	r0, [pc, #16]	; (80000e8 <__do_global_dtors_aux+0x24>)
 80000d6:	e000      	b.n	80000da <__do_global_dtors_aux+0x16>
 80000d8:	bf00      	nop
 80000da:	2301      	movs	r3, #1
 80000dc:	7023      	strb	r3, [r4, #0]
 80000de:	bd10      	pop	{r4, pc}
 80000e0:	2000084c 	.word	0x2000084c
 80000e4:	00000000 	.word	0x00000000
 80000e8:	080031dc 	.word	0x080031dc

080000ec <frame_dummy>:
 80000ec:	4b08      	ldr	r3, [pc, #32]	; (8000110 <frame_dummy+0x24>)
 80000ee:	b510      	push	{r4, lr}
 80000f0:	2b00      	cmp	r3, #0
 80000f2:	d003      	beq.n	80000fc <frame_dummy+0x10>
 80000f4:	4907      	ldr	r1, [pc, #28]	; (8000114 <frame_dummy+0x28>)
 80000f6:	4808      	ldr	r0, [pc, #32]	; (8000118 <frame_dummy+0x2c>)
 80000f8:	e000      	b.n	80000fc <frame_dummy+0x10>
 80000fa:	bf00      	nop
 80000fc:	4807      	ldr	r0, [pc, #28]	; (800011c <frame_dummy+0x30>)
 80000fe:	6803      	ldr	r3, [r0, #0]
 8000100:	2b00      	cmp	r3, #0
 8000102:	d100      	bne.n	8000106 <frame_dummy+0x1a>
 8000104:	bd10      	pop	{r4, pc}
 8000106:	4b06      	ldr	r3, [pc, #24]	; (8000120 <frame_dummy+0x34>)
 8000108:	2b00      	cmp	r3, #0
 800010a:	d0fb      	beq.n	8000104 <frame_dummy+0x18>
 800010c:	4798      	blx	r3
 800010e:	e7f9      	b.n	8000104 <frame_dummy+0x18>
 8000110:	00000000 	.word	0x00000000
 8000114:	20000850 	.word	0x20000850
 8000118:	080031dc 	.word	0x080031dc
 800011c:	2000084c 	.word	0x2000084c
 8000120:	00000000 	.word	0x00000000

08000124 <_ZN9OneButton18onTransmitCompleteEht>:
     * Finished sending data to the host
     */

    void onTransmitComplete(uint8_t /* endpointIndex */,uint16_t /* size */) {
      // ACK received from the host
    }
 8000124:	4770      	bx	lr
 8000126:	46c0      	nop			; (mov r8, r8)

08000128 <_ZN9OneButton14onStatusChangeEN9stm32plus13UsbStatusTypeE>:
     * Device status change event
     */

    void onStatusChange(UsbStatusType newStatus) {

      switch(newStatus) {
 8000128:	2907      	cmp	r1, #7
 800012a:	d008      	beq.n	800013e <_ZN9OneButton14onStatusChangeEN9stm32plus13UsbStatusTypeE+0x16>
 800012c:	dc02      	bgt.n	8000134 <_ZN9OneButton14onStatusChangeEN9stm32plus13UsbStatusTypeE+0xc>
 800012e:	2905      	cmp	r1, #5
 8000130:	da02      	bge.n	8000138 <_ZN9OneButton14onStatusChangeEN9stm32plus13UsbStatusTypeE+0x10>
          break;

        default:
          break;
      }
    }
 8000132:	4770      	bx	lr
      switch(newStatus) {
 8000134:	2908      	cmp	r1, #8
 8000136:	d1fc      	bne.n	8000132 <_ZN9OneButton14onStatusChangeEN9stm32plus13UsbStatusTypeE+0xa>
          _deviceConfigured=false;
 8000138:	2300      	movs	r3, #0
 800013a:	7103      	strb	r3, [r0, #4]
    }
 800013c:	e7f9      	b.n	8000132 <_ZN9OneButton14onStatusChangeEN9stm32plus13UsbStatusTypeE+0xa>
        _deviceConfigured=true;
 800013e:	2301      	movs	r3, #1
        _lastTransmitTime=MillisecondTimer::millis()+5000;    // 5 second delay before starting to send
 8000140:	4a03      	ldr	r2, [pc, #12]	; (8000150 <_ZN9OneButton14onStatusChangeEN9stm32plus13UsbStatusTypeE+0x28>)
        _deviceConfigured=true;
 8000142:	7103      	strb	r3, [r0, #4]
        _lastTransmitTime=MillisecondTimer::millis()+5000;    // 5 second delay before starting to send
 8000144:	4694      	mov	ip, r2
   * Get the current value of the systick counter.
   * @return The current value of the counter.
   */

  inline uint32_t MillisecondTimer::millis() {
    return _counter;
 8000146:	4b03      	ldr	r3, [pc, #12]	; (8000154 <_ZN9OneButton14onStatusChangeEN9stm32plus13UsbStatusTypeE+0x2c>)
 8000148:	681b      	ldr	r3, [r3, #0]
 800014a:	4463      	add	r3, ip
 800014c:	60c3      	str	r3, [r0, #12]
        break;
 800014e:	e7f0      	b.n	8000132 <_ZN9OneButton14onStatusChangeEN9stm32plus13UsbStatusTypeE+0xa>
 8000150:	00001388 	.word	0x00001388
 8000154:	20000880 	.word	0x20000880

08000158 <_ZN9OneButton9onReceiveEhPKtt>:
    void onReceive(uint8_t endpointIndex,const uint16_t *data,uint16_t size) {
 8000158:	b510      	push	{r4, lr}
 800015a:	0004      	movs	r4, r0
 800015c:	0010      	movs	r0, r2
      if(endpointIndex==1 && size==2 && memcmp(data,"\x02\x01",size)==0)
 800015e:	2901      	cmp	r1, #1
 8000160:	d000      	beq.n	8000164 <_ZN9OneButton9onReceiveEhPKtt+0xc>
    }
 8000162:	bd10      	pop	{r4, pc}
      if(endpointIndex==1 && size==2 && memcmp(data,"\x02\x01",size)==0)
 8000164:	2b02      	cmp	r3, #2
 8000166:	d1fc      	bne.n	8000162 <_ZN9OneButton9onReceiveEhPKtt+0xa>
 8000168:	2202      	movs	r2, #2
 800016a:	4904      	ldr	r1, [pc, #16]	; (800017c <_ZN9OneButton9onReceiveEhPKtt+0x24>)
 800016c:	f002 fd22 	bl	8002bb4 <memcmp>
 8000170:	2800      	cmp	r0, #0
 8000172:	d1f6      	bne.n	8000162 <_ZN9OneButton9onReceiveEhPKtt+0xa>
 8000174:	4b02      	ldr	r3, [pc, #8]	; (8000180 <_ZN9OneButton9onReceiveEhPKtt+0x28>)
 8000176:	681b      	ldr	r3, [r3, #0]
        _receivedReportTime=MillisecondTimer::millis();
 8000178:	60a3      	str	r3, [r4, #8]
    }
 800017a:	e7f2      	b.n	8000162 <_ZN9OneButton9onReceiveEhPKtt+0xa>
 800017c:	080031d0 	.word	0x080031d0
 8000180:	20000880 	.word	0x20000880

08000184 <_ZN9stm32plus11UsbKeyboardIN9OneButton14UsbHidKeyboardEJEE16continueSendDataEh.constprop.82>:
    const uint8_t *dataBytes;
    UsbInEndpointData& ep(_inEndpointData[endpointIndex]);

    // cut down the length if this will be a multi-packet transfer

    if((length=ep.remaining)>ep.maxPacketSize)
 8000184:	2340      	movs	r3, #64	; 0x40
 8000186:	5ac2      	ldrh	r2, [r0, r3]
 8000188:	3304      	adds	r3, #4
  inline void UsbKeyboard<TConfiguration,Features...>::continueSendData(uint8_t endpointIndex) {
 800018a:	b570      	push	{r4, r5, r6, lr}
    if((length=ep.remaining)>ep.maxPacketSize)
 800018c:	5ac6      	ldrh	r6, [r0, r3]
 800018e:	0034      	movs	r4, r6
 8000190:	42b2      	cmp	r2, r6
 8000192:	dc01      	bgt.n	8000198 <_ZN9stm32plus11UsbKeyboardIN9OneButton14UsbHidKeyboardEJEE16continueSendDataEh.constprop.82+0x14>
 8000194:	0014      	movs	r4, r2
      length=ep.maxPacketSize;
    else
      length=ep.remaining;
 8000196:	0016      	movs	r6, r2

    n=(length+1)/2;
    pdwVal=reinterpret_cast<uint16_t *>(BTABLE_BASE+ep.pmaAddress);
 8000198:	2346      	movs	r3, #70	; 0x46
 800019a:	5ac5      	ldrh	r5, [r0, r3]
 800019c:	4b13      	ldr	r3, [pc, #76]	; (80001ec <_ZN9stm32plus11UsbKeyboardIN9OneButton14UsbHidKeyboardEJEE16continueSendDataEh.constprop.82+0x68>)
    n=(length+1)/2;
 800019e:	3401      	adds	r4, #1
    pdwVal=reinterpret_cast<uint16_t *>(BTABLE_BASE+ep.pmaAddress);
 80001a0:	469c      	mov	ip, r3
    n=(length+1)/2;
 80001a2:	1064      	asrs	r4, r4, #1
    pdwVal=reinterpret_cast<uint16_t *>(BTABLE_BASE+ep.pmaAddress);
 80001a4:	4465      	add	r5, ip
    dataBytes=ep.ptr;
 80001a6:	6bc3      	ldr	r3, [r0, #60]	; 0x3c

    for(i=n;i!=0;i--) {
 80001a8:	2c00      	cmp	r4, #0
 80001aa:	d00c      	beq.n	80001c6 <_ZN9stm32plus11UsbKeyboardIN9OneButton14UsbHidKeyboardEJEE16continueSendDataEh.constprop.82+0x42>
      word=dataBytes[0] | ((uint16_t)dataBytes[1] << 8);
 80001ac:	7859      	ldrb	r1, [r3, #1]
 80001ae:	781a      	ldrb	r2, [r3, #0]
 80001b0:	0209      	lsls	r1, r1, #8
 80001b2:	430a      	orrs	r2, r1
    for(i=n;i!=0;i--) {
 80001b4:	3c01      	subs	r4, #1
      *pdwVal++=word;
 80001b6:	802a      	strh	r2, [r5, #0]
      dataBytes+=2;
 80001b8:	3302      	adds	r3, #2
 80001ba:	3502      	adds	r5, #2
    for(i=n;i!=0;i--) {
 80001bc:	2c00      	cmp	r4, #0
 80001be:	d1f5      	bne.n	80001ac <_ZN9stm32plus11UsbKeyboardIN9OneButton14UsbHidKeyboardEJEE16continueSendDataEh.constprop.82+0x28>
 80001c0:	2240      	movs	r2, #64	; 0x40
 80001c2:	6bc3      	ldr	r3, [r0, #60]	; 0x3c
 80001c4:	5a82      	ldrh	r2, [r0, r2]
    }

    // update status

    ep.ptr+=length;
 80001c6:	199b      	adds	r3, r3, r6
 80001c8:	63c3      	str	r3, [r0, #60]	; 0x3c
    ep.remaining-=length;
 80001ca:	2340      	movs	r3, #64	; 0x40
 80001cc:	1b92      	subs	r2, r2, r6
 80001ce:	52c2      	strh	r2, [r0, r3]

    // now that the PMA memory is prepared, set the length and tell the peripheral to send it

    USBR_BDT[endpointIndex].tx.count=length;
 80001d0:	4b06      	ldr	r3, [pc, #24]	; (80001ec <_ZN9stm32plus11UsbKeyboardIN9OneButton14UsbHidKeyboardEJEE16continueSendDataEh.constprop.82+0x68>)
    value=*epreg & USB_EPTX_DTOGMASK;
 80001d2:	4907      	ldr	r1, [pc, #28]	; (80001f0 <_ZN9stm32plus11UsbKeyboardIN9OneButton14UsbHidKeyboardEJEE16continueSendDataEh.constprop.82+0x6c>)
    USBR_BDT[endpointIndex].tx.count=length;
 80001d4:	805e      	strh	r6, [r3, #2]
    value=*epreg & USB_EPTX_DTOGMASK;
 80001d6:	880b      	ldrh	r3, [r1, #0]
 80001d8:	4a06      	ldr	r2, [pc, #24]	; (80001f4 <_ZN9stm32plus11UsbKeyboardIN9OneButton14UsbHidKeyboardEJEE16continueSendDataEh.constprop.82+0x70>)
 80001da:	4013      	ands	r3, r2
      reg^=USB_EPTX_DTOG2;
 80001dc:	2230      	movs	r2, #48	; 0x30
 80001de:	405a      	eors	r2, r3
    *epreg=setTxStatus(value,status) | USB_EP_CTR_RX | USB_EP_CTR_TX;
 80001e0:	4b05      	ldr	r3, [pc, #20]	; (80001f8 <_ZN9stm32plus11UsbKeyboardIN9OneButton14UsbHidKeyboardEJEE16continueSendDataEh.constprop.82+0x74>)
 80001e2:	4313      	orrs	r3, r2
 80001e4:	b29b      	uxth	r3, r3
 80001e6:	800b      	strh	r3, [r1, #0]
    setTxEndpointStatus(&USBR->EP0R+endpointIndex*2,USB_EP_TX_VALID);
  }
 80001e8:	bd70      	pop	{r4, r5, r6, pc}
 80001ea:	46c0      	nop			; (mov r8, r8)
 80001ec:	40006000 	.word	0x40006000
 80001f0:	40005c00 	.word	0x40005c00
 80001f4:	ffff8fbf 	.word	0xffff8fbf
 80001f8:	ffff8080 	.word	0xffff8080

080001fc <_ZNK9stm32plus11UsbKeyboardIN9OneButton14UsbHidKeyboardEJEE13stallEndpointEh.isra.42>:
  template<class TConfiguration,class... Features>
  inline void UsbKeyboard<TConfiguration,Features...>::stallEndpoint(uint8_t epAddr) const {

    uint8_t endpointIndex;

    endpointIndex=epAddr & 0x7f;
 80001fc:	237f      	movs	r3, #127	; 0x7f
 80001fe:	4a17      	ldr	r2, [pc, #92]	; (800025c <_ZNK9stm32plus11UsbKeyboardIN9OneButton14UsbHidKeyboardEJEE13stallEndpointEh.isra.42+0x60>)
 8000200:	4003      	ands	r3, r0

    if(endpointIndex==0)
 8000202:	d112      	bne.n	800022a <_ZNK9stm32plus11UsbKeyboardIN9OneButton14UsbHidKeyboardEJEE13stallEndpointEh.isra.42+0x2e>
    value=*epreg & USB_EPRX_DTOGMASK;
 8000204:	4916      	ldr	r1, [pc, #88]	; (8000260 <_ZNK9stm32plus11UsbKeyboardIN9OneButton14UsbHidKeyboardEJEE13stallEndpointEh.isra.42+0x64>)
 8000206:	4817      	ldr	r0, [pc, #92]	; (8000264 <_ZNK9stm32plus11UsbKeyboardIN9OneButton14UsbHidKeyboardEJEE13stallEndpointEh.isra.42+0x68>)
 8000208:	880b      	ldrh	r3, [r1, #0]
 800020a:	4018      	ands	r0, r3
      reg^=USB_EPRX_DTOG1;
 800020c:	2380      	movs	r3, #128	; 0x80
 800020e:	015b      	lsls	r3, r3, #5
 8000210:	4043      	eors	r3, r0
    *epreg=setRxStatus(value,status) | USB_EP_CTR_RX | USB_EP_CTR_TX;
 8000212:	4313      	orrs	r3, r2
 8000214:	b29b      	uxth	r3, r3
 8000216:	800b      	strh	r3, [r1, #0]
    value=*epreg & USB_EPTX_DTOGMASK;
 8000218:	880b      	ldrh	r3, [r1, #0]
 800021a:	4813      	ldr	r0, [pc, #76]	; (8000268 <_ZNK9stm32plus11UsbKeyboardIN9OneButton14UsbHidKeyboardEJEE13stallEndpointEh.isra.42+0x6c>)
 800021c:	4018      	ands	r0, r3
      reg^=USB_EPTX_DTOG1;
 800021e:	2310      	movs	r3, #16
 8000220:	4043      	eors	r3, r0
    *epreg=setTxStatus(value,status) | USB_EP_CTR_RX | USB_EP_CTR_TX;
 8000222:	431a      	orrs	r2, r3
 8000224:	b292      	uxth	r2, r2
 8000226:	800a      	strh	r2, [r1, #0]
 8000228:	e017      	b.n	800025a <_ZNK9stm32plus11UsbKeyboardIN9OneButton14UsbHidKeyboardEJEE13stallEndpointEh.isra.42+0x5e>
 800022a:	4910      	ldr	r1, [pc, #64]	; (800026c <_ZNK9stm32plus11UsbKeyboardIN9OneButton14UsbHidKeyboardEJEE13stallEndpointEh.isra.42+0x70>)
      controlEndpointError();
    else {

      if((epAddr & 0x80)==0x80)
 800022c:	b240      	sxtb	r0, r0
 800022e:	468c      	mov	ip, r1
 8000230:	4463      	add	r3, ip
        setTxEndpointStatus(&USBR->EP0R+endpointIndex*2,USB_EP_TX_STALL);
 8000232:	009b      	lsls	r3, r3, #2
    value=*epreg & USB_EPTX_DTOGMASK;
 8000234:	8819      	ldrh	r1, [r3, #0]
      if((epAddr & 0x80)==0x80)
 8000236:	2800      	cmp	r0, #0
 8000238:	da07      	bge.n	800024a <_ZNK9stm32plus11UsbKeyboardIN9OneButton14UsbHidKeyboardEJEE13stallEndpointEh.isra.42+0x4e>
    value=*epreg & USB_EPTX_DTOGMASK;
 800023a:	480b      	ldr	r0, [pc, #44]	; (8000268 <_ZNK9stm32plus11UsbKeyboardIN9OneButton14UsbHidKeyboardEJEE13stallEndpointEh.isra.42+0x6c>)
 800023c:	4008      	ands	r0, r1
      reg^=USB_EPTX_DTOG1;
 800023e:	2110      	movs	r1, #16
 8000240:	4041      	eors	r1, r0
    *epreg=setTxStatus(value,status) | USB_EP_CTR_RX | USB_EP_CTR_TX;
 8000242:	430a      	orrs	r2, r1
 8000244:	b292      	uxth	r2, r2
 8000246:	801a      	strh	r2, [r3, #0]
 8000248:	e007      	b.n	800025a <_ZNK9stm32plus11UsbKeyboardIN9OneButton14UsbHidKeyboardEJEE13stallEndpointEh.isra.42+0x5e>
    value=*epreg & USB_EPRX_DTOGMASK;
 800024a:	4806      	ldr	r0, [pc, #24]	; (8000264 <_ZNK9stm32plus11UsbKeyboardIN9OneButton14UsbHidKeyboardEJEE13stallEndpointEh.isra.42+0x68>)
 800024c:	4008      	ands	r0, r1
      reg^=USB_EPRX_DTOG1;
 800024e:	2180      	movs	r1, #128	; 0x80
 8000250:	0149      	lsls	r1, r1, #5
 8000252:	4041      	eors	r1, r0
    *epreg=setRxStatus(value,status) | USB_EP_CTR_RX | USB_EP_CTR_TX;
 8000254:	430a      	orrs	r2, r1
 8000256:	b292      	uxth	r2, r2
 8000258:	801a      	strh	r2, [r3, #0]
      else
        setRxEndpointStatus(&USBR->EP0R+endpointIndex*2,USB_EP_RX_STALL);
    }
  }
 800025a:	4770      	bx	lr
 800025c:	ffff8080 	.word	0xffff8080
 8000260:	40005c00 	.word	0x40005c00
 8000264:	ffffbf8f 	.word	0xffffbf8f
 8000268:	ffff8fbf 	.word	0xffff8fbf
 800026c:	10001700 	.word	0x10001700

08000270 <_ZN9stm32plus11UsbKeyboardIN9OneButton14UsbHidKeyboardEJEEC1Ev>:
  inline UsbKeyboard<TConfiguration,Features...>::UsbKeyboard() {
 8000270:	b5f0      	push	{r4, r5, r6, r7, lr}
  DelegateMemento() : m_pthis(0), m_pFunction(0), m_pStaticFunction(0) {};
  void clear() {
    m_pthis=0; m_pFunction=0; m_pStaticFunction=0;
  }
#else
  DelegateMemento() : m_pthis(0), m_pFunction(0) {};
 8000272:	2300      	movs	r3, #0
     * Zero out the contents on construction
     */

    UsbInEndpointData()
      : ptr(nullptr),
        remaining(0) {
 8000274:	2240      	movs	r2, #64	; 0x40
 8000276:	46c6      	mov	lr, r8
 8000278:	b500      	push	{lr}
 800027a:	6043      	str	r3, [r0, #4]
 800027c:	6083      	str	r3, [r0, #8]
 800027e:	6003      	str	r3, [r0, #0]
                            _Alloc_traits<_Tp, _Alloc>::_S_instanceless>
          _Base;
  typedef typename _Base::allocator_type allocator_type;

  _Slist_base(const allocator_type& __a)
    : _Base(__a) { this->_M_head._M_next = 0; }
 8000280:	60c3      	str	r3, [r0, #12]
 8000282:	6103      	str	r3, [r0, #16]
 8000284:	6143      	str	r3, [r0, #20]
 8000286:	6183      	str	r3, [r0, #24]
 8000288:	61c3      	str	r3, [r0, #28]
 800028a:	6203      	str	r3, [r0, #32]
 800028c:	6243      	str	r3, [r0, #36]	; 0x24
 800028e:	6283      	str	r3, [r0, #40]	; 0x28
 8000290:	62c3      	str	r3, [r0, #44]	; 0x2c
 8000292:	63c3      	str	r3, [r0, #60]	; 0x3c
 8000294:	5283      	strh	r3, [r0, r2]
 8000296:	0002      	movs	r2, r0
 8000298:	3248      	adds	r2, #72	; 0x48
 800029a:	b08a      	sub	sp, #40	; 0x28
 800029c:	6483      	str	r3, [r0, #72]	; 0x48
 800029e:	8093      	strh	r3, [r2, #4]
        bound_func = reinterpret_cast<GenericMemFuncType>(function_to_bind);
 80002a0:	4a25      	ldr	r2, [pc, #148]	; (8000338 <_ZN9stm32plus11UsbKeyboardIN9OneButton14UsbHidKeyboardEJEEC1Ev+0xc8>)
 80002a2:	ad08      	add	r5, sp, #32
 80002a4:	9205      	str	r2, [sp, #20]
 80002a6:	002a      	movs	r2, r5
    _deviceState=DeviceStateType::NONE;
 80002a8:	6303      	str	r3, [r0, #48]	; 0x30
 80002aa:	9306      	str	r3, [sp, #24]
 80002ac:	ab05      	add	r3, sp, #20
  inline UsbKeyboard<TConfiguration,Features...>::UsbKeyboard() {
 80002ae:	0004      	movs	r4, r0
 80002b0:	cb03      	ldmia	r3!, {r0, r1}
 80002b2:	c203      	stmia	r2!, {r0, r1}
  // obtain end().
  iterator before_begin() { return iterator((_Node*) &this->_M_head); }
  const_iterator before_begin() const
    { return const_iterator((_Node*) &this->_M_head); }

  size_type size() const { return __slist_size(this->_M_head._M_next); }
 80002b4:	4f21      	ldr	r7, [pc, #132]	; (800033c <_ZN9stm32plus11UsbKeyboardIN9OneButton14UsbHidKeyboardEJEEC1Ev+0xcc>)
 80002b6:	68fb      	ldr	r3, [r7, #12]
  for ( ; __node != 0; __node = __node->_M_next)
 80002b8:	2b00      	cmp	r3, #0
 80002ba:	d006      	beq.n	80002ca <_ZN9stm32plus11UsbKeyboardIN9OneButton14UsbHidKeyboardEJEEC1Ev+0x5a>
 80002bc:	2200      	movs	r2, #0
 80002be:	681b      	ldr	r3, [r3, #0]
    ++__result;
 80002c0:	3201      	adds	r2, #1
  for ( ; __node != 0; __node = __node->_M_next)
 80002c2:	2b00      	cmp	r3, #0
 80002c4:	d1fb      	bne.n	80002be <_ZN9stm32plus11UsbKeyboardIN9OneButton14UsbHidKeyboardEJEEC1Ev+0x4e>
      /// \param slot The slot you wish to connect
      /// \see bind To bind a slot to a function

      void insertSubscriber(const slot_type& slot) {

        if(_slots.size()==0)
 80002c6:	2a00      	cmp	r2, #0
 80002c8:	d104      	bne.n	80002d4 <_ZN9stm32plus11UsbKeyboardIN9OneButton14UsbHidKeyboardEJEEC1Ev+0x64>
    , m_pStaticFunction (right.m_pStaticFunction)
#endif
    {}
protected:
  void SetMementoFrom(const DelegateMemento &right)  {
    m_pFunction = right.m_pFunction;
 80002ca:	002a      	movs	r2, r5
 80002cc:	1d3b      	adds	r3, r7, #4
 80002ce:	ca03      	ldmia	r2!, {r0, r1}
 80002d0:	c303      	stmia	r3!, {r0, r1}
    m_pthis = right.m_pthis;
 80002d2:	603c      	str	r4, [r7, #0]

public:

  static void* allocate(size_t __n)
  {
    void* __result = stm32_malloc(__n);
 80002d4:	2010      	movs	r0, #16
 80002d6:	f002 f9a5 	bl	8002624 <malloc>
 80002da:	1e06      	subs	r6, r0, #0
    if (0 == __result) __result = _S_oom_malloc(__n);
 80002dc:	d01d      	beq.n	800031a <_ZN9stm32plus11UsbKeyboardIN9OneButton14UsbHidKeyboardEJEEC1Ev+0xaa>
      construct(&__node->_M_data, __x);
 80002de:	1d31      	adds	r1, r6, #4

// Internal names

template <class _T1, class _T2>
inline void _Construct(_T1* __p, const _T2& __value) {
  new ((void*) __p) _T1(__value);
 80002e0:	200c      	movs	r0, #12
 80002e2:	f001 fd53 	bl	8001d8c <_ZnwjPv>
    m_pFunction = right.m_pFunction;
 80002e6:	1d03      	adds	r3, r0, #4
 80002e8:	cd06      	ldmia	r5!, {r1, r2}
 80002ea:	c306      	stmia	r3!, {r1, r2}
  __new_node->_M_next = __prev_node->_M_next;
 80002ec:	68fb      	ldr	r3, [r7, #12]
    m_pthis = right.m_pthis;
 80002ee:	6004      	str	r4, [r0, #0]
 80002f0:	6033      	str	r3, [r6, #0]
    GpioPinInitialiser::initialise(GPIOA,
 80002f2:	2302      	movs	r3, #2
  __prev_node->_M_next = __new_node;
 80002f4:	60fe      	str	r6, [r7, #12]
 80002f6:	9302      	str	r3, [sp, #8]
 80002f8:	3b01      	subs	r3, #1
 80002fa:	9301      	str	r3, [sp, #4]
 80002fc:	21c0      	movs	r1, #192	; 0xc0
 80002fe:	2300      	movs	r3, #0
 8000300:	2090      	movs	r0, #144	; 0x90
 8000302:	9300      	str	r3, [sp, #0]
 8000304:	2203      	movs	r2, #3
 8000306:	3303      	adds	r3, #3
 8000308:	0149      	lsls	r1, r1, #5
 800030a:	05c0      	lsls	r0, r0, #23
 800030c:	f001 feb0 	bl	8002070 <_ZN9stm32plus18GpioPinInitialiser10initialiseEP12GPIO_TypeDeftNS_4Gpio12GpioModeTypeE17GPIOSpeed_TypeDefNS3_18GpioPullUpDownTypeENS3_14GpioOutputTypeEh>
  }
 8000310:	0020      	movs	r0, r4
 8000312:	b00a      	add	sp, #40	; 0x28
 8000314:	bc04      	pop	{r2}
 8000316:	4690      	mov	r8, r2
 8000318:	bdf0      	pop	{r4, r5, r6, r7, pc}
 800031a:	4b09      	ldr	r3, [pc, #36]	; (8000340 <_ZN9stm32plus11UsbKeyboardIN9OneButton14UsbHidKeyboardEJEEC1Ev+0xd0>)
 800031c:	4698      	mov	r8, r3
 800031e:	e005      	b.n	800032c <_ZN9stm32plus11UsbKeyboardIN9OneButton14UsbHidKeyboardEJEEC1Ev+0xbc>
    void* __result;

    for (;;) {
        __my_malloc_handler = __malloc_alloc_oom_handler;
        if (0 == __my_malloc_handler) { __THROW_BAD_ALLOC; }
        (*__my_malloc_handler)();
 8000320:	4798      	blx	r3
        __result = malloc(__n);
 8000322:	2010      	movs	r0, #16
 8000324:	f002 f97e 	bl	8002624 <malloc>
 8000328:	1e06      	subs	r6, r0, #0
        if (__result) return(__result);
 800032a:	d1d8      	bne.n	80002de <_ZN9stm32plus11UsbKeyboardIN9OneButton14UsbHidKeyboardEJEEC1Ev+0x6e>
        __my_malloc_handler = __malloc_alloc_oom_handler;
 800032c:	4643      	mov	r3, r8
 800032e:	681b      	ldr	r3, [r3, #0]
        if (0 == __my_malloc_handler) { __THROW_BAD_ALLOC; }
 8000330:	2b00      	cmp	r3, #0
 8000332:	d1f5      	bne.n	8000320 <_ZN9stm32plus11UsbKeyboardIN9OneButton14UsbHidKeyboardEJEEC1Ev+0xb0>
 8000334:	e7fe      	b.n	8000334 <_ZN9stm32plus11UsbKeyboardIN9OneButton14UsbHidKeyboardEJEEC1Ev+0xc4>
 8000336:	46c0      	nop			; (mov r8, r8)
 8000338:	08000d29 	.word	0x08000d29
 800033c:	20000884 	.word	0x20000884
 8000340:	20000868 	.word	0x20000868

08000344 <_ZN9OneButton3runEv>:
    void run() {
 8000344:	b5f0      	push	{r4, r5, r6, r7, lr}
      _deviceConfigured=false;
 8000346:	2400      	movs	r4, #0
    void run() {
 8000348:	46de      	mov	lr, fp
 800034a:	4657      	mov	r7, sl
 800034c:	464e      	mov	r6, r9
 800034e:	4645      	mov	r5, r8
      _receivedReportTime=UINT32_MAX-1000;
 8000350:	4bd3      	ldr	r3, [pc, #844]	; (80006a0 <_ZN9OneButton3runEv+0x35c>)
    void run() {
 8000352:	b5e0      	push	{r5, r6, r7, lr}
      _deviceConfigured=false;
 8000354:	7104      	strb	r4, [r0, #4]
      _receivedReportTime=UINT32_MAX-1000;
 8000356:	6083      	str	r3, [r0, #8]

  template<>
  struct ClockControl<PERIPHERAL_SPI1> {

    static void On() {
      RCC_APB2PeriphClockCmd(RCC_APB2Periph_SPI1,ENABLE);
 8000358:	2380      	movs	r3, #128	; 0x80
 800035a:	015b      	lsls	r3, r3, #5
    void run() {
 800035c:	b0eb      	sub	sp, #428	; 0x1ac
      _lastTransmitTime=0;
 800035e:	60c4      	str	r4, [r0, #12]
 8000360:	2101      	movs	r1, #1
    void run() {
 8000362:	4681      	mov	r9, r0
 8000364:	0018      	movs	r0, r3
 8000366:	469a      	mov	sl, r3
 8000368:	f002 f8b4 	bl	80024d4 <RCC_APB2PeriphClockCmd>
   */

  template<class TPinPackage,PeripheralName TPeripheralName>
  inline void SpiPinInitialiser<TPinPackage,TPeripheralName>::initialise(uint16_t mode,uint16_t direction) {

    GpioPinInitialiser::initialise((GPIO_TypeDef *)TPinPackage::Port_SCK,
 800036c:	2302      	movs	r3, #2
 800036e:	2590      	movs	r5, #144	; 0x90
 8000370:	2701      	movs	r7, #1
 8000372:	4698      	mov	r8, r3
 8000374:	05ed      	lsls	r5, r5, #23
 8000376:	9701      	str	r7, [sp, #4]
 8000378:	9402      	str	r4, [sp, #8]
 800037a:	9300      	str	r3, [sp, #0]
 800037c:	2203      	movs	r2, #3
 800037e:	3301      	adds	r3, #1
 8000380:	2120      	movs	r1, #32
 8000382:	0028      	movs	r0, r5
 8000384:	f001 fe74 	bl	8002070 <_ZN9stm32plus18GpioPinInitialiser10initialiseEP12GPIO_TypeDeftNS_4Gpio12GpioModeTypeE17GPIOSpeed_TypeDefNS3_18GpioPullUpDownTypeENS3_14GpioOutputTypeEh>
                                   GpioAlternateFunctionMapper<TPeripheralName,TPinPackage::Port_SCK,TPinPackage::Pin_SCK>::GPIO_AF);

    // in uni-directional mode slave MOSI is free

    if(mode==SPI_Mode_Master || direction==SPI_Direction_2Lines_FullDuplex)
      GpioPinInitialiser::initialise((GPIO_TypeDef *)TPinPackage::Port_MOSI,
 8000388:	4643      	mov	r3, r8
 800038a:	9701      	str	r7, [sp, #4]
 800038c:	9402      	str	r4, [sp, #8]
 800038e:	9300      	str	r3, [sp, #0]
 8000390:	2203      	movs	r2, #3
 8000392:	3301      	adds	r3, #1
 8000394:	2180      	movs	r1, #128	; 0x80
 8000396:	0028      	movs	r0, r5
 8000398:	f001 fe6a 	bl	8002070 <_ZN9stm32plus18GpioPinInitialiser10initialiseEP12GPIO_TypeDeftNS_4Gpio12GpioModeTypeE17GPIOSpeed_TypeDefNS3_18GpioPullUpDownTypeENS3_14GpioOutputTypeEh>
                                     GpioAlternateFunctionMapper<TPeripheralName,TPinPackage::Port_MOSI,TPinPackage::Pin_MOSI>::GPIO_AF);

    // in uni-directional mode master MISO is free

    if(mode==SPI_Mode_Slave || direction==SPI_Direction_2Lines_FullDuplex)
      GpioPinInitialiser::initialise((GPIO_TypeDef *)TPinPackage::Port_MISO,
 800039c:	4643      	mov	r3, r8
 800039e:	9701      	str	r7, [sp, #4]
 80003a0:	9402      	str	r4, [sp, #8]
 80003a2:	9300      	str	r3, [sp, #0]
 80003a4:	2203      	movs	r2, #3
 80003a6:	3301      	adds	r3, #1
 80003a8:	2140      	movs	r1, #64	; 0x40
 80003aa:	0028      	movs	r0, r5

    SpiPinInitialiser<TPinPackage,TPeripheralName>::initialise(params.spi_mode,params.spi_direction);

    // initialise the peripheral

    SPI_StructInit(&init);
 80003ac:	ae52      	add	r6, sp, #328	; 0x148
 80003ae:	f001 fe5f 	bl	8002070 <_ZN9stm32plus18GpioPinInitialiser10initialiseEP12GPIO_TypeDeftNS_4Gpio12GpioModeTypeE17GPIOSpeed_TypeDefNS3_18GpioPullUpDownTypeENS3_14GpioOutputTypeEh>

    if(mode==SPI_Mode_Master) {

      // in master mode NSS is an output

      GpioPinInitialiser::initialise((GPIO_TypeDef *)TPinPackage::Port_NSS,
 80003b2:	9701      	str	r7, [sp, #4]
 80003b4:	2200      	movs	r2, #0
 80003b6:	9400      	str	r4, [sp, #0]
 80003b8:	2303      	movs	r3, #3
 80003ba:	2110      	movs	r1, #16
 80003bc:	0028      	movs	r0, r5
 80003be:	f001 fdef 	bl	8001fa0 <_ZN9stm32plus18GpioPinInitialiser10initialiseEP12GPIO_TypeDeftNS_4Gpio12GpioModeTypeE17GPIOSpeed_TypeDefNS3_18GpioPullUpDownTypeENS3_14GpioOutputTypeE>
 80003c2:	0030      	movs	r0, r6
 80003c4:	f002 f89e 	bl	8002504 <SPI_StructInit>

    init.SPI_Direction=params.spi_direction;
    init.SPI_Mode=params.spi_mode;
 80003c8:	2382      	movs	r3, #130	; 0x82
 80003ca:	005b      	lsls	r3, r3, #1
 80003cc:	8073      	strh	r3, [r6, #2]
    init.SPI_DataSize=params.spi_dataSize;
 80003ce:	23e0      	movs	r3, #224	; 0xe0
 80003d0:	00db      	lsls	r3, r3, #3
 80003d2:	80b3      	strh	r3, [r6, #4]
    init.SPI_CPOL=params.spi_cpol;
 80003d4:	4643      	mov	r3, r8
 80003d6:	80f3      	strh	r3, [r6, #6]
    init.SPI_CPHA=params.spi_cpha;
    init.SPI_NSS=SPI_NSS_Soft;
 80003d8:	2380      	movs	r3, #128	; 0x80
 80003da:	009b      	lsls	r3, r3, #2
 80003dc:	4698      	mov	r8, r3
 80003de:	8173      	strh	r3, [r6, #10]
    init.SPI_BaudRatePrescaler=params.spi_baudRatePrescaler;
    init.SPI_FirstBit=params.spi_firstBit;
    init.SPI_CRCPolynomial=params.spi_polynomial;
 80003e0:	2307      	movs	r3, #7

    SPI_Init(_peripheralAddress,&init);
 80003e2:	0031      	movs	r1, r6
 80003e4:	48af      	ldr	r0, [pc, #700]	; (80006a4 <_ZN9OneButton3runEv+0x360>)
    init.SPI_CPHA=params.spi_cpha;
 80003e6:	8137      	strh	r7, [r6, #8]
    init.SPI_Direction=params.spi_direction;
 80003e8:	8034      	strh	r4, [r6, #0]
    init.SPI_BaudRatePrescaler=params.spi_baudRatePrescaler;
 80003ea:	81b4      	strh	r4, [r6, #12]
    init.SPI_FirstBit=params.spi_firstBit;
 80003ec:	81f4      	strh	r4, [r6, #14]
    init.SPI_CRCPolynomial=params.spi_polynomial;
 80003ee:	8233      	strh	r3, [r6, #16]
    SPI_Init(_peripheralAddress,&init);
 80003f0:	f002 f896 	bl	8002520 <SPI_Init>
   * @param value true = high, false = low
   */

  inline void Spi::setNss(bool value) const {
    if(value)
      GPIO_SetBits(_nssPort,_nssPin);
 80003f4:	2110      	movs	r1, #16
 80003f6:	0028      	movs	r0, r5
 80003f8:	f002 f818 	bl	800242c <GPIO_SetBits>
    setNss(true);

    // set a default quarter-full threshold for the FIFO to be compatible with the
    // other families - override with the SpiFifoNotifyFeature.

    SPI_RxFIFOThresholdConfig(_peripheralAddress,SPI_RxFIFOThreshold_QF);
 80003fc:	4651      	mov	r1, sl
 80003fe:	48a9      	ldr	r0, [pc, #676]	; (80006a4 <_ZN9OneButton3runEv+0x360>)
 8000400:	f002 f8c2 	bl	8002588 <SPI_RxFIFOThresholdConfig>
    SPI_Cmd(_peripheralAddress,ENABLE);
 8000404:	2101      	movs	r1, #1
 8000406:	48a7      	ldr	r0, [pc, #668]	; (80006a4 <_ZN9OneButton3runEv+0x360>)
 8000408:	f002 f8b4 	bl	8002574 <SPI_Cmd>

  inline Dma::Dma(DMA_PeripheralType *peripheralAddress,uint32_t completeFlag,uint32_t halfCompleteFlag,uint32_t errorFlag) {

    // save channel and get peripheral index

    _peripheralAddress=peripheralAddress;
 800040c:	4ba6      	ldr	r3, [pc, #664]	; (80006a8 <_ZN9OneButton3runEv+0x364>)
 800040e:	af18      	add	r7, sp, #96	; 0x60
 8000410:	9318      	str	r3, [sp, #96]	; 0x60
    _completeFlag=completeFlag;
 8000412:	4643      	mov	r3, r8
 8000414:	607b      	str	r3, [r7, #4]
    _halfCompleteFlag=halfCompleteFlag;
 8000416:	2380      	movs	r3, #128	; 0x80
 8000418:	00db      	lsls	r3, r3, #3
 800041a:	60bb      	str	r3, [r7, #8]
    _errorFlag=errorFlag;
 800041c:	2380      	movs	r3, #128	; 0x80
 800041e:	011b      	lsls	r3, r3, #4
 8000420:	60fb      	str	r3, [r7, #12]
    else {
      _init.DMA_PeripheralDataSize=DMA_PeripheralDataSize_HalfWord; // transferring half words
      _init.DMA_MemoryDataSize=DMA_MemoryDataSize_HalfWord;         // transferring half words
    }

    _init.DMA_PeripheralBaseAddr=reinterpret_cast<uint32_t>(&(spi->DR));
 8000422:	4ba2      	ldr	r3, [pc, #648]	; (80006ac <_ZN9OneButton3runEv+0x368>)
      _init.DMA_PeripheralDataSize=DMA_PeripheralDataSize_Byte; // transferring bytes
 8000424:	62fc      	str	r4, [r7, #44]	; 0x2c
    _init.DMA_PeripheralBaseAddr=reinterpret_cast<uint32_t>(&(spi->DR));
 8000426:	617b      	str	r3, [r7, #20]
    _init.DMA_DIR=DMA_DIR_PeripheralDST;                      // 'peripheral' is destination
 8000428:	2310      	movs	r3, #16
 800042a:	61fb      	str	r3, [r7, #28]
    _init.DMA_PeripheralInc=DMA_PeripheralInc_Disable;        // 'peripheral' does not increment
    _init.DMA_MemoryInc=DMA_MemoryInc_Enable;                 // memory is incremented
 800042c:	3370      	adds	r3, #112	; 0x70
 800042e:	62bb      	str	r3, [r7, #40]	; 0x28
    _init.DMA_Mode=DMA_Mode_Normal;                           // not a circular buffer
    _init.DMA_Priority=TPriority;                             // user-configurable priority
 8000430:	4653      	mov	r3, sl
      _init.DMA_MemoryDataSize=DMA_MemoryDataSize_Byte;         // transferring bytes
 8000432:	633c      	str	r4, [r7, #48]	; 0x30
    _init.DMA_PeripheralInc=DMA_PeripheralInc_Disable;        // 'peripheral' does not increment
 8000434:	627c      	str	r4, [r7, #36]	; 0x24
    _init.DMA_Mode=DMA_Mode_Normal;                           // not a circular buffer
 8000436:	637c      	str	r4, [r7, #52]	; 0x34
    _init.DMA_Priority=TPriority;                             // user-configurable priority
 8000438:	63bb      	str	r3, [r7, #56]	; 0x38
    _init.DMA_M2M=DMA_M2M_Disable;                            // memory->peripheral configuration
 800043a:	63fc      	str	r4, [r7, #60]	; 0x3c

    SPI_I2S_DMACmd(spi,SPI_I2S_DMAReq_Tx,ENABLE);
 800043c:	2201      	movs	r2, #1
 800043e:	2102      	movs	r1, #2
 8000440:	4898      	ldr	r0, [pc, #608]	; (80006a4 <_ZN9OneButton3runEv+0x360>)
   * Constructor
   * @param dma
   */

  inline DmaFeatureBase::DmaFeatureBase(Dma& dma)
    : _dma(dma) {
 8000442:	613f      	str	r7, [r7, #16]
 8000444:	f002 f8aa 	bl	800259c <SPI_I2S_DMACmd>
      RCC_AHBPeriphClockCmd(RCC_AHBPeriph_DMA1,ENABLE);
 8000448:	2101      	movs	r1, #1
 800044a:	2001      	movs	r0, #1
 800044c:	f002 f836 	bl	80024bc <RCC_AHBPeriphClockCmd>
       * Init clock and return port address
       * @return the peripheral port address
       */

      GPIO_TypeDef *initClock() {
        RCC_AHBPeriphClockCmd(gpioHelper::getPeripheral<TPortAddress>(),ENABLE);
 8000450:	2080      	movs	r0, #128	; 0x80
   * Constructor
   * @param peripheralAddress
   */

  inline GpioPortBase::GpioPortBase(GPIO_TypeDef *peripheralAddress)
    : _peripheralAddress(peripheralAddress) {
 8000452:	ac28      	add	r4, sp, #160	; 0xa0
 8000454:	2101      	movs	r1, #1
 8000456:	0280      	lsls	r0, r0, #10
 8000458:	f002 f830 	bl	80024bc <RCC_AHBPeriphClockCmd>
    memset(_pinHandlers,'\0',sizeof(_pinHandlers));
 800045c:	2240      	movs	r2, #64	; 0x40
 800045e:	2100      	movs	r1, #0
    : _peripheralAddress(peripheralAddress) {
 8000460:	6425      	str	r5, [r4, #64]	; 0x40
    memset(_pinHandlers,'\0',sizeof(_pinHandlers));
 8000462:	0020      	movs	r0, r4
 8000464:	f002 fbcc 	bl	8002c00 <memset>
    _low=15;
 8000468:	2344      	movs	r3, #68	; 0x44
 800046a:	4698      	mov	r8, r3
 800046c:	4642      	mov	r2, r8
 800046e:	3b35      	subs	r3, #53	; 0x35
 8000470:	54a3      	strb	r3, [r4, r2]
        uint8_t i;
        GPIO_InitTypeDef init;

        (void)pullUpDownType;

        this->_pinIds=pinIds;
 8000472:	3311      	adds	r3, #17
 8000474:	320c      	adds	r2, #12
 8000476:	52a3      	strh	r3, [r4, r2]

        init.GPIO_Speed=speed;
        init.GPIO_Mode=GPIO_Mode_OUT;
 8000478:	4a8d      	ldr	r2, [pc, #564]	; (80006b0 <_ZN9OneButton3runEv+0x36c>)
   * @param port
   */

  inline Gpio::Gpio(GpioPortBase& portBase)
    : _portBase(portBase),
      _peripheralAddress(portBase.getPeripheralAddress()) {
 800047a:	64a4      	str	r4, [r4, #72]	; 0x48
 800047c:	64e5      	str	r5, [r4, #76]	; 0x4c
        init.GPIO_OType=outputType==Gpio::PUSH_PULL ? GPIO_OType_PP : GPIO_OType_OD;
        init.GPIO_PuPd=pullUpDownType==PUPD_NONE ? GPIO_PuPd_NOPULL : (pullUpDownType==PUPD_UP ? GPIO_PuPd_UP : GPIO_PuPd_DOWN);
        init.GPIO_Pin=pinIds;

        GPIO_Init(_peripheralAddress,&init);
 800047e:	0031      	movs	r1, r6
 8000480:	0028      	movs	r0, r5
        init.GPIO_Mode=GPIO_Mode_OUT;
 8000482:	9253      	str	r2, [sp, #332]	; 0x14c
        init.GPIO_Pin=pinIds;
 8000484:	9352      	str	r3, [sp, #328]	; 0x148
        GPIO_Init(_peripheralAddress,&init);
 8000486:	f001 ff6b 	bl	8002360 <GPIO_Init>

        // set ourselves as the pin handler in the port base

        for(i=0;i<16;i++)
          if((pinIds & (1<<i))!=0)
            _portBase.setPinHandler(i,this);
 800048a:	6ca3      	ldr	r3, [r4, #72]	; 0x48
   * @param pinHandler The handler for that position
   */

  inline void GpioPortBase::setPinHandler(uint8_t index,Gpio *pinHandler) {

    _pinHandlers[index]=pinHandler;
 800048c:	aa3a      	add	r2, sp, #232	; 0xe8
 800048e:	615a      	str	r2, [r3, #20]

    if(index<_low)
 8000490:	4642      	mov	r2, r8
 8000492:	5c9a      	ldrb	r2, [r3, r2]
 8000494:	2a05      	cmp	r2, #5
 8000496:	dd02      	ble.n	800049e <_ZN9OneButton3runEv+0x15a>
      _low=index;
 8000498:	2205      	movs	r2, #5
 800049a:	4641      	mov	r1, r8
 800049c:	545a      	strb	r2, [r3, r1]
   * Set the selected pin number to one of those that you initialised this class with
   * @param pinNumber The pin number (0..15)
   */

  inline void Gpio::setSelectedPin(uint8_t pinNumber) {
    _selectedPin=1 << pinNumber;
 800049e:	2220      	movs	r2, #32
       * @param selectedPin The pin to select
       * @return A reference to the pin that you can call operations such as set(), reset() on.
       */

      Gpio& operator[](uint8_t selectedPin) {
        _pinHandlers[selectedPin]->setSelectedPin(selectedPin);
 80004a0:	6963      	ldr	r3, [r4, #20]
  /**
   * Set the selected pin to LOW.
   */

  inline void Gpio::reset() const {
    GPIO_WriteBit(_peripheralAddress,_selectedPin,Bit_RESET);
 80004a2:	2120      	movs	r1, #32
    _selectedPin=1 << pinNumber;
 80004a4:	815a      	strh	r2, [r3, #10]
    GPIO_WriteBit(_peripheralAddress,_selectedPin,Bit_RESET);
 80004a6:	6858      	ldr	r0, [r3, #4]
 80004a8:	2200      	movs	r2, #0
 80004aa:	f001 ffc3 	bl	8002434 <GPIO_WriteBit>
   * Allow setting/resetting of the selected pin from a variable.
   * @param[in] state The new state of the pin.
   */

  inline void Gpio::setState(bool state) const {
    GPIO_WriteBit(_peripheralAddress,_selectedPin,state ? Bit_SET : Bit_RESET);
 80004ae:	2352      	movs	r3, #82	; 0x52
 80004b0:	2200      	movs	r2, #0
 80004b2:	5ae1      	ldrh	r1, [r4, r3]
 80004b4:	983b      	ldr	r0, [sp, #236]	; 0xec
 80004b6:	f001 ffbd 	bl	8002434 <GPIO_WriteBit>
        RCC_AHBPeriphClockCmd(gpioHelper::getPeripheral<TPortAddress>(),ENABLE);
 80004ba:	2080      	movs	r0, #128	; 0x80
 80004bc:	2101      	movs	r1, #1
 80004be:	0280      	lsls	r0, r0, #10
 80004c0:	f001 fffc 	bl	80024bc <RCC_AHBPeriphClockCmd>
    : _peripheralAddress(peripheralAddress) {
 80004c4:	2390      	movs	r3, #144	; 0x90
 80004c6:	ad3d      	add	r5, sp, #244	; 0xf4
 80004c8:	05db      	lsls	r3, r3, #23
 80004ca:	4698      	mov	r8, r3
 80004cc:	642b      	str	r3, [r5, #64]	; 0x40
    memset(_pinHandlers,'\0',sizeof(_pinHandlers));
 80004ce:	2340      	movs	r3, #64	; 0x40
 80004d0:	2240      	movs	r2, #64	; 0x40
 80004d2:	2100      	movs	r1, #0
 80004d4:	0028      	movs	r0, r5
 80004d6:	469a      	mov	sl, r3
    _low=15;
 80004d8:	2444      	movs	r4, #68	; 0x44
    memset(_pinHandlers,'\0',sizeof(_pinHandlers));
 80004da:	f002 fb91 	bl	8002c00 <memset>
    _low=15;
 80004de:	230f      	movs	r3, #15
 80004e0:	552b      	strb	r3, [r5, r4]
      _peripheralAddress(portBase.getPeripheralAddress()) {
 80004e2:	4643      	mov	r3, r8
                      GPIOSpeed_TypeDef speed=GPIO_Speed_Level_3,
                      Gpio::GpioPullUpDownType pullUpDownType=Gpio::PUPD_NONE) {
        uint8_t i;
        GPIO_InitTypeDef init;

        this->_pinIds=pinIds;
 80004e4:	4652      	mov	r2, sl
 80004e6:	64eb      	str	r3, [r5, #76]	; 0x4c
 80004e8:	2350      	movs	r3, #80	; 0x50
 80004ea:	52ea      	strh	r2, [r5, r3]

        init.GPIO_Speed=speed;
 80004ec:	3b4d      	subs	r3, #77	; 0x4d
 80004ee:	7173      	strb	r3, [r6, #5]
        init.GPIO_Mode=GPIO_Mode_IN;
 80004f0:	2300      	movs	r3, #0
 80004f2:	7133      	strb	r3, [r6, #4]
        init.GPIO_PuPd=pullUpDownType==PUPD_NONE ? GPIO_PuPd_NOPULL : (pullUpDownType==PUPD_UP ? GPIO_PuPd_UP : GPIO_PuPd_DOWN);
 80004f4:	71f3      	strb	r3, [r6, #7]
        init.GPIO_Pin=pinIds;
 80004f6:	4653      	mov	r3, sl
 80004f8:	64ad      	str	r5, [r5, #72]	; 0x48

        GPIO_Init(_peripheralAddress,&init);
 80004fa:	0031      	movs	r1, r6
 80004fc:	4640      	mov	r0, r8
        init.GPIO_Pin=pinIds;
 80004fe:	9352      	str	r3, [sp, #328]	; 0x148
        GPIO_Init(_peripheralAddress,&init);
 8000500:	f001 ff2e 	bl	8002360 <GPIO_Init>

        // set ourselves as the pin handler in the port base

        for(i=0;i<16;i++)
          if((pinIds & (1<<i))!=0)
            _portBase.setPinHandler(i,this);
 8000504:	6cab      	ldr	r3, [r5, #72]	; 0x48
    _pinHandlers[index]=pinHandler;
 8000506:	aa4f      	add	r2, sp, #316	; 0x13c
 8000508:	619a      	str	r2, [r3, #24]
    if(index<_low)
 800050a:	5d1a      	ldrb	r2, [r3, r4]
 800050c:	2a06      	cmp	r2, #6
 800050e:	dd01      	ble.n	8000514 <_ZN9OneButton3runEv+0x1d0>
      _low=index;
 8000510:	2206      	movs	r2, #6
 8000512:	551a      	strb	r2, [r3, r4]
    _selectedPin=1 << pinNumber;
 8000514:	2240      	movs	r2, #64	; 0x40
        _pinHandlers[selectedPin]->setSelectedPin(selectedPin);
 8000516:	69ab      	ldr	r3, [r5, #24]
    GPIO_WriteBit(_peripheralAddress,_selectedPin,Bit_RESET);
 8000518:	2140      	movs	r1, #64	; 0x40
    _selectedPin=1 << pinNumber;
 800051a:	815a      	strh	r2, [r3, #10]
    GPIO_WriteBit(_peripheralAddress,_selectedPin,Bit_RESET);
 800051c:	6858      	ldr	r0, [r3, #4]
 800051e:	2200      	movs	r2, #0
 8000520:	f001 ff88 	bl	8002434 <GPIO_WriteBit>
      UsbKeyboard<UsbHidKeyboard> usb;
 8000524:	0030      	movs	r0, r6
 8000526:	f7ff fea3 	bl	8000270 <_ZN9stm32plus11UsbKeyboardIN9OneButton14UsbHidKeyboardEJEEC1Ev>
        bound_func = reinterpret_cast<GenericMemFuncType>(function_to_bind);
 800052a:	4b62      	ldr	r3, [pc, #392]	; (80006b4 <_ZN9OneButton3runEv+0x370>)
 800052c:	aa16      	add	r2, sp, #88	; 0x58
 800052e:	930d      	str	r3, [sp, #52]	; 0x34
 8000530:	2300      	movs	r3, #0
 8000532:	930e      	str	r3, [sp, #56]	; 0x38
 8000534:	ab0d      	add	r3, sp, #52	; 0x34
 8000536:	4692      	mov	sl, r2
 8000538:	cb03      	ldmia	r3!, {r0, r1}
 800053a:	c203      	stmia	r2!, {r0, r1}
  size_type size() const { return __slist_size(this->_M_head._M_next); }
 800053c:	69f3      	ldr	r3, [r6, #28]
  for ( ; __node != 0; __node = __node->_M_next)
 800053e:	2b00      	cmp	r3, #0
 8000540:	d006      	beq.n	8000550 <_ZN9OneButton3runEv+0x20c>
 8000542:	2200      	movs	r2, #0
 8000544:	681b      	ldr	r3, [r3, #0]
    ++__result;
 8000546:	3201      	adds	r2, #1
  for ( ; __node != 0; __node = __node->_M_next)
 8000548:	2b00      	cmp	r3, #0
 800054a:	d1fb      	bne.n	8000544 <_ZN9OneButton3runEv+0x200>
 800054c:	2a00      	cmp	r2, #0
 800054e:	d105      	bne.n	800055c <_ZN9OneButton3runEv+0x218>
    m_pFunction = right.m_pFunction;
 8000550:	4652      	mov	r2, sl
 8000552:	ab57      	add	r3, sp, #348	; 0x15c
 8000554:	ca03      	ldmia	r2!, {r0, r1}
 8000556:	c303      	stmia	r3!, {r0, r1}
    m_pthis = right.m_pthis;
 8000558:	464b      	mov	r3, r9
 800055a:	6133      	str	r3, [r6, #16]
    void* __result = stm32_malloc(__n);
 800055c:	2010      	movs	r0, #16
 800055e:	f002 f861 	bl	8002624 <malloc>
 8000562:	4b55      	ldr	r3, [pc, #340]	; (80006b8 <_ZN9OneButton3runEv+0x374>)
 8000564:	1e04      	subs	r4, r0, #0
 8000566:	469b      	mov	fp, r3
    if (0 == __result) __result = _S_oom_malloc(__n);
 8000568:	d07e      	beq.n	8000668 <_ZN9OneButton3runEv+0x324>
      construct(&__node->_M_data, __x);
 800056a:	1d21      	adds	r1, r4, #4
 800056c:	200c      	movs	r0, #12
 800056e:	f001 fc0d 	bl	8001d8c <_ZnwjPv>
    m_pFunction = right.m_pFunction;
 8000572:	0003      	movs	r3, r0
 8000574:	4684      	mov	ip, r0
 8000576:	4652      	mov	r2, sl
 8000578:	3304      	adds	r3, #4
 800057a:	ca03      	ldmia	r2!, {r0, r1}
 800057c:	c303      	stmia	r3!, {r0, r1}
    m_pthis = right.m_pthis;
 800057e:	464b      	mov	r3, r9
 8000580:	4662      	mov	r2, ip
 8000582:	6013      	str	r3, [r2, #0]
  __new_node->_M_next = __prev_node->_M_next;
 8000584:	69f3      	ldr	r3, [r6, #28]
        bound_func = reinterpret_cast<GenericMemFuncType>(function_to_bind);
 8000586:	aa16      	add	r2, sp, #88	; 0x58
 8000588:	6023      	str	r3, [r4, #0]
 800058a:	4b4c      	ldr	r3, [pc, #304]	; (80006bc <_ZN9OneButton3runEv+0x378>)
  __prev_node->_M_next = __new_node;
 800058c:	61f4      	str	r4, [r6, #28]
 800058e:	930b      	str	r3, [sp, #44]	; 0x2c
 8000590:	2300      	movs	r3, #0
 8000592:	930c      	str	r3, [sp, #48]	; 0x30
 8000594:	ab0b      	add	r3, sp, #44	; 0x2c
 8000596:	4692      	mov	sl, r2
 8000598:	cb03      	ldmia	r3!, {r0, r1}
 800059a:	c203      	stmia	r2!, {r0, r1}
  size_type size() const { return __slist_size(this->_M_head._M_next); }
 800059c:	68f3      	ldr	r3, [r6, #12]
  for ( ; __node != 0; __node = __node->_M_next)
 800059e:	2b00      	cmp	r3, #0
 80005a0:	d006      	beq.n	80005b0 <_ZN9OneButton3runEv+0x26c>
 80005a2:	2200      	movs	r2, #0
 80005a4:	681b      	ldr	r3, [r3, #0]
    ++__result;
 80005a6:	3201      	adds	r2, #1
  for ( ; __node != 0; __node = __node->_M_next)
 80005a8:	2b00      	cmp	r3, #0
 80005aa:	d1fb      	bne.n	80005a4 <_ZN9OneButton3runEv+0x260>
 80005ac:	2a00      	cmp	r2, #0
 80005ae:	d105      	bne.n	80005bc <_ZN9OneButton3runEv+0x278>
    m_pFunction = right.m_pFunction;
 80005b0:	4652      	mov	r2, sl
 80005b2:	ab53      	add	r3, sp, #332	; 0x14c
 80005b4:	ca03      	ldmia	r2!, {r0, r1}
 80005b6:	c303      	stmia	r3!, {r0, r1}
    m_pthis = right.m_pthis;
 80005b8:	464b      	mov	r3, r9
 80005ba:	9352      	str	r3, [sp, #328]	; 0x148
    void* __result = stm32_malloc(__n);
 80005bc:	2010      	movs	r0, #16
 80005be:	f002 f831 	bl	8002624 <malloc>
 80005c2:	1e04      	subs	r4, r0, #0
    if (0 == __result) __result = _S_oom_malloc(__n);
 80005c4:	d05e      	beq.n	8000684 <_ZN9OneButton3runEv+0x340>
      construct(&__node->_M_data, __x);
 80005c6:	1d21      	adds	r1, r4, #4
 80005c8:	200c      	movs	r0, #12
 80005ca:	f001 fbdf 	bl	8001d8c <_ZnwjPv>
    m_pFunction = right.m_pFunction;
 80005ce:	0003      	movs	r3, r0
 80005d0:	4684      	mov	ip, r0
 80005d2:	4652      	mov	r2, sl
 80005d4:	3304      	adds	r3, #4
 80005d6:	ca03      	ldmia	r2!, {r0, r1}
 80005d8:	c303      	stmia	r3!, {r0, r1}
    m_pthis = right.m_pthis;
 80005da:	464b      	mov	r3, r9
 80005dc:	4662      	mov	r2, ip
 80005de:	6013      	str	r3, [r2, #0]
  __new_node->_M_next = __prev_node->_M_next;
 80005e0:	68f3      	ldr	r3, [r6, #12]
        bound_func = reinterpret_cast<GenericMemFuncType>(function_to_bind);
 80005e2:	aa09      	add	r2, sp, #36	; 0x24
 80005e4:	6023      	str	r3, [r4, #0]
 80005e6:	4b36      	ldr	r3, [pc, #216]	; (80006c0 <_ZN9OneButton3runEv+0x37c>)
  __prev_node->_M_next = __new_node;
 80005e8:	60f4      	str	r4, [r6, #12]
 80005ea:	9309      	str	r3, [sp, #36]	; 0x24
 80005ec:	2300      	movs	r3, #0
 80005ee:	930a      	str	r3, [sp, #40]	; 0x28
 80005f0:	ab16      	add	r3, sp, #88	; 0x58
 80005f2:	469a      	mov	sl, r3
 80005f4:	ca03      	ldmia	r2!, {r0, r1}
 80005f6:	c303      	stmia	r3!, {r0, r1}
  size_type size() const { return __slist_size(this->_M_head._M_next); }
 80005f8:	6af3      	ldr	r3, [r6, #44]	; 0x2c
  for ( ; __node != 0; __node = __node->_M_next)
 80005fa:	2b00      	cmp	r3, #0
 80005fc:	d007      	beq.n	800060e <_ZN9OneButton3runEv+0x2ca>
 80005fe:	2200      	movs	r2, #0
 8000600:	681b      	ldr	r3, [r3, #0]
    ++__result;
 8000602:	3201      	adds	r2, #1
  for ( ; __node != 0; __node = __node->_M_next)
 8000604:	2b00      	cmp	r3, #0
 8000606:	d1fb      	bne.n	8000600 <_ZN9OneButton3runEv+0x2bc>
 8000608:	ac5b      	add	r4, sp, #364	; 0x16c
 800060a:	2a00      	cmp	r2, #0
 800060c:	d106      	bne.n	800061c <_ZN9OneButton3runEv+0x2d8>
    m_pFunction = right.m_pFunction;
 800060e:	ac5b      	add	r4, sp, #364	; 0x16c
 8000610:	0023      	movs	r3, r4
 8000612:	4652      	mov	r2, sl
 8000614:	ca03      	ldmia	r2!, {r0, r1}
 8000616:	c303      	stmia	r3!, {r0, r1}
    m_pthis = right.m_pthis;
 8000618:	464b      	mov	r3, r9
 800061a:	6233      	str	r3, [r6, #32]
    void* __result = stm32_malloc(__n);
 800061c:	2010      	movs	r0, #16
 800061e:	f002 f801 	bl	8002624 <malloc>
 8000622:	4680      	mov	r8, r0
    if (0 == __result) __result = _S_oom_malloc(__n);
 8000624:	2800      	cmp	r0, #0
 8000626:	d100      	bne.n	800062a <_ZN9OneButton3runEv+0x2e6>
 8000628:	e130      	b.n	800088c <_ZN9OneButton3runEv+0x548>
      construct(&__node->_M_data, __x);
 800062a:	4643      	mov	r3, r8
 800062c:	200c      	movs	r0, #12
 800062e:	1d19      	adds	r1, r3, #4
 8000630:	f001 fbac 	bl	8001d8c <_ZnwjPv>
    m_pFunction = right.m_pFunction;
 8000634:	0003      	movs	r3, r0
 8000636:	4684      	mov	ip, r0
 8000638:	4652      	mov	r2, sl
 800063a:	3304      	adds	r3, #4
 800063c:	ca03      	ldmia	r2!, {r0, r1}
 800063e:	c303      	stmia	r3!, {r0, r1}
    m_pthis = right.m_pthis;
 8000640:	464b      	mov	r3, r9
 8000642:	4662      	mov	r2, ip
 8000644:	6013      	str	r3, [r2, #0]
  __new_node->_M_next = __prev_node->_M_next;
 8000646:	4642      	mov	r2, r8
 8000648:	6af3      	ldr	r3, [r6, #44]	; 0x2c
    _address=0;
 800064a:	2100      	movs	r1, #0
  __prev_node->_M_next = __new_node;
 800064c:	62f2      	str	r2, [r6, #44]	; 0x2c
  __new_node->_M_next = __prev_node->_M_next;
 800064e:	6013      	str	r3, [r2, #0]
 8000650:	2259      	movs	r2, #89	; 0x59
 8000652:	54b1      	strb	r1, [r6, r2]
  template<class TConfiguration,class... Features>
  inline void UsbKeyboard<TConfiguration,Features...>::setDeviceState(DeviceStateType newState) {

    UsbStatusType notify;

    if(_deviceState!=newState) {
 8000654:	6b32      	ldr	r2, [r6, #48]	; 0x30
 8000656:	2a01      	cmp	r2, #1
 8000658:	d057      	beq.n	800070a <_ZN9OneButton3runEv+0x3c6>

      _deviceState=newState;
 800065a:	2201      	movs	r2, #1
 800065c:	6332      	str	r2, [r6, #48]	; 0x30
    ++__result;
 800065e:	3101      	adds	r1, #1
  for ( ; __node != 0; __node = __node->_M_next)
 8000660:	2b00      	cmp	r3, #0
 8000662:	d02f      	beq.n	80006c4 <_ZN9OneButton3runEv+0x380>
 8000664:	681b      	ldr	r3, [r3, #0]
 8000666:	e7fa      	b.n	800065e <_ZN9OneButton3runEv+0x31a>
 8000668:	001c      	movs	r4, r3
        __my_malloc_handler = __malloc_alloc_oom_handler;
 800066a:	6823      	ldr	r3, [r4, #0]
        if (0 == __my_malloc_handler) { __THROW_BAD_ALLOC; }
 800066c:	2b00      	cmp	r3, #0
 800066e:	d008      	beq.n	8000682 <_ZN9OneButton3runEv+0x33e>
        (*__my_malloc_handler)();
 8000670:	4798      	blx	r3
        __result = malloc(__n);
 8000672:	2010      	movs	r0, #16
 8000674:	f001 ffd6 	bl	8002624 <malloc>
        if (__result) return(__result);
 8000678:	2800      	cmp	r0, #0
 800067a:	d0f6      	beq.n	800066a <_ZN9OneButton3runEv+0x326>
 800067c:	46a3      	mov	fp, r4
 800067e:	0004      	movs	r4, r0
 8000680:	e773      	b.n	800056a <_ZN9OneButton3runEv+0x226>
 8000682:	e7fe      	b.n	8000682 <_ZN9OneButton3runEv+0x33e>
 8000684:	465c      	mov	r4, fp
        __my_malloc_handler = __malloc_alloc_oom_handler;
 8000686:	6823      	ldr	r3, [r4, #0]
        if (0 == __my_malloc_handler) { __THROW_BAD_ALLOC; }
 8000688:	2b00      	cmp	r3, #0
 800068a:	d008      	beq.n	800069e <_ZN9OneButton3runEv+0x35a>
        (*__my_malloc_handler)();
 800068c:	4798      	blx	r3
        __result = malloc(__n);
 800068e:	2010      	movs	r0, #16
 8000690:	f001 ffc8 	bl	8002624 <malloc>
        if (__result) return(__result);
 8000694:	2800      	cmp	r0, #0
 8000696:	d0f6      	beq.n	8000686 <_ZN9OneButton3runEv+0x342>
 8000698:	46a3      	mov	fp, r4
 800069a:	0004      	movs	r4, r0
 800069c:	e793      	b.n	80005c6 <_ZN9OneButton3runEv+0x282>
 800069e:	e7fe      	b.n	800069e <_ZN9OneButton3runEv+0x35a>
 80006a0:	fffffc17 	.word	0xfffffc17
 80006a4:	40013000 	.word	0x40013000
 80006a8:	40020030 	.word	0x40020030
 80006ac:	4001300c 	.word	0x4001300c
 80006b0:	00000301 	.word	0x00000301
 80006b4:	08000159 	.word	0x08000159
 80006b8:	20000868 	.word	0x20000868
 80006bc:	08000125 	.word	0x08000125
 80006c0:	08000129 	.word	0x08000129
 80006c4:	468c      	mov	ip, r1
      /// Emits the events you wish to send to the call-backs
      /// \param args The arguments to emit to the slots connected to the signal
      template <class ...Args>
      void raiseEvent(Args&&... args) const {

        if(_slots.size()==1)
 80006c6:	2901      	cmp	r1, #1
 80006c8:	d100      	bne.n	80006cc <_ZN9OneButton3runEv+0x388>
 80006ca:	e178      	b.n	80009be <_ZN9OneButton3runEv+0x67a>
 80006cc:	ab11      	add	r3, sp, #68	; 0x44
 80006ce:	469a      	mov	sl, r3
  inline void bind(DesiredRetType (*function_to_bind)(Param1 p1)) {
    m_Closure.bindstaticfunc(this, &FastDelegate1::InvokeStaticFunction, 
      function_to_bind); }
  // Invoke the delegate
  RetType operator() (Param1 p1) const {
  return (m_Closure.GetClosureThis()->*(m_Closure.GetClosureMemPtr()))(p1); }
 80006d0:	2301      	movs	r3, #1
 80006d2:	469b      	mov	fp, r3
 80006d4:	0023      	movs	r3, r4
 80006d6:	4644      	mov	r4, r8
 80006d8:	4698      	mov	r8, r3
 80006da:	6863      	ldr	r3, [r4, #4]
  inline GenericMemFunc GetClosureMemPtr() const { return reinterpret_cast<GenericMemFunc>(m_pFunction); }
 80006dc:	4652      	mov	r2, sl
 80006de:	469c      	mov	ip, r3
 80006e0:	0023      	movs	r3, r4
 80006e2:	3308      	adds	r3, #8
 80006e4:	cb03      	ldmia	r3!, {r0, r1}
 80006e6:	c203      	stmia	r2!, {r0, r1}
  return (m_Closure.GetClosureThis()->*(m_Closure.GetClosureMemPtr()))(p1); }
 80006e8:	4658      	mov	r0, fp
  inline GenericMemFunc GetClosureMemPtr() const { return reinterpret_cast<GenericMemFunc>(m_pFunction); }
 80006ea:	9b12      	ldr	r3, [sp, #72]	; 0x48
 80006ec:	9a11      	ldr	r2, [sp, #68]	; 0x44
  return (m_Closure.GetClosureThis()->*(m_Closure.GetClosureMemPtr()))(p1); }
 80006ee:	4218      	tst	r0, r3
 80006f0:	d100      	bne.n	80006f4 <_ZN9OneButton3runEv+0x3b0>
 80006f2:	e15b      	b.n	80009ac <_ZN9OneButton3runEv+0x668>
 80006f4:	105b      	asrs	r3, r3, #1
 80006f6:	4463      	add	r3, ip
 80006f8:	0018      	movs	r0, r3
 80006fa:	681b      	ldr	r3, [r3, #0]
 80006fc:	2105      	movs	r1, #5
 80006fe:	589b      	ldr	r3, [r3, r2]
 8000700:	4798      	blx	r3
  void _M_incr() { _M_node = _M_node->_M_next; }
 8000702:	6824      	ldr	r4, [r4, #0]
          _firstSlot(args...);
        else {
          for(auto it=_slots.begin();it!=_slots.end();it++)
 8000704:	2c00      	cmp	r4, #0
 8000706:	d1e8      	bne.n	80006da <_ZN9OneButton3runEv+0x396>
 8000708:	4644      	mov	r4, r8
    _remoteWakeup=false;
 800070a:	2300      	movs	r3, #0
 800070c:	469b      	mov	fp, r3
 800070e:	465a      	mov	r2, fp
 8000710:	335b      	adds	r3, #91	; 0x5b
 8000712:	54f2      	strb	r2, [r6, r3]
    USBR->BTABLE=0;
 8000714:	4bb7      	ldr	r3, [pc, #732]	; (80009f4 <_ZN9OneButton3runEv+0x6b0>)
 8000716:	4659      	mov	r1, fp
 8000718:	469a      	mov	sl, r3
    RCC_APB1PeriphClockCmd(RCC_APB1Periph_USB,ENABLE);
 800071a:	2080      	movs	r0, #128	; 0x80
    USBR->BTABLE=0;
 800071c:	4652      	mov	r2, sl
 800071e:	2350      	movs	r3, #80	; 0x50
    RCC_APB1PeriphClockCmd(RCC_APB1Periph_USB,ENABLE);
 8000720:	0400      	lsls	r0, r0, #16
    USBR->BTABLE=0;
 8000722:	52d1      	strh	r1, [r2, r3]
    RCC_APB1PeriphClockCmd(RCC_APB1Periph_USB,ENABLE);
 8000724:	2101      	movs	r1, #1
 8000726:	f001 fee1 	bl	80024ec <RCC_APB1PeriphClockCmd>

  inline void Nvic::configureIrq(uint8_t interrupt,FunctionalState state,uint8_t preemptionPriority,uint8_t /* subPriority */) {

    NVIC_InitTypeDef nit;

    nit.NVIC_IRQChannel=interrupt;
 800072a:	2154      	movs	r1, #84	; 0x54
 800072c:	466a      	mov	r2, sp
 800072e:	231f      	movs	r3, #31
 8000730:	1852      	adds	r2, r2, r1
 8000732:	7013      	strb	r3, [r2, #0]
    nit.NVIC_IRQChannelPriority=preemptionPriority;
 8000734:	466a      	mov	r2, sp
 8000736:	2300      	movs	r3, #0
 8000738:	3101      	adds	r1, #1
 800073a:	1852      	adds	r2, r2, r1
 800073c:	7013      	strb	r3, [r2, #0]
    nit.NVIC_IRQChannelCmd=state;
 800073e:	2301      	movs	r3, #1
 8000740:	2256      	movs	r2, #86	; 0x56
 8000742:	4698      	mov	r8, r3
 8000744:	466b      	mov	r3, sp
 8000746:	189b      	adds	r3, r3, r2
 8000748:	4642      	mov	r2, r8

    NVIC_Init(&nit);
 800074a:	a815      	add	r0, sp, #84	; 0x54
    nit.NVIC_IRQChannelCmd=state;
 800074c:	701a      	strb	r2, [r3, #0]
    NVIC_Init(&nit);
 800074e:	f001 fe89 	bl	8002464 <NVIC_Init>
    USBR->CNTR=USB_CNTR_FRES;
 8000752:	2340      	movs	r3, #64	; 0x40
 8000754:	4652      	mov	r2, sl
 8000756:	4641      	mov	r1, r8
 8000758:	52d1      	strh	r1, [r2, r3]
    USBR->CNTR=0;
 800075a:	4659      	mov	r1, fp
    USBR->ISTR=0;
 800075c:	4658      	mov	r0, fp
    USBR->CNTR=0;
 800075e:	52d1      	strh	r1, [r2, r3]
    USBR->ISTR=0;
 8000760:	4651      	mov	r1, sl
 8000762:	2244      	movs	r2, #68	; 0x44
 8000764:	5288      	strh	r0, [r1, r2]
    USBR->CNTR=USB_CNTR_CTRM          // correct transfer
 8000766:	4aa4      	ldr	r2, [pc, #656]	; (80009f8 <_ZN9OneButton3runEv+0x6b4>)
 8000768:	52ca      	strh	r2, [r1, r3]
    USBR->BCDR |= USB_BCDR_DPPU;
 800076a:	2258      	movs	r2, #88	; 0x58
 800076c:	5a8b      	ldrh	r3, [r1, r2]
 800076e:	2180      	movs	r1, #128	; 0x80
 8000770:	0209      	lsls	r1, r1, #8
 8000772:	430b      	orrs	r3, r1
 8000774:	4651      	mov	r1, sl
 8000776:	528b      	strh	r3, [r1, r2]
  size_type size() const { return __slist_size(this->_M_head._M_next); }
 8000778:	6af3      	ldr	r3, [r6, #44]	; 0x2c
 800077a:	469a      	mov	sl, r3
  for ( ; __node != 0; __node = __node->_M_next)
 800077c:	2b00      	cmp	r3, #0
 800077e:	d020      	beq.n	80007c2 <_ZN9OneButton3runEv+0x47e>
 8000780:	2100      	movs	r1, #0
 8000782:	681b      	ldr	r3, [r3, #0]
    ++__result;
 8000784:	3101      	adds	r1, #1
  for ( ; __node != 0; __node = __node->_M_next)
 8000786:	2b00      	cmp	r3, #0
 8000788:	d1fb      	bne.n	8000782 <_ZN9OneButton3runEv+0x43e>
        if(_slots.size()==1)
 800078a:	2901      	cmp	r1, #1
 800078c:	d100      	bne.n	8000790 <_ZN9OneButton3runEv+0x44c>
 800078e:	e0fc      	b.n	800098a <_ZN9OneButton3runEv+0x646>
 8000790:	2301      	movs	r3, #1
 8000792:	4698      	mov	r8, r3
 8000794:	4653      	mov	r3, sl
  inline GenericMemFunc GetClosureMemPtr() const { return reinterpret_cast<GenericMemFunc>(m_pFunction); }
 8000796:	aa15      	add	r2, sp, #84	; 0x54
 8000798:	6858      	ldr	r0, [r3, #4]
 800079a:	3308      	adds	r3, #8
 800079c:	cb12      	ldmia	r3!, {r1, r4}
 800079e:	c212      	stmia	r2!, {r1, r4}
  return (m_Closure.GetClosureThis()->*(m_Closure.GetClosureMemPtr()))(p1); }
 80007a0:	4641      	mov	r1, r8
  inline GenericMemFunc GetClosureMemPtr() const { return reinterpret_cast<GenericMemFunc>(m_pFunction); }
 80007a2:	9a16      	ldr	r2, [sp, #88]	; 0x58
 80007a4:	9b15      	ldr	r3, [sp, #84]	; 0x54
  return (m_Closure.GetClosureThis()->*(m_Closure.GetClosureMemPtr()))(p1); }
 80007a6:	4211      	tst	r1, r2
 80007a8:	d100      	bne.n	80007ac <_ZN9OneButton3runEv+0x468>
 80007aa:	e0eb      	b.n	8000984 <_ZN9OneButton3runEv+0x640>
 80007ac:	1052      	asrs	r2, r2, #1
 80007ae:	1880      	adds	r0, r0, r2
 80007b0:	6802      	ldr	r2, [r0, #0]
 80007b2:	58d3      	ldr	r3, [r2, r3]
 80007b4:	2105      	movs	r1, #5
 80007b6:	4798      	blx	r3
  void _M_incr() { _M_node = _M_node->_M_next; }
 80007b8:	4653      	mov	r3, sl
 80007ba:	681b      	ldr	r3, [r3, #0]
 80007bc:	469a      	mov	sl, r3
          for(auto it=_slots.begin();it!=_slots.end();it++)
 80007be:	2b00      	cmp	r3, #0
 80007c0:	d1e8      	bne.n	8000794 <_ZN9OneButton3runEv+0x450>
 80007c2:	4b8e      	ldr	r3, [pc, #568]	; (80009fc <_ZN9OneButton3runEv+0x6b8>)
 80007c4:	464c      	mov	r4, r9
 80007c6:	469a      	mov	sl, r3
   * Read the selected pin state.
   * @return The pin state.
   */

  inline bool Gpio::read() const {
    return GPIO_ReadInputDataBit(_peripheralAddress,_selectedPin);
 80007c8:	2352      	movs	r3, #82	; 0x52
 80007ca:	469b      	mov	fp, r3
          _debounce = 1;
 80007cc:	3b51      	subs	r3, #81	; 0x51
 80007ce:	4698      	mov	r8, r3
 80007d0:	465b      	mov	r3, fp
 80007d2:	9850      	ldr	r0, [sp, #320]	; 0x140
 80007d4:	5ae9      	ldrh	r1, [r5, r3]
 80007d6:	f001 fe23 	bl	8002420 <GPIO_ReadInputDataBit>
        if(keyin.read()==0 && _debounce == 0)
 80007da:	2800      	cmp	r0, #0
 80007dc:	d129      	bne.n	8000832 <_ZN9OneButton3runEv+0x4ee>
 80007de:	7c23      	ldrb	r3, [r4, #16]
 80007e0:	b2db      	uxtb	r3, r3
 80007e2:	2b00      	cmp	r3, #0
 80007e4:	d125      	bne.n	8000832 <_ZN9OneButton3runEv+0x4ee>
          uint8_t usb_key_report[8] = {2, 0, 5, 0, 0, 0, 0, 0};
 80007e6:	4a86      	ldr	r2, [pc, #536]	; (8000a00 <_ZN9OneButton3runEv+0x6bc>)
 80007e8:	9306      	str	r3, [sp, #24]
 80007ea:	9205      	str	r2, [sp, #20]
    if(_deviceState!=DeviceStateType::CONFIGURED)
 80007ec:	6b32      	ldr	r2, [r6, #48]	; 0x30
 80007ee:	2a03      	cmp	r2, #3
 80007f0:	d100      	bne.n	80007f4 <_ZN9OneButton3runEv+0x4b0>
 80007f2:	e095      	b.n	8000920 <_ZN9OneButton3runEv+0x5dc>
       * @param[in] errorCause Optional 32-bit value associated with this error.
       * @return false, which is the convention for the return value of a method that wants to indicate to its caller that it has failed.
       */

      bool set(uint32_t errorProviderCode,uint32_t errorCode,uint32_t errorCause=0) {
        _provider=errorProviderCode;
 80007f4:	4651      	mov	r1, sl
 80007f6:	2246      	movs	r2, #70	; 0x46
 80007f8:	608a      	str	r2, [r1, #8]
        _errorCode=errorCode | (errorProviderCode << 16);
 80007fa:	4a82      	ldr	r2, [pc, #520]	; (8000a04 <_ZN9OneButton3runEv+0x6c0>)
        _errorCause=errorCause;
 80007fc:	604b      	str	r3, [r1, #4]
        _errorCode=errorCode | (errorProviderCode << 16);
 80007fe:	600a      	str	r2, [r1, #0]
          MillisecondTimer::delay(10);
 8000800:	200a      	movs	r0, #10
 8000802:	f001 fd1b 	bl	800223c <_ZN9stm32plus16MillisecondTimer5delayEm>
          uint8_t usb_key_report_2[8] = {0, 0, 0, 0, 0, 0, 0, 0};
 8000806:	2208      	movs	r2, #8
 8000808:	2100      	movs	r1, #0
 800080a:	a807      	add	r0, sp, #28
 800080c:	f002 f9f8 	bl	8002c00 <memset>
 8000810:	6b33      	ldr	r3, [r6, #48]	; 0x30
 8000812:	2b03      	cmp	r3, #3
 8000814:	d047      	beq.n	80008a6 <_ZN9OneButton3runEv+0x562>
        _provider=errorProviderCode;
 8000816:	2346      	movs	r3, #70	; 0x46
 8000818:	4652      	mov	r2, sl
 800081a:	6093      	str	r3, [r2, #8]
        _errorCause=errorCause;
 800081c:	2300      	movs	r3, #0
 800081e:	4979      	ldr	r1, [pc, #484]	; (8000a04 <_ZN9OneButton3runEv+0x6c0>)
 8000820:	c20a      	stmia	r2!, {r1, r3}
          MillisecondTimer::delay(10);
 8000822:	200a      	movs	r0, #10
 8000824:	f001 fd0a 	bl	800223c <_ZN9stm32plus16MillisecondTimer5delayEm>
          _debounce = 1;
 8000828:	4643      	mov	r3, r8
          MillisecondTimer::delay(200);
 800082a:	20c8      	movs	r0, #200	; 0xc8
          _debounce = 1;
 800082c:	7423      	strb	r3, [r4, #16]
          MillisecondTimer::delay(200);
 800082e:	f001 fd05 	bl	800223c <_ZN9stm32plus16MillisecondTimer5delayEm>
 8000832:	465b      	mov	r3, fp
 8000834:	9850      	ldr	r0, [sp, #320]	; 0x140
 8000836:	5ae9      	ldrh	r1, [r5, r3]
 8000838:	f001 fdf2 	bl	8002420 <GPIO_ReadInputDataBit>
        if(keyin.read() == 1)
 800083c:	2800      	cmp	r0, #0
 800083e:	d001      	beq.n	8000844 <_ZN9OneButton3runEv+0x500>
          _debounce = 0;
 8000840:	2300      	movs	r3, #0
 8000842:	7423      	strb	r3, [r4, #16]
    else
      GPIO_ResetBits(_nssPort,_nssPin);
 8000844:	2090      	movs	r0, #144	; 0x90
 8000846:	2110      	movs	r1, #16
 8000848:	05c0      	lsls	r0, r0, #23
 800084a:	f001 fdf1 	bl	8002430 <GPIO_ResetBits>

    DMA_Channel_TypeDef *peripheralAddress;

    // set up the parameters for this transfer

    _init.DMA_MemoryBaseAddr=reinterpret_cast<uint32_t>(source);
 800084e:	6823      	ldr	r3, [r4, #0]

    peripheralAddress=_dma;

      // disable and then re-enable

    DMA_Cmd(peripheralAddress,DISABLE);
 8000850:	2100      	movs	r1, #0
    _init.DMA_MemoryBaseAddr=reinterpret_cast<uint32_t>(source);
 8000852:	61bb      	str	r3, [r7, #24]
    _init.DMA_BufferSize=count;
 8000854:	2304      	movs	r3, #4
 8000856:	623b      	str	r3, [r7, #32]
 8000858:	693b      	ldr	r3, [r7, #16]
 800085a:	681b      	ldr	r3, [r3, #0]
 800085c:	4699      	mov	r9, r3
    DMA_Cmd(peripheralAddress,DISABLE);
 800085e:	0018      	movs	r0, r3
 8000860:	f001 fd70 	bl	8002344 <DMA_Cmd>
    DMA_Init(peripheralAddress,&_init);
 8000864:	a91d      	add	r1, sp, #116	; 0x74
 8000866:	4648      	mov	r0, r9
 8000868:	f001 fd4e 	bl	8002308 <DMA_Init>
    DMA_Cmd(peripheralAddress,ENABLE);
 800086c:	2101      	movs	r1, #1
 800086e:	4648      	mov	r0, r9
 8000870:	f001 fd68 	bl	8002344 <DMA_Cmd>
   * Wait for the peripheral to become idle. If transmitting then the peripheral becomes
   * idle when the last word written to the TX register has been shifted out to the bus.
   */

  inline void Spi::waitForIdle() const {
    while(SPI_I2S_GetFlagStatus(_peripheralAddress,SPI_I2S_FLAG_BSY)==SET);
 8000874:	2180      	movs	r1, #128	; 0x80
 8000876:	4864      	ldr	r0, [pc, #400]	; (8000a08 <_ZN9OneButton3runEv+0x6c4>)
 8000878:	f001 fe9a 	bl	80025b0 <SPI_I2S_GetFlagStatus>
 800087c:	2801      	cmp	r0, #1
 800087e:	d0f9      	beq.n	8000874 <_ZN9OneButton3runEv+0x530>
      GPIO_SetBits(_nssPort,_nssPin);
 8000880:	2090      	movs	r0, #144	; 0x90
 8000882:	2110      	movs	r1, #16
 8000884:	05c0      	lsls	r0, r0, #23
 8000886:	f001 fdd1 	bl	800242c <GPIO_SetBits>
 800088a:	e7a1      	b.n	80007d0 <_ZN9OneButton3runEv+0x48c>
        __my_malloc_handler = __malloc_alloc_oom_handler;
 800088c:	465b      	mov	r3, fp
 800088e:	681b      	ldr	r3, [r3, #0]
        if (0 == __my_malloc_handler) { __THROW_BAD_ALLOC; }
 8000890:	2b00      	cmp	r3, #0
 8000892:	d007      	beq.n	80008a4 <_ZN9OneButton3runEv+0x560>
        (*__my_malloc_handler)();
 8000894:	4798      	blx	r3
        __result = malloc(__n);
 8000896:	2010      	movs	r0, #16
 8000898:	f001 fec4 	bl	8002624 <malloc>
        if (__result) return(__result);
 800089c:	2800      	cmp	r0, #0
 800089e:	d0f5      	beq.n	800088c <_ZN9OneButton3runEv+0x548>
 80008a0:	4680      	mov	r8, r0
 80008a2:	e6c2      	b.n	800062a <_ZN9OneButton3runEv+0x2e6>
 80008a4:	e7fe      	b.n	80008a4 <_ZN9OneButton3runEv+0x560>
    _inEndpointData[endpointIndex].remaining=length;
 80008a6:	4b59      	ldr	r3, [pc, #356]	; (8000a0c <_ZN9OneButton3runEv+0x6c8>)
      word=dataBytes[0] | ((uint16_t)dataBytes[1] << 8);
 80008a8:	2120      	movs	r1, #32
    _inEndpointData[endpointIndex].remaining=length;
 80008aa:	9365      	str	r3, [sp, #404]	; 0x194
 80008ac:	4b58      	ldr	r3, [pc, #352]	; (8000a10 <_ZN9OneButton3runEv+0x6cc>)
 80008ae:	9366      	str	r3, [sp, #408]	; 0x198
      word=dataBytes[0] | ((uint16_t)dataBytes[1] << 8);
 80008b0:	466b      	mov	r3, sp
 80008b2:	7f5a      	ldrb	r2, [r3, #29]
 80008b4:	7f1b      	ldrb	r3, [r3, #28]
 80008b6:	0212      	lsls	r2, r2, #8
 80008b8:	4313      	orrs	r3, r2
      *pdwVal++=word;
 80008ba:	4a56      	ldr	r2, [pc, #344]	; (8000a14 <_ZN9OneButton3runEv+0x6d0>)
 80008bc:	8013      	strh	r3, [r2, #0]
      word=dataBytes[0] | ((uint16_t)dataBytes[1] << 8);
 80008be:	466b      	mov	r3, sp
 80008c0:	7fda      	ldrb	r2, [r3, #31]
 80008c2:	7f9b      	ldrb	r3, [r3, #30]
 80008c4:	0212      	lsls	r2, r2, #8
 80008c6:	4313      	orrs	r3, r2
      *pdwVal++=word;
 80008c8:	4a53      	ldr	r2, [pc, #332]	; (8000a18 <_ZN9OneButton3runEv+0x6d4>)
 80008ca:	8013      	strh	r3, [r2, #0]
      word=dataBytes[0] | ((uint16_t)dataBytes[1] << 8);
 80008cc:	2221      	movs	r2, #33	; 0x21
 80008ce:	466b      	mov	r3, sp
 80008d0:	189b      	adds	r3, r3, r2
 80008d2:	781a      	ldrb	r2, [r3, #0]
 80008d4:	466b      	mov	r3, sp
 80008d6:	185b      	adds	r3, r3, r1
 80008d8:	781b      	ldrb	r3, [r3, #0]
 80008da:	0212      	lsls	r2, r2, #8
 80008dc:	4313      	orrs	r3, r2
      *pdwVal++=word;
 80008de:	4a4f      	ldr	r2, [pc, #316]	; (8000a1c <_ZN9OneButton3runEv+0x6d8>)
      word=dataBytes[0] | ((uint16_t)dataBytes[1] << 8);
 80008e0:	3102      	adds	r1, #2
      *pdwVal++=word;
 80008e2:	8013      	strh	r3, [r2, #0]
      word=dataBytes[0] | ((uint16_t)dataBytes[1] << 8);
 80008e4:	2223      	movs	r2, #35	; 0x23
 80008e6:	466b      	mov	r3, sp
 80008e8:	189b      	adds	r3, r3, r2
 80008ea:	781a      	ldrb	r2, [r3, #0]
 80008ec:	466b      	mov	r3, sp
 80008ee:	185b      	adds	r3, r3, r1
 80008f0:	781b      	ldrb	r3, [r3, #0]
 80008f2:	0212      	lsls	r2, r2, #8
 80008f4:	4313      	orrs	r3, r2
      *pdwVal++=word;
 80008f6:	4a4a      	ldr	r2, [pc, #296]	; (8000a20 <_ZN9OneButton3runEv+0x6dc>)
    value=*epreg & USB_EPTX_DTOGMASK;
 80008f8:	494a      	ldr	r1, [pc, #296]	; (8000a24 <_ZN9OneButton3runEv+0x6e0>)
      *pdwVal++=word;
 80008fa:	8013      	strh	r3, [r2, #0]
    ep.ptr+=length;
 80008fc:	ab09      	add	r3, sp, #36	; 0x24
 80008fe:	64b3      	str	r3, [r6, #72]	; 0x48
    ep.remaining-=length;
 8000900:	2200      	movs	r2, #0
 8000902:	234c      	movs	r3, #76	; 0x4c
 8000904:	52f2      	strh	r2, [r6, r3]
    USBR_BDT[endpointIndex].tx.count=length;
 8000906:	4b48      	ldr	r3, [pc, #288]	; (8000a28 <_ZN9OneButton3runEv+0x6e4>)
 8000908:	3208      	adds	r2, #8
 800090a:	805a      	strh	r2, [r3, #2]
    value=*epreg & USB_EPTX_DTOGMASK;
 800090c:	880b      	ldrh	r3, [r1, #0]
 800090e:	4a47      	ldr	r2, [pc, #284]	; (8000a2c <_ZN9OneButton3runEv+0x6e8>)
 8000910:	4013      	ands	r3, r2
      reg^=USB_EPTX_DTOG2;
 8000912:	2230      	movs	r2, #48	; 0x30
 8000914:	405a      	eors	r2, r3
    *epreg=setTxStatus(value,status) | USB_EP_CTR_RX | USB_EP_CTR_TX;
 8000916:	4b46      	ldr	r3, [pc, #280]	; (8000a30 <_ZN9OneButton3runEv+0x6ec>)
 8000918:	4313      	orrs	r3, r2
 800091a:	b29b      	uxth	r3, r3
 800091c:	800b      	strh	r3, [r1, #0]
 800091e:	e780      	b.n	8000822 <_ZN9OneButton3runEv+0x4de>
    _inEndpointData[endpointIndex].remaining=length;
 8000920:	4a3a      	ldr	r2, [pc, #232]	; (8000a0c <_ZN9OneButton3runEv+0x6c8>)
 8000922:	9265      	str	r2, [sp, #404]	; 0x194
 8000924:	4a3a      	ldr	r2, [pc, #232]	; (8000a10 <_ZN9OneButton3runEv+0x6cc>)
 8000926:	9266      	str	r2, [sp, #408]	; 0x198
      word=dataBytes[0] | ((uint16_t)dataBytes[1] << 8);
 8000928:	466a      	mov	r2, sp
 800092a:	7d51      	ldrb	r1, [r2, #21]
 800092c:	7d12      	ldrb	r2, [r2, #20]
 800092e:	0209      	lsls	r1, r1, #8
 8000930:	430a      	orrs	r2, r1
      *pdwVal++=word;
 8000932:	4938      	ldr	r1, [pc, #224]	; (8000a14 <_ZN9OneButton3runEv+0x6d0>)
 8000934:	800a      	strh	r2, [r1, #0]
      word=dataBytes[0] | ((uint16_t)dataBytes[1] << 8);
 8000936:	466a      	mov	r2, sp
 8000938:	7dd1      	ldrb	r1, [r2, #23]
 800093a:	7d92      	ldrb	r2, [r2, #22]
 800093c:	0209      	lsls	r1, r1, #8
 800093e:	430a      	orrs	r2, r1
      *pdwVal++=word;
 8000940:	4935      	ldr	r1, [pc, #212]	; (8000a18 <_ZN9OneButton3runEv+0x6d4>)
 8000942:	800a      	strh	r2, [r1, #0]
      word=dataBytes[0] | ((uint16_t)dataBytes[1] << 8);
 8000944:	466a      	mov	r2, sp
 8000946:	7e51      	ldrb	r1, [r2, #25]
 8000948:	7e12      	ldrb	r2, [r2, #24]
 800094a:	0209      	lsls	r1, r1, #8
 800094c:	430a      	orrs	r2, r1
      *pdwVal++=word;
 800094e:	4933      	ldr	r1, [pc, #204]	; (8000a1c <_ZN9OneButton3runEv+0x6d8>)
 8000950:	800a      	strh	r2, [r1, #0]
      word=dataBytes[0] | ((uint16_t)dataBytes[1] << 8);
 8000952:	466a      	mov	r2, sp
 8000954:	7ed1      	ldrb	r1, [r2, #27]
 8000956:	7e92      	ldrb	r2, [r2, #26]
 8000958:	0209      	lsls	r1, r1, #8
 800095a:	430a      	orrs	r2, r1
      *pdwVal++=word;
 800095c:	4930      	ldr	r1, [pc, #192]	; (8000a20 <_ZN9OneButton3runEv+0x6dc>)
 800095e:	800a      	strh	r2, [r1, #0]
    ep.ptr+=length;
 8000960:	aa07      	add	r2, sp, #28
 8000962:	64b2      	str	r2, [r6, #72]	; 0x48
    ep.remaining-=length;
 8000964:	224c      	movs	r2, #76	; 0x4c
 8000966:	52b3      	strh	r3, [r6, r2]
    USBR_BDT[endpointIndex].tx.count=length;
 8000968:	4b2f      	ldr	r3, [pc, #188]	; (8000a28 <_ZN9OneButton3runEv+0x6e4>)
 800096a:	3a44      	subs	r2, #68	; 0x44
    value=*epreg & USB_EPTX_DTOGMASK;
 800096c:	492d      	ldr	r1, [pc, #180]	; (8000a24 <_ZN9OneButton3runEv+0x6e0>)
    USBR_BDT[endpointIndex].tx.count=length;
 800096e:	805a      	strh	r2, [r3, #2]
    value=*epreg & USB_EPTX_DTOGMASK;
 8000970:	880b      	ldrh	r3, [r1, #0]
 8000972:	4a2e      	ldr	r2, [pc, #184]	; (8000a2c <_ZN9OneButton3runEv+0x6e8>)
 8000974:	4013      	ands	r3, r2
      reg^=USB_EPTX_DTOG2;
 8000976:	2230      	movs	r2, #48	; 0x30
 8000978:	405a      	eors	r2, r3
    *epreg=setTxStatus(value,status) | USB_EP_CTR_RX | USB_EP_CTR_TX;
 800097a:	4b2d      	ldr	r3, [pc, #180]	; (8000a30 <_ZN9OneButton3runEv+0x6ec>)
 800097c:	4313      	orrs	r3, r2
 800097e:	b29b      	uxth	r3, r3
 8000980:	800b      	strh	r3, [r1, #0]
 8000982:	e73d      	b.n	8000800 <_ZN9OneButton3runEv+0x4bc>
 8000984:	1052      	asrs	r2, r2, #1
 8000986:	1880      	adds	r0, r0, r2
 8000988:	e714      	b.n	80007b4 <_ZN9OneButton3runEv+0x470>
 800098a:	9b5a      	ldr	r3, [sp, #360]	; 0x168
 800098c:	469c      	mov	ip, r3
  inline GenericMemFunc GetClosureMemPtr() const { return reinterpret_cast<GenericMemFunc>(m_pFunction); }
 800098e:	ab13      	add	r3, sp, #76	; 0x4c
 8000990:	cc05      	ldmia	r4!, {r0, r2}
 8000992:	c305      	stmia	r3!, {r0, r2}
 8000994:	9b14      	ldr	r3, [sp, #80]	; 0x50
 8000996:	9a13      	ldr	r2, [sp, #76]	; 0x4c
  return (m_Closure.GetClosureThis()->*(m_Closure.GetClosureMemPtr()))(p1); }
 8000998:	4219      	tst	r1, r3
 800099a:	d023      	beq.n	80009e4 <_ZN9OneButton3runEv+0x6a0>
 800099c:	105b      	asrs	r3, r3, #1
 800099e:	4463      	add	r3, ip
 80009a0:	0018      	movs	r0, r3
 80009a2:	681b      	ldr	r3, [r3, #0]
 80009a4:	589a      	ldr	r2, [r3, r2]
 80009a6:	2105      	movs	r1, #5
 80009a8:	4790      	blx	r2
 80009aa:	e70a      	b.n	80007c2 <_ZN9OneButton3runEv+0x47e>
 80009ac:	1058      	asrs	r0, r3, #1
 80009ae:	4460      	add	r0, ip
 80009b0:	2105      	movs	r1, #5
 80009b2:	4790      	blx	r2
 80009b4:	6824      	ldr	r4, [r4, #0]
 80009b6:	2c00      	cmp	r4, #0
 80009b8:	d000      	beq.n	80009bc <_ZN9OneButton3runEv+0x678>
 80009ba:	e68e      	b.n	80006da <_ZN9OneButton3runEv+0x396>
 80009bc:	e6a4      	b.n	8000708 <_ZN9OneButton3runEv+0x3c4>
  inline GenericMemFunc GetClosureMemPtr() const { return reinterpret_cast<GenericMemFunc>(m_pFunction); }
 80009be:	0022      	movs	r2, r4
 80009c0:	9b5a      	ldr	r3, [sp, #360]	; 0x168
 80009c2:	4698      	mov	r8, r3
 80009c4:	ab0f      	add	r3, sp, #60	; 0x3c
 80009c6:	ca03      	ldmia	r2!, {r0, r1}
 80009c8:	c303      	stmia	r3!, {r0, r1}
  return (m_Closure.GetClosureThis()->*(m_Closure.GetClosureMemPtr()))(p1); }
 80009ca:	4661      	mov	r1, ip
  inline GenericMemFunc GetClosureMemPtr() const { return reinterpret_cast<GenericMemFunc>(m_pFunction); }
 80009cc:	9b10      	ldr	r3, [sp, #64]	; 0x40
 80009ce:	9a0f      	ldr	r2, [sp, #60]	; 0x3c
  return (m_Closure.GetClosureThis()->*(m_Closure.GetClosureMemPtr()))(p1); }
 80009d0:	4219      	tst	r1, r3
 80009d2:	d00b      	beq.n	80009ec <_ZN9OneButton3runEv+0x6a8>
 80009d4:	105b      	asrs	r3, r3, #1
 80009d6:	4443      	add	r3, r8
 80009d8:	0018      	movs	r0, r3
 80009da:	681b      	ldr	r3, [r3, #0]
 80009dc:	589a      	ldr	r2, [r3, r2]
 80009de:	2105      	movs	r1, #5
 80009e0:	4790      	blx	r2
 80009e2:	e692      	b.n	800070a <_ZN9OneButton3runEv+0x3c6>
 80009e4:	105b      	asrs	r3, r3, #1
 80009e6:	4463      	add	r3, ip
 80009e8:	0018      	movs	r0, r3
 80009ea:	e7dc      	b.n	80009a6 <_ZN9OneButton3runEv+0x662>
 80009ec:	105b      	asrs	r3, r3, #1
 80009ee:	4443      	add	r3, r8
 80009f0:	0018      	movs	r0, r3
 80009f2:	e7f4      	b.n	80009de <_ZN9OneButton3runEv+0x69a>
 80009f4:	40005c00 	.word	0x40005c00
 80009f8:	ffffbd00 	.word	0xffffbd00
 80009fc:	20000874 	.word	0x20000874
 8000a00:	00050002 	.word	0x00050002
 8000a04:	00460001 	.word	0x00460001
 8000a08:	40013000 	.word	0x40013000
 8000a0c:	00080008 	.word	0x00080008
 8000a10:	00980009 	.word	0x00980009
 8000a14:	40006098 	.word	0x40006098
 8000a18:	4000609a 	.word	0x4000609a
 8000a1c:	4000609c 	.word	0x4000609c
 8000a20:	4000609e 	.word	0x4000609e
 8000a24:	40005c04 	.word	0x40005c04
 8000a28:	40006008 	.word	0x40006008
 8000a2c:	ffff8fbf 	.word	0xffff8fbf
 8000a30:	ffff8080 	.word	0xffff8080

08000a34 <main>:

/*
 * Main entry point
 */

int main() {
 8000a34:	b500      	push	{lr}
 8000a36:	b087      	sub	sp, #28

  Nvic::initialise();

  // set up SysTick at 1ms resolution
  MillisecondTimer::initialise();
 8000a38:	f001 fbda 	bl	80021f0 <_ZN9stm32plus16MillisecondTimer10initialiseEv>
class OneButton {
 8000a3c:	4b03      	ldr	r3, [pc, #12]	; (8000a4c <main+0x18>)
 8000a3e:	a801      	add	r0, sp, #4
 8000a40:	9301      	str	r3, [sp, #4]
 8000a42:	2300      	movs	r3, #0
 8000a44:	7403      	strb	r3, [r0, #16]

  OneButton onebutton;
  onebutton.run();
 8000a46:	f7ff fc7d 	bl	8000344 <_ZN9OneButton3runEv>
 8000a4a:	46c0      	nop			; (mov r8, r8)
 8000a4c:	080031d4 	.word	0x080031d4

08000a50 <_ZNK4wink6signalINS_4slotIFvN9stm32plus13UsbStatusTypeEEEEE10raiseEventIJRS3_EEEvDpOT_>:
      void raiseEvent(Args&&... args) const {
 8000a50:	b5f0      	push	{r4, r5, r6, r7, lr}
 8000a52:	46ce      	mov	lr, r9
 8000a54:	4647      	mov	r7, r8
 8000a56:	b580      	push	{r7, lr}
  size_type size() const { return __slist_size(this->_M_head._M_next); }
 8000a58:	68c4      	ldr	r4, [r0, #12]
 8000a5a:	b085      	sub	sp, #20
 8000a5c:	000e      	movs	r6, r1
  for ( ; __node != 0; __node = __node->_M_next)
 8000a5e:	2c00      	cmp	r4, #0
 8000a60:	d01f      	beq.n	8000aa2 <_ZNK4wink6signalINS_4slotIFvN9stm32plus13UsbStatusTypeEEEEE10raiseEventIJRS3_EEEvDpOT_+0x52>
 8000a62:	0023      	movs	r3, r4
 8000a64:	2200      	movs	r2, #0
 8000a66:	681b      	ldr	r3, [r3, #0]
    ++__result;
 8000a68:	3201      	adds	r2, #1
  for ( ; __node != 0; __node = __node->_M_next)
 8000a6a:	2b00      	cmp	r3, #0
 8000a6c:	d1fb      	bne.n	8000a66 <_ZNK4wink6signalINS_4slotIFvN9stm32plus13UsbStatusTypeEEEEE10raiseEventIJRS3_EEEvDpOT_+0x16>
        if(_slots.size()==1)
 8000a6e:	2a01      	cmp	r2, #1
 8000a70:	d023      	beq.n	8000aba <_ZNK4wink6signalINS_4slotIFvN9stm32plus13UsbStatusTypeEEEEE10raiseEventIJRS3_EEEvDpOT_+0x6a>
 8000a72:	ab02      	add	r3, sp, #8
 8000a74:	4699      	mov	r9, r3
 8000a76:	2301      	movs	r3, #1
 8000a78:	4698      	mov	r8, r3
  inline GenericMemFunc GetClosureMemPtr() const { return reinterpret_cast<GenericMemFunc>(m_pFunction); }
 8000a7a:	0023      	movs	r3, r4
 8000a7c:	464a      	mov	r2, r9
 8000a7e:	3308      	adds	r3, #8
 8000a80:	6831      	ldr	r1, [r6, #0]
 8000a82:	6860      	ldr	r0, [r4, #4]
 8000a84:	cba0      	ldmia	r3!, {r5, r7}
 8000a86:	c2a0      	stmia	r2!, {r5, r7}
  return (m_Closure.GetClosureThis()->*(m_Closure.GetClosureMemPtr()))(p1); }
 8000a88:	4645      	mov	r5, r8
  inline GenericMemFunc GetClosureMemPtr() const { return reinterpret_cast<GenericMemFunc>(m_pFunction); }
 8000a8a:	9b03      	ldr	r3, [sp, #12]
 8000a8c:	9a02      	ldr	r2, [sp, #8]
  return (m_Closure.GetClosureThis()->*(m_Closure.GetClosureMemPtr()))(p1); }
 8000a8e:	421d      	tst	r5, r3
 8000a90:	d00c      	beq.n	8000aac <_ZNK4wink6signalINS_4slotIFvN9stm32plus13UsbStatusTypeEEEEE10raiseEventIJRS3_EEEvDpOT_+0x5c>
 8000a92:	105b      	asrs	r3, r3, #1
 8000a94:	18c0      	adds	r0, r0, r3
 8000a96:	6803      	ldr	r3, [r0, #0]
 8000a98:	589b      	ldr	r3, [r3, r2]
 8000a9a:	4798      	blx	r3
  void _M_incr() { _M_node = _M_node->_M_next; }
 8000a9c:	6824      	ldr	r4, [r4, #0]
          for(auto it=_slots.begin();it!=_slots.end();it++)
 8000a9e:	2c00      	cmp	r4, #0
 8000aa0:	d1eb      	bne.n	8000a7a <_ZNK4wink6signalINS_4slotIFvN9stm32plus13UsbStatusTypeEEEEE10raiseEventIJRS3_EEEvDpOT_+0x2a>
            (*it)(args...);
        }
      }
 8000aa2:	b005      	add	sp, #20
 8000aa4:	bc0c      	pop	{r2, r3}
 8000aa6:	4690      	mov	r8, r2
 8000aa8:	4699      	mov	r9, r3
 8000aaa:	bdf0      	pop	{r4, r5, r6, r7, pc}
 8000aac:	105b      	asrs	r3, r3, #1
 8000aae:	18c0      	adds	r0, r0, r3
 8000ab0:	4790      	blx	r2
 8000ab2:	6824      	ldr	r4, [r4, #0]
          for(auto it=_slots.begin();it!=_slots.end();it++)
 8000ab4:	2c00      	cmp	r4, #0
 8000ab6:	d1e0      	bne.n	8000a7a <_ZNK4wink6signalINS_4slotIFvN9stm32plus13UsbStatusTypeEEEEE10raiseEventIJRS3_EEEvDpOT_+0x2a>
 8000ab8:	e7f3      	b.n	8000aa2 <_ZNK4wink6signalINS_4slotIFvN9stm32plus13UsbStatusTypeEEEEE10raiseEventIJRS3_EEEvDpOT_+0x52>
  inline GenericMemFunc GetClosureMemPtr() const { return reinterpret_cast<GenericMemFunc>(m_pFunction); }
 8000aba:	466b      	mov	r3, sp
 8000abc:	c810      	ldmia	r0!, {r4}
 8000abe:	6831      	ldr	r1, [r6, #0]
 8000ac0:	c860      	ldmia	r0!, {r5, r6}
 8000ac2:	c360      	stmia	r3!, {r5, r6}
 8000ac4:	9b01      	ldr	r3, [sp, #4]
 8000ac6:	9d00      	ldr	r5, [sp, #0]
  return (m_Closure.GetClosureThis()->*(m_Closure.GetClosureMemPtr()))(p1); }
 8000ac8:	421a      	tst	r2, r3
 8000aca:	d005      	beq.n	8000ad8 <_ZNK4wink6signalINS_4slotIFvN9stm32plus13UsbStatusTypeEEEEE10raiseEventIJRS3_EEEvDpOT_+0x88>
 8000acc:	105b      	asrs	r3, r3, #1
 8000ace:	18e0      	adds	r0, r4, r3
 8000ad0:	6803      	ldr	r3, [r0, #0]
 8000ad2:	595d      	ldr	r5, [r3, r5]
 8000ad4:	47a8      	blx	r5
 8000ad6:	e7e4      	b.n	8000aa2 <_ZNK4wink6signalINS_4slotIFvN9stm32plus13UsbStatusTypeEEEEE10raiseEventIJRS3_EEEvDpOT_+0x52>
 8000ad8:	105b      	asrs	r3, r3, #1
 8000ada:	18e0      	adds	r0, r4, r3
 8000adc:	47a8      	blx	r5
 8000ade:	e7e0      	b.n	8000aa2 <_ZNK4wink6signalINS_4slotIFvN9stm32plus13UsbStatusTypeEEEEE10raiseEventIJRS3_EEEvDpOT_+0x52>

08000ae0 <_ZN9stm32plus11UsbKeyboardIN9OneButton14UsbHidKeyboardEJEE11handleSetupERKNS_14UsbSetupHeaderE>:
    switch(header.bmRequest & USB_REQ_TYPE_MASK) {
 8000ae0:	2360      	movs	r3, #96	; 0x60
 8000ae2:	780a      	ldrb	r2, [r1, #0]
  inline void UsbKeyboard<TConfiguration,Features...>::handleSetup(const UsbSetupHeader& header) {
 8000ae4:	b5f0      	push	{r4, r5, r6, r7, lr}
    switch(header.bmRequest & USB_REQ_TYPE_MASK) {
 8000ae6:	4013      	ands	r3, r2
 8000ae8:	d100      	bne.n	8000aec <_ZN9stm32plus11UsbKeyboardIN9OneButton14UsbHidKeyboardEJEE11handleSetupERKNS_14UsbSetupHeaderE+0xc>
 8000aea:	e06e      	b.n	8000bca <_ZN9stm32plus11UsbKeyboardIN9OneButton14UsbHidKeyboardEJEE11handleSetupERKNS_14UsbSetupHeaderE+0xea>
 8000aec:	2b20      	cmp	r3, #32
 8000aee:	d13a      	bne.n	8000b66 <_ZN9stm32plus11UsbKeyboardIN9OneButton14UsbHidKeyboardEJEE11handleSetupERKNS_14UsbSetupHeaderE+0x86>
    switch(header.bRequest) {
 8000af0:	784b      	ldrb	r3, [r1, #1]
 8000af2:	2b0b      	cmp	r3, #11
 8000af4:	d900      	bls.n	8000af8 <_ZN9stm32plus11UsbKeyboardIN9OneButton14UsbHidKeyboardEJEE11handleSetupERKNS_14UsbSetupHeaderE+0x18>
 8000af6:	e06f      	b.n	8000bd8 <_ZN9stm32plus11UsbKeyboardIN9OneButton14UsbHidKeyboardEJEE11handleSetupERKNS_14UsbSetupHeaderE+0xf8>
 8000af8:	4a7e      	ldr	r2, [pc, #504]	; (8000cf4 <_ZN9stm32plus11UsbKeyboardIN9OneButton14UsbHidKeyboardEJEE11handleSetupERKNS_14UsbSetupHeaderE+0x214>)
 8000afa:	009b      	lsls	r3, r3, #2
 8000afc:	58d3      	ldr	r3, [r2, r3]
 8000afe:	469f      	mov	pc, r3
        _reportAvailable=true;            // incoming report
 8000b00:	235c      	movs	r3, #92	; 0x5c
 8000b02:	2401      	movs	r4, #1
 8000b04:	54c4      	strb	r4, [r0, r3]
        _controlEndpointState=ControlEndpointStateType::DATA_OUT;
 8000b06:	3b59      	subs	r3, #89	; 0x59
 8000b08:	6383      	str	r3, [r0, #56]	; 0x38
        USBR_BDT[0].rx.setRxCount(header.wLength);
 8000b0a:	88cb      	ldrh	r3, [r1, #6]

    void setRxCount(int length) volatile {

      uint16_t wNBlocks;

      if((length)>62) {
 8000b0c:	2b3e      	cmp	r3, #62	; 0x3e
 8000b0e:	dd00      	ble.n	8000b12 <_ZN9stm32plus11UsbKeyboardIN9OneButton14UsbHidKeyboardEJEE11handleSetupERKNS_14UsbSetupHeaderE+0x32>
 8000b10:	e0b2      	b.n	8000c78 <_ZN9stm32plus11UsbKeyboardIN9OneButton14UsbHidKeyboardEJEE11handleSetupERKNS_14UsbSetupHeaderE+0x198>

        count=(wNBlocks << 10) | 0x8000;
      }
      else {

        wNBlocks=length >> 1;
 8000b12:	085a      	lsrs	r2, r3, #1

        if((length & 0x1)!=0)
 8000b14:	421c      	tst	r4, r3
 8000b16:	d000      	beq.n	8000b1a <_ZN9stm32plus11UsbKeyboardIN9OneButton14UsbHidKeyboardEJEE11handleSetupERKNS_14UsbSetupHeaderE+0x3a>
          wNBlocks++;
 8000b18:	3201      	adds	r2, #1

        count=wNBlocks << 10;
 8000b1a:	0292      	lsls	r2, r2, #10
 8000b1c:	4b76      	ldr	r3, [pc, #472]	; (8000cf8 <_ZN9stm32plus11UsbKeyboardIN9OneButton14UsbHidKeyboardEJEE11handleSetupERKNS_14UsbSetupHeaderE+0x218>)
 8000b1e:	b292      	uxth	r2, r2
 8000b20:	805a      	strh	r2, [r3, #2]
    value=*epreg & USB_EPRX_DTOGMASK;
 8000b22:	4976      	ldr	r1, [pc, #472]	; (8000cfc <_ZN9stm32plus11UsbKeyboardIN9OneButton14UsbHidKeyboardEJEE11handleSetupERKNS_14UsbSetupHeaderE+0x21c>)
 8000b24:	4a76      	ldr	r2, [pc, #472]	; (8000d00 <_ZN9stm32plus11UsbKeyboardIN9OneButton14UsbHidKeyboardEJEE11handleSetupERKNS_14UsbSetupHeaderE+0x220>)
 8000b26:	880b      	ldrh	r3, [r1, #0]
    _inEndpointData[endpointIndex].total=length;
 8000b28:	2442      	movs	r4, #66	; 0x42
    value=*epreg & USB_EPRX_DTOGMASK;
 8000b2a:	401a      	ands	r2, r3
      reg^=USB_EPRX_DTOG2;
 8000b2c:	23c0      	movs	r3, #192	; 0xc0
 8000b2e:	019b      	lsls	r3, r3, #6
 8000b30:	4053      	eors	r3, r2
    *epreg=setRxStatus(value,status) | USB_EP_CTR_RX | USB_EP_CTR_TX;
 8000b32:	4a74      	ldr	r2, [pc, #464]	; (8000d04 <_ZN9stm32plus11UsbKeyboardIN9OneButton14UsbHidKeyboardEJEE11handleSetupERKNS_14UsbSetupHeaderE+0x224>)
    _inEndpointData[endpointIndex].pmaAddress=pmaInAddress;
 8000b34:	2546      	movs	r5, #70	; 0x46
    *epreg=setRxStatus(value,status) | USB_EP_CTR_RX | USB_EP_CTR_TX;
 8000b36:	4313      	orrs	r3, r2
 8000b38:	b29b      	uxth	r3, r3
 8000b3a:	800b      	strh	r3, [r1, #0]
    _controlEndpointState=ControlEndpointStateType::STATUS_IN;
 8000b3c:	2304      	movs	r3, #4
 8000b3e:	6383      	str	r3, [r0, #56]	; 0x38
    _inEndpointData[endpointIndex].total=length;
 8000b40:	2300      	movs	r3, #0
    _inEndpointData[endpointIndex].pmaAddress=pmaInAddress;
 8000b42:	2658      	movs	r6, #88	; 0x58
    _inEndpointData[endpointIndex].total=length;
 8000b44:	5303      	strh	r3, [r0, r4]
    _inEndpointData[endpointIndex].remaining=length;
 8000b46:	3c02      	subs	r4, #2
 8000b48:	5303      	strh	r3, [r0, r4]
    _inEndpointData[endpointIndex].ptr=reinterpret_cast<const uint8_t *>(data);
 8000b4a:	63c3      	str	r3, [r0, #60]	; 0x3c
    _inEndpointData[endpointIndex].pmaAddress=pmaInAddress;
 8000b4c:	5346      	strh	r6, [r0, r5]
    _inEndpointData[endpointIndex].maxPacketSize=maxPacketSize;
 8000b4e:	3d02      	subs	r5, #2
 8000b50:	5344      	strh	r4, [r0, r5]
    USBR_BDT[endpointIndex].tx.count=length;
 8000b52:	486d      	ldr	r0, [pc, #436]	; (8000d08 <_ZN9stm32plus11UsbKeyboardIN9OneButton14UsbHidKeyboardEJEE11handleSetupERKNS_14UsbSetupHeaderE+0x228>)
 8000b54:	8043      	strh	r3, [r0, #2]
    value=*epreg & USB_EPTX_DTOGMASK;
 8000b56:	880b      	ldrh	r3, [r1, #0]
 8000b58:	486c      	ldr	r0, [pc, #432]	; (8000d0c <_ZN9stm32plus11UsbKeyboardIN9OneButton14UsbHidKeyboardEJEE11handleSetupERKNS_14UsbSetupHeaderE+0x22c>)
 8000b5a:	4003      	ands	r3, r0
      reg^=USB_EPTX_DTOG2;
 8000b5c:	2030      	movs	r0, #48	; 0x30
 8000b5e:	4043      	eors	r3, r0
    *epreg=setTxStatus(value,status) | USB_EP_CTR_RX | USB_EP_CTR_TX;
 8000b60:	431a      	orrs	r2, r3
 8000b62:	b292      	uxth	r2, r2
 8000b64:	800a      	strh	r2, [r1, #0]
  }
 8000b66:	bdf0      	pop	{r4, r5, r6, r7, pc}
    _controlEndpointState=ControlEndpointStateType::DATA_IN;
 8000b68:	2302      	movs	r3, #2
 8000b6a:	6383      	str	r3, [r0, #56]	; 0x38
        sendControlData(&_protocol,1);
 8000b6c:	0003      	movs	r3, r0
 8000b6e:	3356      	adds	r3, #86	; 0x56
    _inEndpointData[endpointIndex].ptr=reinterpret_cast<const uint8_t *>(data);
 8000b70:	63c3      	str	r3, [r0, #60]	; 0x3c
    _inEndpointData[endpointIndex].remaining=length;
 8000b72:	4b67      	ldr	r3, [pc, #412]	; (8000d10 <_ZN9stm32plus11UsbKeyboardIN9OneButton14UsbHidKeyboardEJEE11handleSetupERKNS_14UsbSetupHeaderE+0x230>)
 8000b74:	6403      	str	r3, [r0, #64]	; 0x40
 8000b76:	4b67      	ldr	r3, [pc, #412]	; (8000d14 <_ZN9stm32plus11UsbKeyboardIN9OneButton14UsbHidKeyboardEJEE11handleSetupERKNS_14UsbSetupHeaderE+0x234>)
 8000b78:	6443      	str	r3, [r0, #68]	; 0x44
      word=dataBytes[0] | ((uint16_t)dataBytes[1] << 8);
 8000b7a:	2357      	movs	r3, #87	; 0x57
 8000b7c:	5cc2      	ldrb	r2, [r0, r3]
 8000b7e:	3b01      	subs	r3, #1
 8000b80:	5cc3      	ldrb	r3, [r0, r3]
 8000b82:	0212      	lsls	r2, r2, #8
 8000b84:	4313      	orrs	r3, r2
      *pdwVal++=word;
 8000b86:	4a64      	ldr	r2, [pc, #400]	; (8000d18 <_ZN9stm32plus11UsbKeyboardIN9OneButton14UsbHidKeyboardEJEE11handleSetupERKNS_14UsbSetupHeaderE+0x238>)
 8000b88:	8013      	strh	r3, [r2, #0]
    ep.remaining-=length;
 8000b8a:	2240      	movs	r2, #64	; 0x40
    ep.ptr+=length;
 8000b8c:	6bc3      	ldr	r3, [r0, #60]	; 0x3c
 8000b8e:	3301      	adds	r3, #1
 8000b90:	63c3      	str	r3, [r0, #60]	; 0x3c
    ep.remaining-=length;
 8000b92:	5a83      	ldrh	r3, [r0, r2]
 8000b94:	3b01      	subs	r3, #1
 8000b96:	5283      	strh	r3, [r0, r2]
    USBR_BDT[endpointIndex].tx.count=length;
 8000b98:	4b5b      	ldr	r3, [pc, #364]	; (8000d08 <_ZN9stm32plus11UsbKeyboardIN9OneButton14UsbHidKeyboardEJEE11handleSetupERKNS_14UsbSetupHeaderE+0x228>)
 8000b9a:	3a3f      	subs	r2, #63	; 0x3f
 8000b9c:	805a      	strh	r2, [r3, #2]
    value=*epreg & USB_EPTX_DTOGMASK;
 8000b9e:	4957      	ldr	r1, [pc, #348]	; (8000cfc <_ZN9stm32plus11UsbKeyboardIN9OneButton14UsbHidKeyboardEJEE11handleSetupERKNS_14UsbSetupHeaderE+0x21c>)
 8000ba0:	4a5a      	ldr	r2, [pc, #360]	; (8000d0c <_ZN9stm32plus11UsbKeyboardIN9OneButton14UsbHidKeyboardEJEE11handleSetupERKNS_14UsbSetupHeaderE+0x22c>)
 8000ba2:	880b      	ldrh	r3, [r1, #0]
 8000ba4:	4013      	ands	r3, r2
      reg^=USB_EPTX_DTOG2;
 8000ba6:	2230      	movs	r2, #48	; 0x30
 8000ba8:	405a      	eors	r2, r3
    *epreg=setTxStatus(value,status) | USB_EP_CTR_RX | USB_EP_CTR_TX;
 8000baa:	4b56      	ldr	r3, [pc, #344]	; (8000d04 <_ZN9stm32plus11UsbKeyboardIN9OneButton14UsbHidKeyboardEJEE11handleSetupERKNS_14UsbSetupHeaderE+0x224>)
 8000bac:	4313      	orrs	r3, r2
 8000bae:	b29b      	uxth	r3, r3
 8000bb0:	800b      	strh	r3, [r1, #0]
 8000bb2:	e7d8      	b.n	8000b66 <_ZN9stm32plus11UsbKeyboardIN9OneButton14UsbHidKeyboardEJEE11handleSetupERKNS_14UsbSetupHeaderE+0x86>
    _controlEndpointState=ControlEndpointStateType::DATA_IN;
 8000bb4:	2302      	movs	r3, #2
 8000bb6:	6383      	str	r3, [r0, #56]	; 0x38
        sendControlData(&_idleState,1);
 8000bb8:	0003      	movs	r3, r0
 8000bba:	3357      	adds	r3, #87	; 0x57
    _inEndpointData[endpointIndex].ptr=reinterpret_cast<const uint8_t *>(data);
 8000bbc:	63c3      	str	r3, [r0, #60]	; 0x3c
    _inEndpointData[endpointIndex].remaining=length;
 8000bbe:	4b54      	ldr	r3, [pc, #336]	; (8000d10 <_ZN9stm32plus11UsbKeyboardIN9OneButton14UsbHidKeyboardEJEE11handleSetupERKNS_14UsbSetupHeaderE+0x230>)
 8000bc0:	6403      	str	r3, [r0, #64]	; 0x40
 8000bc2:	4b54      	ldr	r3, [pc, #336]	; (8000d14 <_ZN9stm32plus11UsbKeyboardIN9OneButton14UsbHidKeyboardEJEE11handleSetupERKNS_14UsbSetupHeaderE+0x234>)
 8000bc4:	6443      	str	r3, [r0, #68]	; 0x44
      word=dataBytes[0] | ((uint16_t)dataBytes[1] << 8);
 8000bc6:	2358      	movs	r3, #88	; 0x58
 8000bc8:	e7d8      	b.n	8000b7c <_ZN9stm32plus11UsbKeyboardIN9OneButton14UsbHidKeyboardEJEE11handleSetupERKNS_14UsbSetupHeaderE+0x9c>
    switch(header.bRequest) {
 8000bca:	784a      	ldrb	r2, [r1, #1]
 8000bcc:	2a0a      	cmp	r2, #10
 8000bce:	d017      	beq.n	8000c00 <_ZN9stm32plus11UsbKeyboardIN9OneButton14UsbHidKeyboardEJEE11handleSetupERKNS_14UsbSetupHeaderE+0x120>
 8000bd0:	2a0b      	cmp	r2, #11
 8000bd2:	d020      	beq.n	8000c16 <_ZN9stm32plus11UsbKeyboardIN9OneButton14UsbHidKeyboardEJEE11handleSetupERKNS_14UsbSetupHeaderE+0x136>
 8000bd4:	2a06      	cmp	r2, #6
 8000bd6:	d039      	beq.n	8000c4c <_ZN9stm32plus11UsbKeyboardIN9OneButton14UsbHidKeyboardEJEE11handleSetupERKNS_14UsbSetupHeaderE+0x16c>
    value=*epreg & USB_EPRX_DTOGMASK;
 8000bd8:	4948      	ldr	r1, [pc, #288]	; (8000cfc <_ZN9stm32plus11UsbKeyboardIN9OneButton14UsbHidKeyboardEJEE11handleSetupERKNS_14UsbSetupHeaderE+0x21c>)
 8000bda:	4a49      	ldr	r2, [pc, #292]	; (8000d00 <_ZN9stm32plus11UsbKeyboardIN9OneButton14UsbHidKeyboardEJEE11handleSetupERKNS_14UsbSetupHeaderE+0x220>)
 8000bdc:	880b      	ldrh	r3, [r1, #0]
    value=*epreg & USB_EPTX_DTOGMASK;
 8000bde:	484b      	ldr	r0, [pc, #300]	; (8000d0c <_ZN9stm32plus11UsbKeyboardIN9OneButton14UsbHidKeyboardEJEE11handleSetupERKNS_14UsbSetupHeaderE+0x22c>)
    value=*epreg & USB_EPRX_DTOGMASK;
 8000be0:	401a      	ands	r2, r3
      reg^=USB_EPRX_DTOG1;
 8000be2:	2380      	movs	r3, #128	; 0x80
 8000be4:	015b      	lsls	r3, r3, #5
 8000be6:	4053      	eors	r3, r2
    *epreg=setRxStatus(value,status) | USB_EP_CTR_RX | USB_EP_CTR_TX;
 8000be8:	4a46      	ldr	r2, [pc, #280]	; (8000d04 <_ZN9stm32plus11UsbKeyboardIN9OneButton14UsbHidKeyboardEJEE11handleSetupERKNS_14UsbSetupHeaderE+0x224>)
 8000bea:	4313      	orrs	r3, r2
 8000bec:	b29b      	uxth	r3, r3
 8000bee:	800b      	strh	r3, [r1, #0]
    value=*epreg & USB_EPTX_DTOGMASK;
 8000bf0:	880b      	ldrh	r3, [r1, #0]
 8000bf2:	4003      	ands	r3, r0
      reg^=USB_EPTX_DTOG1;
 8000bf4:	2010      	movs	r0, #16
 8000bf6:	4043      	eors	r3, r0
    *epreg=setTxStatus(value,status) | USB_EP_CTR_RX | USB_EP_CTR_TX;
 8000bf8:	431a      	orrs	r2, r3
 8000bfa:	b292      	uxth	r2, r2
 8000bfc:	800a      	strh	r2, [r1, #0]
  }
 8000bfe:	e7b2      	b.n	8000b66 <_ZN9stm32plus11UsbKeyboardIN9OneButton14UsbHidKeyboardEJEE11handleSetupERKNS_14UsbSetupHeaderE+0x86>
    _controlEndpointState=ControlEndpointStateType::DATA_IN;
 8000c00:	2302      	movs	r3, #2
 8000c02:	6383      	str	r3, [r0, #56]	; 0x38
        sendControlData(&_altSetting,1);
 8000c04:	0003      	movs	r3, r0
 8000c06:	3358      	adds	r3, #88	; 0x58
    _inEndpointData[endpointIndex].ptr=reinterpret_cast<const uint8_t *>(data);
 8000c08:	63c3      	str	r3, [r0, #60]	; 0x3c
    _inEndpointData[endpointIndex].remaining=length;
 8000c0a:	4b41      	ldr	r3, [pc, #260]	; (8000d10 <_ZN9stm32plus11UsbKeyboardIN9OneButton14UsbHidKeyboardEJEE11handleSetupERKNS_14UsbSetupHeaderE+0x230>)
 8000c0c:	6403      	str	r3, [r0, #64]	; 0x40
 8000c0e:	4b41      	ldr	r3, [pc, #260]	; (8000d14 <_ZN9stm32plus11UsbKeyboardIN9OneButton14UsbHidKeyboardEJEE11handleSetupERKNS_14UsbSetupHeaderE+0x234>)
 8000c10:	6443      	str	r3, [r0, #68]	; 0x44
      word=dataBytes[0] | ((uint16_t)dataBytes[1] << 8);
 8000c12:	2359      	movs	r3, #89	; 0x59
 8000c14:	e7b2      	b.n	8000b7c <_ZN9stm32plus11UsbKeyboardIN9OneButton14UsbHidKeyboardEJEE11handleSetupERKNS_14UsbSetupHeaderE+0x9c>
        _altSetting=header.wValue;
 8000c16:	2258      	movs	r2, #88	; 0x58
 8000c18:	8849      	ldrh	r1, [r1, #2]
 8000c1a:	5481      	strb	r1, [r0, r2]
    _controlEndpointState=ControlEndpointStateType::STATUS_IN;
 8000c1c:	3a54      	subs	r2, #84	; 0x54
 8000c1e:	6382      	str	r2, [r0, #56]	; 0x38
    _inEndpointData[endpointIndex].remaining=length;
 8000c20:	4a3c      	ldr	r2, [pc, #240]	; (8000d14 <_ZN9stm32plus11UsbKeyboardIN9OneButton14UsbHidKeyboardEJEE11handleSetupERKNS_14UsbSetupHeaderE+0x234>)
    _inEndpointData[endpointIndex].ptr=reinterpret_cast<const uint8_t *>(data);
 8000c22:	63c3      	str	r3, [r0, #60]	; 0x3c
    _inEndpointData[endpointIndex].remaining=length;
 8000c24:	6442      	str	r2, [r0, #68]	; 0x44
    USBR_BDT[endpointIndex].tx.count=length;
 8000c26:	4a38      	ldr	r2, [pc, #224]	; (8000d08 <_ZN9stm32plus11UsbKeyboardIN9OneButton14UsbHidKeyboardEJEE11handleSetupERKNS_14UsbSetupHeaderE+0x228>)
    _inEndpointData[endpointIndex].remaining=length;
 8000c28:	6403      	str	r3, [r0, #64]	; 0x40
    USBR_BDT[endpointIndex].tx.count=length;
 8000c2a:	8053      	strh	r3, [r2, #2]
 8000c2c:	e7b7      	b.n	8000b9e <_ZN9stm32plus11UsbKeyboardIN9OneButton14UsbHidKeyboardEJEE11handleSetupERKNS_14UsbSetupHeaderE+0xbe>
        _protocol=header.wValue;
 8000c2e:	2356      	movs	r3, #86	; 0x56
 8000c30:	884a      	ldrh	r2, [r1, #2]
 8000c32:	54c2      	strb	r2, [r0, r3]
    _controlEndpointState=ControlEndpointStateType::STATUS_IN;
 8000c34:	3b52      	subs	r3, #82	; 0x52
 8000c36:	6383      	str	r3, [r0, #56]	; 0x38
    _inEndpointData[endpointIndex].ptr=reinterpret_cast<const uint8_t *>(data);
 8000c38:	2300      	movs	r3, #0
 8000c3a:	e7f1      	b.n	8000c20 <_ZN9stm32plus11UsbKeyboardIN9OneButton14UsbHidKeyboardEJEE11handleSetupERKNS_14UsbSetupHeaderE+0x140>
        _idleState=header.wValue >> 8;
 8000c3c:	2257      	movs	r2, #87	; 0x57
 8000c3e:	884b      	ldrh	r3, [r1, #2]
 8000c40:	121b      	asrs	r3, r3, #8
 8000c42:	5483      	strb	r3, [r0, r2]
    _controlEndpointState=ControlEndpointStateType::STATUS_IN;
 8000c44:	2304      	movs	r3, #4
 8000c46:	6383      	str	r3, [r0, #56]	; 0x38
    _inEndpointData[endpointIndex].ptr=reinterpret_cast<const uint8_t *>(data);
 8000c48:	2300      	movs	r3, #0
 8000c4a:	e7e9      	b.n	8000c20 <_ZN9stm32plus11UsbKeyboardIN9OneButton14UsbHidKeyboardEJEE11handleSetupERKNS_14UsbSetupHeaderE+0x140>
        if(header.wValue >> 8==USB_DESC_TYPE_HID_REPORT) {
 8000c4c:	884a      	ldrh	r2, [r1, #2]
 8000c4e:	1212      	asrs	r2, r2, #8
 8000c50:	2a22      	cmp	r2, #34	; 0x22
 8000c52:	d047      	beq.n	8000ce4 <_ZN9stm32plus11UsbKeyboardIN9OneButton14UsbHidKeyboardEJEE11handleSetupERKNS_14UsbSetupHeaderE+0x204>
        else if(header.wValue >> 8==USB_DESC_TYPE_HID_DESCRIPTOR) {
 8000c54:	2a21      	cmp	r2, #33	; 0x21
 8000c56:	d01b      	beq.n	8000c90 <_ZN9stm32plus11UsbKeyboardIN9OneButton14UsbHidKeyboardEJEE11handleSetupERKNS_14UsbSetupHeaderE+0x1b0>
    _controlEndpointState=ControlEndpointStateType::DATA_IN;
 8000c58:	2202      	movs	r2, #2
    _inEndpointData[endpointIndex].remaining=length;
 8000c5a:	6403      	str	r3, [r0, #64]	; 0x40
 8000c5c:	4b2d      	ldr	r3, [pc, #180]	; (8000d14 <_ZN9stm32plus11UsbKeyboardIN9OneButton14UsbHidKeyboardEJEE11handleSetupERKNS_14UsbSetupHeaderE+0x234>)
    _controlEndpointState=ControlEndpointStateType::DATA_IN;
 8000c5e:	6382      	str	r2, [r0, #56]	; 0x38
    _inEndpointData[endpointIndex].remaining=length;
 8000c60:	6443      	str	r3, [r0, #68]	; 0x44
 8000c62:	2200      	movs	r2, #0
 8000c64:	2700      	movs	r7, #0
          pbuf=nullptr;
 8000c66:	2300      	movs	r3, #0
          len=0;
 8000c68:	2600      	movs	r6, #0
    ep.ptr+=length;
 8000c6a:	19db      	adds	r3, r3, r7
 8000c6c:	63c3      	str	r3, [r0, #60]	; 0x3c
    ep.remaining-=length;
 8000c6e:	2340      	movs	r3, #64	; 0x40
 8000c70:	52c2      	strh	r2, [r0, r3]
    USBR_BDT[endpointIndex].tx.count=length;
 8000c72:	4b25      	ldr	r3, [pc, #148]	; (8000d08 <_ZN9stm32plus11UsbKeyboardIN9OneButton14UsbHidKeyboardEJEE11handleSetupERKNS_14UsbSetupHeaderE+0x228>)
 8000c74:	805e      	strh	r6, [r3, #2]
 8000c76:	e792      	b.n	8000b9e <_ZN9stm32plus11UsbKeyboardIN9OneButton14UsbHidKeyboardEJEE11handleSetupERKNS_14UsbSetupHeaderE+0xbe>
        wNBlocks = length >> 5;
 8000c78:	095a      	lsrs	r2, r3, #5
        if((length & 0x1f)==0)
 8000c7a:	06db      	lsls	r3, r3, #27
 8000c7c:	d101      	bne.n	8000c82 <_ZN9stm32plus11UsbKeyboardIN9OneButton14UsbHidKeyboardEJEE11handleSetupERKNS_14UsbSetupHeaderE+0x1a2>
          wNBlocks--;
 8000c7e:	3a01      	subs	r2, #1
 8000c80:	b292      	uxth	r2, r2
        count=(wNBlocks << 10) | 0x8000;
 8000c82:	4b26      	ldr	r3, [pc, #152]	; (8000d1c <_ZN9stm32plus11UsbKeyboardIN9OneButton14UsbHidKeyboardEJEE11handleSetupERKNS_14UsbSetupHeaderE+0x23c>)
 8000c84:	0292      	lsls	r2, r2, #10
 8000c86:	431a      	orrs	r2, r3
 8000c88:	4b1b      	ldr	r3, [pc, #108]	; (8000cf8 <_ZN9stm32plus11UsbKeyboardIN9OneButton14UsbHidKeyboardEJEE11handleSetupERKNS_14UsbSetupHeaderE+0x218>)
 8000c8a:	b292      	uxth	r2, r2
 8000c8c:	805a      	strh	r2, [r3, #2]
 8000c8e:	e748      	b.n	8000b22 <_ZN9stm32plus11UsbKeyboardIN9OneButton14UsbHidKeyboardEJEE11handleSetupERKNS_14UsbSetupHeaderE+0x42>
          len=sizeof(_hidDescriptor);
 8000c90:	2509      	movs	r5, #9
          pbuf=const_cast<uint8_t *>(_hidDescriptor);
 8000c92:	4b23      	ldr	r3, [pc, #140]	; (8000d20 <_ZN9stm32plus11UsbKeyboardIN9OneButton14UsbHidKeyboardEJEE11handleSetupERKNS_14UsbSetupHeaderE+0x240>)
        else if(header.wValue >> 8==USB_DESC_TYPE_HID_DESCRIPTOR) {
 8000c94:	3a18      	subs	r2, #24
        sendControlData(pbuf,header.wLength<len ? header.wLength : len);
 8000c96:	88ce      	ldrh	r6, [r1, #6]
 8000c98:	0034      	movs	r4, r6
 8000c9a:	4296      	cmp	r6, r2
 8000c9c:	da26      	bge.n	8000cec <_ZN9stm32plus11UsbKeyboardIN9OneButton14UsbHidKeyboardEJEE11handleSetupERKNS_14UsbSetupHeaderE+0x20c>
    _controlEndpointState=ControlEndpointStateType::DATA_IN;
 8000c9e:	2202      	movs	r2, #2
    _inEndpointData[endpointIndex].pmaAddress=pmaInAddress;
 8000ca0:	2146      	movs	r1, #70	; 0x46
 8000ca2:	2558      	movs	r5, #88	; 0x58
    _controlEndpointState=ControlEndpointStateType::DATA_IN;
 8000ca4:	6382      	str	r2, [r0, #56]	; 0x38
    _inEndpointData[endpointIndex].total=length;
 8000ca6:	3240      	adds	r2, #64	; 0x40
 8000ca8:	5286      	strh	r6, [r0, r2]
    _inEndpointData[endpointIndex].remaining=length;
 8000caa:	3a02      	subs	r2, #2
 8000cac:	5286      	strh	r6, [r0, r2]
 8000cae:	3401      	adds	r4, #1
    _inEndpointData[endpointIndex].ptr=reinterpret_cast<const uint8_t *>(data);
 8000cb0:	63c3      	str	r3, [r0, #60]	; 0x3c
    _inEndpointData[endpointIndex].pmaAddress=pmaInAddress;
 8000cb2:	5245      	strh	r5, [r0, r1]
    _inEndpointData[endpointIndex].maxPacketSize=maxPacketSize;
 8000cb4:	3902      	subs	r1, #2
 8000cb6:	5242      	strh	r2, [r0, r1]
 8000cb8:	1064      	asrs	r4, r4, #1
 8000cba:	0037      	movs	r7, r6
    for(i=n;i!=0;i--) {
 8000cbc:	2200      	movs	r2, #0
 8000cbe:	2c00      	cmp	r4, #0
 8000cc0:	d0d3      	beq.n	8000c6a <_ZN9stm32plus11UsbKeyboardIN9OneButton14UsbHidKeyboardEJEE11handleSetupERKNS_14UsbSetupHeaderE+0x18a>
      *pdwVal++=word;
 8000cc2:	4d15      	ldr	r5, [pc, #84]	; (8000d18 <_ZN9stm32plus11UsbKeyboardIN9OneButton14UsbHidKeyboardEJEE11handleSetupERKNS_14UsbSetupHeaderE+0x238>)
 8000cc4:	1aed      	subs	r5, r5, r3
      word=dataBytes[0] | ((uint16_t)dataBytes[1] << 8);
 8000cc6:	7859      	ldrb	r1, [r3, #1]
 8000cc8:	781a      	ldrb	r2, [r3, #0]
 8000cca:	0209      	lsls	r1, r1, #8
 8000ccc:	430a      	orrs	r2, r1
    for(i=n;i!=0;i--) {
 8000cce:	3c01      	subs	r4, #1
      *pdwVal++=word;
 8000cd0:	535a      	strh	r2, [r3, r5]
      dataBytes+=2;
 8000cd2:	3302      	adds	r3, #2
    for(i=n;i!=0;i--) {
 8000cd4:	2c00      	cmp	r4, #0
 8000cd6:	d1f6      	bne.n	8000cc6 <_ZN9stm32plus11UsbKeyboardIN9OneButton14UsbHidKeyboardEJEE11handleSetupERKNS_14UsbSetupHeaderE+0x1e6>
 8000cd8:	2240      	movs	r2, #64	; 0x40
 8000cda:	5a82      	ldrh	r2, [r0, r2]
 8000cdc:	6bc3      	ldr	r3, [r0, #60]	; 0x3c
 8000cde:	1b92      	subs	r2, r2, r6
 8000ce0:	b292      	uxth	r2, r2
 8000ce2:	e7c2      	b.n	8000c6a <_ZN9stm32plus11UsbKeyboardIN9OneButton14UsbHidKeyboardEJEE11handleSetupERKNS_14UsbSetupHeaderE+0x18a>
        if(header.wValue >> 8==USB_DESC_TYPE_HID_REPORT) {
 8000ce4:	223f      	movs	r2, #63	; 0x3f
          len=sizeof(_reportDescriptor);
 8000ce6:	253f      	movs	r5, #63	; 0x3f
          pbuf=const_cast<uint8_t *>(_reportDescriptor);
 8000ce8:	4b0e      	ldr	r3, [pc, #56]	; (8000d24 <_ZN9stm32plus11UsbKeyboardIN9OneButton14UsbHidKeyboardEJEE11handleSetupERKNS_14UsbSetupHeaderE+0x244>)
 8000cea:	e7d4      	b.n	8000c96 <_ZN9stm32plus11UsbKeyboardIN9OneButton14UsbHidKeyboardEJEE11handleSetupERKNS_14UsbSetupHeaderE+0x1b6>
        sendControlData(pbuf,header.wLength<len ? header.wLength : len);
 8000cec:	0014      	movs	r4, r2
 8000cee:	002e      	movs	r6, r5
 8000cf0:	e7d5      	b.n	8000c9e <_ZN9stm32plus11UsbKeyboardIN9OneButton14UsbHidKeyboardEJEE11handleSetupERKNS_14UsbSetupHeaderE+0x1be>
 8000cf2:	46c0      	nop			; (mov r8, r8)
 8000cf4:	0800307c 	.word	0x0800307c
 8000cf8:	40006004 	.word	0x40006004
 8000cfc:	40005c00 	.word	0x40005c00
 8000d00:	ffffbf8f 	.word	0xffffbf8f
 8000d04:	ffff8080 	.word	0xffff8080
 8000d08:	40006000 	.word	0x40006000
 8000d0c:	ffff8fbf 	.word	0xffff8fbf
 8000d10:	00010001 	.word	0x00010001
 8000d14:	00580040 	.word	0x00580040
 8000d18:	40006058 	.word	0x40006058
 8000d1c:	ffff8000 	.word	0xffff8000
 8000d20:	080030f0 	.word	0x080030f0
 8000d24:	080030fc 	.word	0x080030fc

08000d28 <_ZN9stm32plus11UsbKeyboardIN9OneButton14UsbHidKeyboardEJEE11onInterruptEv>:
  inline void UsbKeyboard<TConfiguration,Features...>::onInterrupt() {
 8000d28:	b5f0      	push	{r4, r5, r6, r7, lr}
 8000d2a:	4645      	mov	r5, r8
 8000d2c:	46de      	mov	lr, fp
 8000d2e:	4657      	mov	r7, sl
 8000d30:	464e      	mov	r6, r9
    if((USBR->ISTR & USB_ISTR_CTR)!=0)
 8000d32:	2344      	movs	r3, #68	; 0x44
  inline void UsbKeyboard<TConfiguration,Features...>::onInterrupt() {
 8000d34:	b5e0      	push	{r5, r6, r7, lr}
    if((USBR->ISTR & USB_ISTR_CTR)!=0)
 8000d36:	4abc      	ldr	r2, [pc, #752]	; (8001028 <_ZN9stm32plus11UsbKeyboardIN9OneButton14UsbHidKeyboardEJEE11onInterruptEv+0x300>)
  inline void UsbKeyboard<TConfiguration,Features...>::onInterrupt() {
 8000d38:	b0b5      	sub	sp, #212	; 0xd4
    if((USBR->ISTR & USB_ISTR_CTR)!=0)
 8000d3a:	5ad3      	ldrh	r3, [r2, r3]
  inline void UsbKeyboard<TConfiguration,Features...>::onInterrupt() {
 8000d3c:	0005      	movs	r5, r0
    if((USBR->ISTR & USB_ISTR_CTR)!=0)
 8000d3e:	b21b      	sxth	r3, r3
 8000d40:	2b00      	cmp	r3, #0
 8000d42:	da00      	bge.n	8000d46 <_ZN9stm32plus11UsbKeyboardIN9OneButton14UsbHidKeyboardEJEE11onInterruptEv+0x1e>
 8000d44:	e082      	b.n	8000e4c <_ZN9stm32plus11UsbKeyboardIN9OneButton14UsbHidKeyboardEJEE11onInterruptEv+0x124>
    if((USBR->ISTR & USB_ISTR_RESET)!=0)
 8000d46:	2244      	movs	r2, #68	; 0x44
 8000d48:	4bb7      	ldr	r3, [pc, #732]	; (8001028 <_ZN9stm32plus11UsbKeyboardIN9OneButton14UsbHidKeyboardEJEE11onInterruptEv+0x300>)
 8000d4a:	5a99      	ldrh	r1, [r3, r2]
 8000d4c:	0549      	lsls	r1, r1, #21
 8000d4e:	d500      	bpl.n	8000d52 <_ZN9stm32plus11UsbKeyboardIN9OneButton14UsbHidKeyboardEJEE11onInterruptEv+0x2a>
 8000d50:	e2a0      	b.n	8001294 <_ZN9stm32plus11UsbKeyboardIN9OneButton14UsbHidKeyboardEJEE11onInterruptEv+0x56c>
    if((USBR->ISTR & USB_ISTR_PMAOVR)!=0)
 8000d52:	2344      	movs	r3, #68	; 0x44
 8000d54:	4ab4      	ldr	r2, [pc, #720]	; (8001028 <_ZN9stm32plus11UsbKeyboardIN9OneButton14UsbHidKeyboardEJEE11onInterruptEv+0x300>)
 8000d56:	5ad1      	ldrh	r1, [r2, r3]
 8000d58:	0449      	lsls	r1, r1, #17
 8000d5a:	d500      	bpl.n	8000d5e <_ZN9stm32plus11UsbKeyboardIN9OneButton14UsbHidKeyboardEJEE11onInterruptEv+0x36>
 8000d5c:	e17c      	b.n	8001058 <_ZN9stm32plus11UsbKeyboardIN9OneButton14UsbHidKeyboardEJEE11onInterruptEv+0x330>
    if((USBR->ISTR & USB_ISTR_ERR)!=0)
 8000d5e:	2344      	movs	r3, #68	; 0x44
 8000d60:	4ab1      	ldr	r2, [pc, #708]	; (8001028 <_ZN9stm32plus11UsbKeyboardIN9OneButton14UsbHidKeyboardEJEE11onInterruptEv+0x300>)
 8000d62:	5ad1      	ldrh	r1, [r2, r3]
 8000d64:	0489      	lsls	r1, r1, #18
 8000d66:	d500      	bpl.n	8000d6a <_ZN9stm32plus11UsbKeyboardIN9OneButton14UsbHidKeyboardEJEE11onInterruptEv+0x42>
 8000d68:	e1a6      	b.n	80010b8 <_ZN9stm32plus11UsbKeyboardIN9OneButton14UsbHidKeyboardEJEE11onInterruptEv+0x390>
    if((USBR->ISTR & USB_ISTR_WKUP)!=0)
 8000d6a:	2244      	movs	r2, #68	; 0x44
 8000d6c:	4bae      	ldr	r3, [pc, #696]	; (8001028 <_ZN9stm32plus11UsbKeyboardIN9OneButton14UsbHidKeyboardEJEE11onInterruptEv+0x300>)
 8000d6e:	5a99      	ldrh	r1, [r3, r2]
 8000d70:	04c9      	lsls	r1, r1, #19
 8000d72:	d500      	bpl.n	8000d76 <_ZN9stm32plus11UsbKeyboardIN9OneButton14UsbHidKeyboardEJEE11onInterruptEv+0x4e>
 8000d74:	e1d0      	b.n	8001118 <_ZN9stm32plus11UsbKeyboardIN9OneButton14UsbHidKeyboardEJEE11onInterruptEv+0x3f0>
    if((USBR->ISTR & USB_ISTR_SUSP)!=0)
 8000d76:	2244      	movs	r2, #68	; 0x44
 8000d78:	4bab      	ldr	r3, [pc, #684]	; (8001028 <_ZN9stm32plus11UsbKeyboardIN9OneButton14UsbHidKeyboardEJEE11onInterruptEv+0x300>)
 8000d7a:	5a99      	ldrh	r1, [r3, r2]
 8000d7c:	0509      	lsls	r1, r1, #20
 8000d7e:	d500      	bpl.n	8000d82 <_ZN9stm32plus11UsbKeyboardIN9OneButton14UsbHidKeyboardEJEE11onInterruptEv+0x5a>
 8000d80:	e215      	b.n	80011ae <_ZN9stm32plus11UsbKeyboardIN9OneButton14UsbHidKeyboardEJEE11onInterruptEv+0x486>
    if((USBR->ISTR & USB_ISTR_SOF)!=0)
 8000d82:	2344      	movs	r3, #68	; 0x44
 8000d84:	4aa8      	ldr	r2, [pc, #672]	; (8001028 <_ZN9stm32plus11UsbKeyboardIN9OneButton14UsbHidKeyboardEJEE11onInterruptEv+0x300>)
 8000d86:	5ad1      	ldrh	r1, [r2, r3]
 8000d88:	0589      	lsls	r1, r1, #22
 8000d8a:	d500      	bpl.n	8000d8e <_ZN9stm32plus11UsbKeyboardIN9OneButton14UsbHidKeyboardEJEE11onInterruptEv+0x66>
 8000d8c:	e24e      	b.n	800122c <_ZN9stm32plus11UsbKeyboardIN9OneButton14UsbHidKeyboardEJEE11onInterruptEv+0x504>
    if((USBR->ISTR & USB_ISTR_ESOF)!=0)
 8000d8e:	2344      	movs	r3, #68	; 0x44
 8000d90:	4aa5      	ldr	r2, [pc, #660]	; (8001028 <_ZN9stm32plus11UsbKeyboardIN9OneButton14UsbHidKeyboardEJEE11onInterruptEv+0x300>)
 8000d92:	5ad1      	ldrh	r1, [r2, r3]
 8000d94:	05c9      	lsls	r1, r1, #23
 8000d96:	d500      	bpl.n	8000d9a <_ZN9stm32plus11UsbKeyboardIN9OneButton14UsbHidKeyboardEJEE11onInterruptEv+0x72>
 8000d98:	e115      	b.n	8000fc6 <_ZN9stm32plus11UsbKeyboardIN9OneButton14UsbHidKeyboardEJEE11onInterruptEv+0x29e>
  }
 8000d9a:	b035      	add	sp, #212	; 0xd4
 8000d9c:	bc3c      	pop	{r2, r3, r4, r5}
 8000d9e:	4690      	mov	r8, r2
 8000da0:	4699      	mov	r9, r3
 8000da2:	46a2      	mov	sl, r4
 8000da4:	46ab      	mov	fp, r5
 8000da6:	bdf0      	pop	{r4, r5, r6, r7, pc}
 8000da8:	ac28      	add	r4, sp, #160	; 0xa0
    USBR->EP0R=USBR->EP0R & (~USB_EP_CTR_RX) & USB_EPREG_MASK;
 8000daa:	4a9f      	ldr	r2, [pc, #636]	; (8001028 <_ZN9stm32plus11UsbKeyboardIN9OneButton14UsbHidKeyboardEJEE11onInterruptEv+0x300>)
 8000dac:	499f      	ldr	r1, [pc, #636]	; (800102c <_ZN9stm32plus11UsbKeyboardIN9OneButton14UsbHidKeyboardEJEE11onInterruptEv+0x304>)
 8000dae:	8813      	ldrh	r3, [r2, #0]

      const uint8_t *ptr;

      ptr=reinterpret_cast<const uint8_t *>(vptr);

      bmRequest=ptr[0];
 8000db0:	ae26      	add	r6, sp, #152	; 0x98
 8000db2:	400b      	ands	r3, r1
 8000db4:	8013      	strh	r3, [r2, #0]
      bRequest=ptr[1];
      wValue=*reinterpret_cast<const uint16_t *>(ptr+2);
      wIndex=*reinterpret_cast<const uint16_t *>(ptr+4);
 8000db6:	88a3      	ldrh	r3, [r4, #4]
      bmRequest=ptr[0];
 8000db8:	7821      	ldrb	r1, [r4, #0]
      wIndex=*reinterpret_cast<const uint16_t *>(ptr+4);
 8000dba:	469c      	mov	ip, r3
 8000dbc:	80b3      	strh	r3, [r6, #4]
    switch(header.bmRequest & 0x1f) {
 8000dbe:	231f      	movs	r3, #31
      bRequest=ptr[1];
 8000dc0:	7860      	ldrb	r0, [r4, #1]
      wValue=*reinterpret_cast<const uint16_t *>(ptr+2);
 8000dc2:	8867      	ldrh	r7, [r4, #2]
      wLength=*reinterpret_cast<const uint16_t *>(ptr+6);
 8000dc4:	88e4      	ldrh	r4, [r4, #6]
      bmRequest=ptr[0];
 8000dc6:	7031      	strb	r1, [r6, #0]
      bRequest=ptr[1];
 8000dc8:	7070      	strb	r0, [r6, #1]
      wValue=*reinterpret_cast<const uint16_t *>(ptr+2);
 8000dca:	8077      	strh	r7, [r6, #2]
      wLength=*reinterpret_cast<const uint16_t *>(ptr+6);
 8000dcc:	80f4      	strh	r4, [r6, #6]
 8000dce:	400b      	ands	r3, r1
 8000dd0:	2b01      	cmp	r3, #1
 8000dd2:	d101      	bne.n	8000dd8 <_ZN9stm32plus11UsbKeyboardIN9OneButton14UsbHidKeyboardEJEE11onInterruptEv+0xb0>
 8000dd4:	f000 fdc5 	bl	8001962 <_ZN9stm32plus11UsbKeyboardIN9OneButton14UsbHidKeyboardEJEE11onInterruptEv+0xc3a>
 8000dd8:	2b00      	cmp	r3, #0
 8000dda:	d101      	bne.n	8000de0 <_ZN9stm32plus11UsbKeyboardIN9OneButton14UsbHidKeyboardEJEE11onInterruptEv+0xb8>
 8000ddc:	f000 fc3a 	bl	8001654 <_ZN9stm32plus11UsbKeyboardIN9OneButton14UsbHidKeyboardEJEE11onInterruptEv+0x92c>
 8000de0:	2b02      	cmp	r3, #2
 8000de2:	d001      	beq.n	8000de8 <_ZN9stm32plus11UsbKeyboardIN9OneButton14UsbHidKeyboardEJEE11onInterruptEv+0xc0>
 8000de4:	f000 fda0 	bl	8001928 <_ZN9stm32plus11UsbKeyboardIN9OneButton14UsbHidKeyboardEJEE11onInterruptEv+0xc00>
    if((header.bmRequest & 0x60)==0x20)
 8000de8:	2360      	movs	r3, #96	; 0x60
 8000dea:	4019      	ands	r1, r3
 8000dec:	2920      	cmp	r1, #32
 8000dee:	d101      	bne.n	8000df4 <_ZN9stm32plus11UsbKeyboardIN9OneButton14UsbHidKeyboardEJEE11onInterruptEv+0xcc>
 8000df0:	f000 fdc1 	bl	8001976 <_ZN9stm32plus11UsbKeyboardIN9OneButton14UsbHidKeyboardEJEE11onInterruptEv+0xc4e>
      ep_addr=header.wIndex;
 8000df4:	4669      	mov	r1, sp
 8000df6:	4663      	mov	r3, ip
 8000df8:	710b      	strb	r3, [r1, #4]
 8000dfa:	7909      	ldrb	r1, [r1, #4]
      switch(header.bRequest) {
 8000dfc:	2801      	cmp	r0, #1
 8000dfe:	d101      	bne.n	8000e04 <_ZN9stm32plus11UsbKeyboardIN9OneButton14UsbHidKeyboardEJEE11onInterruptEv+0xdc>
 8000e00:	f000 fe3e 	bl	8001a80 <_ZN9stm32plus11UsbKeyboardIN9OneButton14UsbHidKeyboardEJEE11onInterruptEv+0xd58>
 8000e04:	2800      	cmp	r0, #0
 8000e06:	d101      	bne.n	8000e0c <_ZN9stm32plus11UsbKeyboardIN9OneButton14UsbHidKeyboardEJEE11onInterruptEv+0xe4>
 8000e08:	f000 fe18 	bl	8001a3c <_ZN9stm32plus11UsbKeyboardIN9OneButton14UsbHidKeyboardEJEE11onInterruptEv+0xd14>
 8000e0c:	2803      	cmp	r0, #3
 8000e0e:	d11d      	bne.n	8000e4c <_ZN9stm32plus11UsbKeyboardIN9OneButton14UsbHidKeyboardEJEE11onInterruptEv+0x124>
          switch(_deviceState) {
 8000e10:	6b2b      	ldr	r3, [r5, #48]	; 0x30
 8000e12:	2b02      	cmp	r3, #2
 8000e14:	d101      	bne.n	8000e1a <_ZN9stm32plus11UsbKeyboardIN9OneButton14UsbHidKeyboardEJEE11onInterruptEv+0xf2>
 8000e16:	f000 fe08 	bl	8001a2a <_ZN9stm32plus11UsbKeyboardIN9OneButton14UsbHidKeyboardEJEE11onInterruptEv+0xd02>
 8000e1a:	2b03      	cmp	r3, #3
 8000e1c:	d001      	beq.n	8000e22 <_ZN9stm32plus11UsbKeyboardIN9OneButton14UsbHidKeyboardEJEE11onInterruptEv+0xfa>
 8000e1e:	f000 fdf0 	bl	8001a02 <_ZN9stm32plus11UsbKeyboardIN9OneButton14UsbHidKeyboardEJEE11onInterruptEv+0xcda>
              if(header.wValue==USB_FEATURE_EP_HALT && (ep_addr & 0x7f)!=0)
 8000e22:	2f00      	cmp	r7, #0
 8000e24:	d104      	bne.n	8000e30 <_ZN9stm32plus11UsbKeyboardIN9OneButton14UsbHidKeyboardEJEE11onInterruptEv+0x108>
 8000e26:	064b      	lsls	r3, r1, #25
 8000e28:	d002      	beq.n	8000e30 <_ZN9stm32plus11UsbKeyboardIN9OneButton14UsbHidKeyboardEJEE11onInterruptEv+0x108>
                stallEndpoint(ep_addr);
 8000e2a:	0008      	movs	r0, r1
 8000e2c:	f7ff f9e6 	bl	80001fc <_ZNK9stm32plus11UsbKeyboardIN9OneButton14UsbHidKeyboardEJEE13stallEndpointEh.isra.42>
              handleSetup(header);
 8000e30:	0031      	movs	r1, r6
 8000e32:	0028      	movs	r0, r5
 8000e34:	f7ff fe54 	bl	8000ae0 <_ZN9stm32plus11UsbKeyboardIN9OneButton14UsbHidKeyboardEJEE11handleSetupERKNS_14UsbSetupHeaderE>
    _controlEndpointState=ControlEndpointStateType::STATUS_IN;
 8000e38:	2304      	movs	r3, #4
 8000e3a:	63ab      	str	r3, [r5, #56]	; 0x38
    _inEndpointData[endpointIndex].ptr=reinterpret_cast<const uint8_t *>(data);
 8000e3c:	2300      	movs	r3, #0
 8000e3e:	63eb      	str	r3, [r5, #60]	; 0x3c
    _inEndpointData[endpointIndex].remaining=length;
 8000e40:	642b      	str	r3, [r5, #64]	; 0x40
 8000e42:	4b7b      	ldr	r3, [pc, #492]	; (8001030 <_ZN9stm32plus11UsbKeyboardIN9OneButton14UsbHidKeyboardEJEE11onInterruptEv+0x308>)
    continueSendData(endpointIndex);
 8000e44:	0028      	movs	r0, r5
    _inEndpointData[endpointIndex].remaining=length;
 8000e46:	646b      	str	r3, [r5, #68]	; 0x44
    continueSendData(endpointIndex);
 8000e48:	f7ff f99c 	bl	8000184 <_ZN9stm32plus11UsbKeyboardIN9OneButton14UsbHidKeyboardEJEE16continueSendDataEh.constprop.82>
    while(((irq=USBR->ISTR) & USB_ISTR_CTR)!=0) {
 8000e4c:	2144      	movs	r1, #68	; 0x44
 8000e4e:	4a76      	ldr	r2, [pc, #472]	; (8001028 <_ZN9stm32plus11UsbKeyboardIN9OneButton14UsbHidKeyboardEJEE11onInterruptEv+0x300>)
 8000e50:	5a53      	ldrh	r3, [r2, r1]
 8000e52:	b29b      	uxth	r3, r3
 8000e54:	b218      	sxth	r0, r3
 8000e56:	2800      	cmp	r0, #0
 8000e58:	db00      	blt.n	8000e5c <_ZN9stm32plus11UsbKeyboardIN9OneButton14UsbHidKeyboardEJEE11onInterruptEv+0x134>
 8000e5a:	e774      	b.n	8000d46 <_ZN9stm32plus11UsbKeyboardIN9OneButton14UsbHidKeyboardEJEE11onInterruptEv+0x1e>
      endpointIndex=irq & USB_ISTR_EP_ID;
 8000e5c:	240f      	movs	r4, #15
 8000e5e:	401c      	ands	r4, r3
      if(endpointIndex==0) {
 8000e60:	d118      	bne.n	8000e94 <_ZN9stm32plus11UsbKeyboardIN9OneButton14UsbHidKeyboardEJEE11onInterruptEv+0x16c>
        if(isOut)
 8000e62:	06db      	lsls	r3, r3, #27
 8000e64:	d470      	bmi.n	8000f48 <_ZN9stm32plus11UsbKeyboardIN9OneButton14UsbHidKeyboardEJEE11onInterruptEv+0x220>
    USBR->EP0R=USBR->EP0R & (~USB_EP_CTR_TX) & USB_EPREG_MASK;
 8000e66:	8813      	ldrh	r3, [r2, #0]
 8000e68:	4872      	ldr	r0, [pc, #456]	; (8001034 <_ZN9stm32plus11UsbKeyboardIN9OneButton14UsbHidKeyboardEJEE11onInterruptEv+0x30c>)
 8000e6a:	4003      	ands	r3, r0
 8000e6c:	8013      	strh	r3, [r2, #0]
    if(_controlEndpointState==ControlEndpointStateType::DATA_IN) {
 8000e6e:	6bab      	ldr	r3, [r5, #56]	; 0x38
 8000e70:	2b02      	cmp	r3, #2
 8000e72:	d100      	bne.n	8000e76 <_ZN9stm32plus11UsbKeyboardIN9OneButton14UsbHidKeyboardEJEE11onInterruptEv+0x14e>
 8000e74:	e2fb      	b.n	800146e <_ZN9stm32plus11UsbKeyboardIN9OneButton14UsbHidKeyboardEJEE11onInterruptEv+0x746>
    if(_address>0 && _inEndpointData[0].remaining==0) {
 8000e76:	2259      	movs	r2, #89	; 0x59
 8000e78:	5cab      	ldrb	r3, [r5, r2]
 8000e7a:	2b00      	cmp	r3, #0
 8000e7c:	d0e6      	beq.n	8000e4c <_ZN9stm32plus11UsbKeyboardIN9OneButton14UsbHidKeyboardEJEE11onInterruptEv+0x124>
 8000e7e:	2140      	movs	r1, #64	; 0x40
 8000e80:	5a69      	ldrh	r1, [r5, r1]
 8000e82:	2900      	cmp	r1, #0
 8000e84:	d1e2      	bne.n	8000e4c <_ZN9stm32plus11UsbKeyboardIN9OneButton14UsbHidKeyboardEJEE11onInterruptEv+0x124>
      USBR->DADDR=_address | USB_DADDR_EF;
 8000e86:	2080      	movs	r0, #128	; 0x80
 8000e88:	4c67      	ldr	r4, [pc, #412]	; (8001028 <_ZN9stm32plus11UsbKeyboardIN9OneButton14UsbHidKeyboardEJEE11onInterruptEv+0x300>)
 8000e8a:	4303      	orrs	r3, r0
 8000e8c:	3834      	subs	r0, #52	; 0x34
 8000e8e:	5223      	strh	r3, [r4, r0]
      _address=0;
 8000e90:	54a9      	strb	r1, [r5, r2]
 8000e92:	e7db      	b.n	8000e4c <_ZN9stm32plus11UsbKeyboardIN9OneButton14UsbHidKeyboardEJEE11onInterruptEv+0x124>
        reg=&USBR->EP0R+2*endpointIndex;
 8000e94:	4b68      	ldr	r3, [pc, #416]	; (8001038 <_ZN9stm32plus11UsbKeyboardIN9OneButton14UsbHidKeyboardEJEE11onInterruptEv+0x310>)
 8000e96:	18e6      	adds	r6, r4, r3
 8000e98:	00b6      	lsls	r6, r6, #2
        if((*reg & USB_EP_CTR_RX)!=0)
 8000e9a:	8833      	ldrh	r3, [r6, #0]
 8000e9c:	b21b      	sxth	r3, r3
 8000e9e:	2b00      	cmp	r3, #0
 8000ea0:	da00      	bge.n	8000ea4 <_ZN9stm32plus11UsbKeyboardIN9OneButton14UsbHidKeyboardEJEE11onInterruptEv+0x17c>
 8000ea2:	e31f      	b.n	80014e4 <_ZN9stm32plus11UsbKeyboardIN9OneButton14UsbHidKeyboardEJEE11onInterruptEv+0x7bc>
        if((*reg & USB_EP_CTR_TX)!=0)
 8000ea4:	8833      	ldrh	r3, [r6, #0]
 8000ea6:	061b      	lsls	r3, r3, #24
 8000ea8:	d5d0      	bpl.n	8000e4c <_ZN9stm32plus11UsbKeyboardIN9OneButton14UsbHidKeyboardEJEE11onInterruptEv+0x124>
    *reg=*reg & (~USB_EP_CTR_TX) & USB_EPREG_MASK;
 8000eaa:	8833      	ldrh	r3, [r6, #0]
 8000eac:	4a61      	ldr	r2, [pc, #388]	; (8001034 <_ZN9stm32plus11UsbKeyboardIN9OneButton14UsbHidKeyboardEJEE11onInterruptEv+0x30c>)
 8000eae:	4013      	ands	r3, r2
 8000eb0:	8033      	strh	r3, [r6, #0]
    if(_inEndpointData[endpointIndex].remaining==0)
 8000eb2:	0063      	lsls	r3, r4, #1
 8000eb4:	469c      	mov	ip, r3
 8000eb6:	191b      	adds	r3, r3, r4
 8000eb8:	009b      	lsls	r3, r3, #2
 8000eba:	18eb      	adds	r3, r5, r3
 8000ebc:	001a      	movs	r2, r3
 8000ebe:	3240      	adds	r2, #64	; 0x40
 8000ec0:	8812      	ldrh	r2, [r2, #0]
 8000ec2:	2a00      	cmp	r2, #0
 8000ec4:	d100      	bne.n	8000ec8 <_ZN9stm32plus11UsbKeyboardIN9OneButton14UsbHidKeyboardEJEE11onInterruptEv+0x1a0>
 8000ec6:	e366      	b.n	8001596 <_ZN9stm32plus11UsbKeyboardIN9OneButton14UsbHidKeyboardEJEE11onInterruptEv+0x86e>
    if((length=ep.remaining)>ep.maxPacketSize)
 8000ec8:	3344      	adds	r3, #68	; 0x44
 8000eca:	881b      	ldrh	r3, [r3, #0]
 8000ecc:	4698      	mov	r8, r3
 8000ece:	0018      	movs	r0, r3
 8000ed0:	429a      	cmp	r2, r3
 8000ed2:	dc01      	bgt.n	8000ed8 <_ZN9stm32plus11UsbKeyboardIN9OneButton14UsbHidKeyboardEJEE11onInterruptEv+0x1b0>
 8000ed4:	0010      	movs	r0, r2
 8000ed6:	4690      	mov	r8, r2
    pdwVal=reinterpret_cast<uint16_t *>(BTABLE_BASE+ep.pmaAddress);
 8000ed8:	4663      	mov	r3, ip
 8000eda:	191b      	adds	r3, r3, r4
 8000edc:	009b      	lsls	r3, r3, #2
 8000ede:	18eb      	adds	r3, r5, r3
 8000ee0:	001a      	movs	r2, r3
 8000ee2:	3246      	adds	r2, #70	; 0x46
 8000ee4:	8817      	ldrh	r7, [r2, #0]
 8000ee6:	4a55      	ldr	r2, [pc, #340]	; (800103c <_ZN9stm32plus11UsbKeyboardIN9OneButton14UsbHidKeyboardEJEE11onInterruptEv+0x314>)
    n=(length+1)/2;
 8000ee8:	3001      	adds	r0, #1
    pdwVal=reinterpret_cast<uint16_t *>(BTABLE_BASE+ep.pmaAddress);
 8000eea:	4691      	mov	r9, r2
    n=(length+1)/2;
 8000eec:	1040      	asrs	r0, r0, #1
    pdwVal=reinterpret_cast<uint16_t *>(BTABLE_BASE+ep.pmaAddress);
 8000eee:	444f      	add	r7, r9
    dataBytes=ep.ptr;
 8000ef0:	6bd9      	ldr	r1, [r3, #60]	; 0x3c
    for(i=n;i!=0;i--) {
 8000ef2:	2800      	cmp	r0, #0
 8000ef4:	d00e      	beq.n	8000f14 <_ZN9stm32plus11UsbKeyboardIN9OneButton14UsbHidKeyboardEJEE11onInterruptEv+0x1ec>
      word=dataBytes[0] | ((uint16_t)dataBytes[1] << 8);
 8000ef6:	784a      	ldrb	r2, [r1, #1]
 8000ef8:	780b      	ldrb	r3, [r1, #0]
 8000efa:	0212      	lsls	r2, r2, #8
 8000efc:	4313      	orrs	r3, r2
    for(i=n;i!=0;i--) {
 8000efe:	3801      	subs	r0, #1
      *pdwVal++=word;
 8000f00:	803b      	strh	r3, [r7, #0]
      dataBytes+=2;
 8000f02:	3102      	adds	r1, #2
 8000f04:	3702      	adds	r7, #2
    for(i=n;i!=0;i--) {
 8000f06:	2800      	cmp	r0, #0
 8000f08:	d1f5      	bne.n	8000ef6 <_ZN9stm32plus11UsbKeyboardIN9OneButton14UsbHidKeyboardEJEE11onInterruptEv+0x1ce>
 8000f0a:	4663      	mov	r3, ip
 8000f0c:	191b      	adds	r3, r3, r4
 8000f0e:	009b      	lsls	r3, r3, #2
 8000f10:	18eb      	adds	r3, r5, r3
 8000f12:	6bd9      	ldr	r1, [r3, #60]	; 0x3c
    ep.ptr+=length;
 8000f14:	4663      	mov	r3, ip
 8000f16:	191b      	adds	r3, r3, r4
 8000f18:	009b      	lsls	r3, r3, #2
 8000f1a:	18eb      	adds	r3, r5, r3
 8000f1c:	4441      	add	r1, r8
 8000f1e:	63d9      	str	r1, [r3, #60]	; 0x3c
    ep.remaining-=length;
 8000f20:	4641      	mov	r1, r8
 8000f22:	3340      	adds	r3, #64	; 0x40
 8000f24:	881a      	ldrh	r2, [r3, #0]
 8000f26:	1a52      	subs	r2, r2, r1
 8000f28:	801a      	strh	r2, [r3, #0]
    USBR_BDT[endpointIndex].tx.count=length;
 8000f2a:	4b45      	ldr	r3, [pc, #276]	; (8001040 <_ZN9stm32plus11UsbKeyboardIN9OneButton14UsbHidKeyboardEJEE11onInterruptEv+0x318>)
    value=*epreg & USB_EPTX_DTOGMASK;
 8000f2c:	4a45      	ldr	r2, [pc, #276]	; (8001044 <_ZN9stm32plus11UsbKeyboardIN9OneButton14UsbHidKeyboardEJEE11onInterruptEv+0x31c>)
    USBR_BDT[endpointIndex].tx.count=length;
 8000f2e:	469c      	mov	ip, r3
 8000f30:	4464      	add	r4, ip
 8000f32:	00e4      	lsls	r4, r4, #3
 8000f34:	8061      	strh	r1, [r4, #2]
    value=*epreg & USB_EPTX_DTOGMASK;
 8000f36:	8833      	ldrh	r3, [r6, #0]
 8000f38:	4013      	ands	r3, r2
      reg^=USB_EPTX_DTOG2;
 8000f3a:	2230      	movs	r2, #48	; 0x30
 8000f3c:	405a      	eors	r2, r3
    *epreg=setTxStatus(value,status) | USB_EP_CTR_RX | USB_EP_CTR_TX;
 8000f3e:	4b42      	ldr	r3, [pc, #264]	; (8001048 <_ZN9stm32plus11UsbKeyboardIN9OneButton14UsbHidKeyboardEJEE11onInterruptEv+0x320>)
 8000f40:	4313      	orrs	r3, r2
 8000f42:	b29b      	uxth	r3, r3
 8000f44:	8033      	strh	r3, [r6, #0]
 8000f46:	e781      	b.n	8000e4c <_ZN9stm32plus11UsbKeyboardIN9OneButton14UsbHidKeyboardEJEE11onInterruptEv+0x124>
    if((USBR->EP0R & USB_EP_SETUP)!=0)
 8000f48:	8813      	ldrh	r3, [r2, #0]
 8000f4a:	051b      	lsls	r3, r3, #20
 8000f4c:	d500      	bpl.n	8000f50 <_ZN9stm32plus11UsbKeyboardIN9OneButton14UsbHidKeyboardEJEE11onInterruptEv+0x228>
 8000f4e:	e366      	b.n	800161e <_ZN9stm32plus11UsbKeyboardIN9OneButton14UsbHidKeyboardEJEE11onInterruptEv+0x8f6>
    else if((USBR->EP0R & USB_EP_CTR_RX)!=0)
 8000f50:	8813      	ldrh	r3, [r2, #0]
 8000f52:	b21b      	sxth	r3, r3
 8000f54:	2b00      	cmp	r3, #0
 8000f56:	db00      	blt.n	8000f5a <_ZN9stm32plus11UsbKeyboardIN9OneButton14UsbHidKeyboardEJEE11onInterruptEv+0x232>
 8000f58:	e778      	b.n	8000e4c <_ZN9stm32plus11UsbKeyboardIN9OneButton14UsbHidKeyboardEJEE11onInterruptEv+0x124>
    USBR->EP0R=USBR->EP0R & ~(USB_EP_CTR_RX) & USB_EPREG_MASK;
 8000f5a:	8813      	ldrh	r3, [r2, #0]
 8000f5c:	4933      	ldr	r1, [pc, #204]	; (800102c <_ZN9stm32plus11UsbKeyboardIN9OneButton14UsbHidKeyboardEJEE11onInterruptEv+0x304>)
 8000f5e:	400b      	ands	r3, r1
 8000f60:	8013      	strh	r3, [r2, #0]
      return count & 0x3ff;
 8000f62:	4b3a      	ldr	r3, [pc, #232]	; (800104c <_ZN9stm32plus11UsbKeyboardIN9OneButton14UsbHidKeyboardEJEE11onInterruptEv+0x324>)
 8000f64:	885f      	ldrh	r7, [r3, #2]
 8000f66:	05bf      	lsls	r7, r7, #22
 8000f68:	0dbf      	lsrs	r7, r7, #22
    if((count=USBR_BDT[0].rx.getCount())>0) {
 8000f6a:	d100      	bne.n	8000f6e <_ZN9stm32plus11UsbKeyboardIN9OneButton14UsbHidKeyboardEJEE11onInterruptEv+0x246>
 8000f6c:	e25d      	b.n	800142a <_ZN9stm32plus11UsbKeyboardIN9OneButton14UsbHidKeyboardEJEE11onInterruptEv+0x702>
  size_type size() const { return __slist_size(this->_M_head._M_next); }
 8000f6e:	69ec      	ldr	r4, [r5, #28]
  for ( ; __node != 0; __node = __node->_M_next)
 8000f70:	2c00      	cmp	r4, #0
 8000f72:	d100      	bne.n	8000f76 <_ZN9stm32plus11UsbKeyboardIN9OneButton14UsbHidKeyboardEJEE11onInterruptEv+0x24e>
 8000f74:	e259      	b.n	800142a <_ZN9stm32plus11UsbKeyboardIN9OneButton14UsbHidKeyboardEJEE11onInterruptEv+0x702>
 8000f76:	0023      	movs	r3, r4
 8000f78:	2200      	movs	r2, #0
 8000f7a:	681b      	ldr	r3, [r3, #0]
    ++__result;
 8000f7c:	3201      	adds	r2, #1
  for ( ; __node != 0; __node = __node->_M_next)
 8000f7e:	2b00      	cmp	r3, #0
 8000f80:	d1fb      	bne.n	8000f7a <_ZN9stm32plus11UsbKeyboardIN9OneButton14UsbHidKeyboardEJEE11onInterruptEv+0x252>
        if(_slots.size()==1)
 8000f82:	2a01      	cmp	r2, #1
 8000f84:	d100      	bne.n	8000f88 <_ZN9stm32plus11UsbKeyboardIN9OneButton14UsbHidKeyboardEJEE11onInterruptEv+0x260>
 8000f86:	e23d      	b.n	8001404 <_ZN9stm32plus11UsbKeyboardIN9OneButton14UsbHidKeyboardEJEE11onInterruptEv+0x6dc>
  inline void bind(DesiredRetType (*function_to_bind)(Param1 p1, Param2 p2, Param3 p3)) {
    m_Closure.bindstaticfunc(this, &FastDelegate3::InvokeStaticFunction, 
      function_to_bind); }
  // Invoke the delegate
  RetType operator() (Param1 p1, Param2 p2, Param3 p3) const {
  return (m_Closure.GetClosureThis()->*(m_Closure.GetClosureMemPtr()))(p1, p2, p3); }
 8000f88:	2301      	movs	r3, #1
 8000f8a:	ae04      	add	r6, sp, #16
 8000f8c:	4699      	mov	r9, r3
 8000f8e:	46b8      	mov	r8, r7
 8000f90:	e00b      	b.n	8000faa <_ZN9stm32plus11UsbKeyboardIN9OneButton14UsbHidKeyboardEJEE11onInterruptEv+0x282>
 8000f92:	105b      	asrs	r3, r3, #1
 8000f94:	18c0      	adds	r0, r0, r3
 8000f96:	6803      	ldr	r3, [r0, #0]
 8000f98:	59df      	ldr	r7, [r3, r7]
 8000f9a:	4643      	mov	r3, r8
 8000f9c:	4a2c      	ldr	r2, [pc, #176]	; (8001050 <_ZN9stm32plus11UsbKeyboardIN9OneButton14UsbHidKeyboardEJEE11onInterruptEv+0x328>)
 8000f9e:	2100      	movs	r1, #0
 8000fa0:	47b8      	blx	r7
  void _M_incr() { _M_node = _M_node->_M_next; }
 8000fa2:	6824      	ldr	r4, [r4, #0]
          for(auto it=_slots.begin();it!=_slots.end();it++)
 8000fa4:	2c00      	cmp	r4, #0
 8000fa6:	d100      	bne.n	8000faa <_ZN9stm32plus11UsbKeyboardIN9OneButton14UsbHidKeyboardEJEE11onInterruptEv+0x282>
 8000fa8:	e23f      	b.n	800142a <_ZN9stm32plus11UsbKeyboardIN9OneButton14UsbHidKeyboardEJEE11onInterruptEv+0x702>
  inline GenericMemFunc GetClosureMemPtr() const { return reinterpret_cast<GenericMemFunc>(m_pFunction); }
 8000faa:	0021      	movs	r1, r4
 8000fac:	0033      	movs	r3, r6
 8000fae:	3108      	adds	r1, #8
 8000fb0:	6860      	ldr	r0, [r4, #4]
 8000fb2:	c984      	ldmia	r1!, {r2, r7}
 8000fb4:	c384      	stmia	r3!, {r2, r7}
  return (m_Closure.GetClosureThis()->*(m_Closure.GetClosureMemPtr()))(p1, p2, p3); }
 8000fb6:	464a      	mov	r2, r9
  inline GenericMemFunc GetClosureMemPtr() const { return reinterpret_cast<GenericMemFunc>(m_pFunction); }
 8000fb8:	9b05      	ldr	r3, [sp, #20]
 8000fba:	9f04      	ldr	r7, [sp, #16]
  return (m_Closure.GetClosureThis()->*(m_Closure.GetClosureMemPtr()))(p1, p2, p3); }
 8000fbc:	421a      	tst	r2, r3
 8000fbe:	d1e8      	bne.n	8000f92 <_ZN9stm32plus11UsbKeyboardIN9OneButton14UsbHidKeyboardEJEE11onInterruptEv+0x26a>
 8000fc0:	105b      	asrs	r3, r3, #1
 8000fc2:	18c0      	adds	r0, r0, r3
 8000fc4:	e7e9      	b.n	8000f9a <_ZN9stm32plus11UsbKeyboardIN9OneButton14UsbHidKeyboardEJEE11onInterruptEv+0x272>
    USBR->ISTR &= ~USB_ISTR_ESOF;
 8000fc6:	5ad1      	ldrh	r1, [r2, r3]
 8000fc8:	4822      	ldr	r0, [pc, #136]	; (8001054 <_ZN9stm32plus11UsbKeyboardIN9OneButton14UsbHidKeyboardEJEE11onInterruptEv+0x32c>)
  size_type size() const { return __slist_size(this->_M_head._M_next); }
 8000fca:	6aec      	ldr	r4, [r5, #44]	; 0x2c
 8000fcc:	4001      	ands	r1, r0
 8000fce:	52d1      	strh	r1, [r2, r3]
  for ( ; __node != 0; __node = __node->_M_next)
 8000fd0:	2c00      	cmp	r4, #0
 8000fd2:	d100      	bne.n	8000fd6 <_ZN9stm32plus11UsbKeyboardIN9OneButton14UsbHidKeyboardEJEE11onInterruptEv+0x2ae>
 8000fd4:	e6e1      	b.n	8000d9a <_ZN9stm32plus11UsbKeyboardIN9OneButton14UsbHidKeyboardEJEE11onInterruptEv+0x72>
 8000fd6:	0023      	movs	r3, r4
 8000fd8:	2200      	movs	r2, #0
 8000fda:	681b      	ldr	r3, [r3, #0]
    ++__result;
 8000fdc:	3201      	adds	r2, #1
  for ( ; __node != 0; __node = __node->_M_next)
 8000fde:	2b00      	cmp	r3, #0
 8000fe0:	d1fb      	bne.n	8000fda <_ZN9stm32plus11UsbKeyboardIN9OneButton14UsbHidKeyboardEJEE11onInterruptEv+0x2b2>
        if(_slots.size()==1)
 8000fe2:	2a01      	cmp	r2, #1
 8000fe4:	d101      	bne.n	8000fea <_ZN9stm32plus11UsbKeyboardIN9OneButton14UsbHidKeyboardEJEE11onInterruptEv+0x2c2>
 8000fe6:	f000 fc08 	bl	80017fa <_ZN9stm32plus11UsbKeyboardIN9OneButton14UsbHidKeyboardEJEE11onInterruptEv+0xad2>
  return (m_Closure.GetClosureThis()->*(m_Closure.GetClosureMemPtr()))(p1); }
 8000fea:	2601      	movs	r6, #1
 8000fec:	ad28      	add	r5, sp, #160	; 0xa0
  inline GenericMemFunc GetClosureMemPtr() const { return reinterpret_cast<GenericMemFunc>(m_pFunction); }
 8000fee:	0023      	movs	r3, r4
 8000ff0:	002a      	movs	r2, r5
 8000ff2:	3308      	adds	r3, #8
 8000ff4:	6860      	ldr	r0, [r4, #4]
 8000ff6:	cb82      	ldmia	r3!, {r1, r7}
 8000ff8:	c282      	stmia	r2!, {r1, r7}
 8000ffa:	9b29      	ldr	r3, [sp, #164]	; 0xa4
 8000ffc:	9a28      	ldr	r2, [sp, #160]	; 0xa0
  return (m_Closure.GetClosureThis()->*(m_Closure.GetClosureMemPtr()))(p1); }
 8000ffe:	421e      	tst	r6, r3
 8001000:	d009      	beq.n	8001016 <_ZN9stm32plus11UsbKeyboardIN9OneButton14UsbHidKeyboardEJEE11onInterruptEv+0x2ee>
 8001002:	105b      	asrs	r3, r3, #1
 8001004:	18c0      	adds	r0, r0, r3
 8001006:	6803      	ldr	r3, [r0, #0]
 8001008:	2104      	movs	r1, #4
 800100a:	589b      	ldr	r3, [r3, r2]
 800100c:	4798      	blx	r3
  void _M_incr() { _M_node = _M_node->_M_next; }
 800100e:	6824      	ldr	r4, [r4, #0]
          for(auto it=_slots.begin();it!=_slots.end();it++)
 8001010:	2c00      	cmp	r4, #0
 8001012:	d1ec      	bne.n	8000fee <_ZN9stm32plus11UsbKeyboardIN9OneButton14UsbHidKeyboardEJEE11onInterruptEv+0x2c6>
 8001014:	e6c1      	b.n	8000d9a <_ZN9stm32plus11UsbKeyboardIN9OneButton14UsbHidKeyboardEJEE11onInterruptEv+0x72>
 8001016:	105b      	asrs	r3, r3, #1
 8001018:	18c0      	adds	r0, r0, r3
 800101a:	2104      	movs	r1, #4
 800101c:	4790      	blx	r2
 800101e:	6824      	ldr	r4, [r4, #0]
 8001020:	2c00      	cmp	r4, #0
 8001022:	d1e4      	bne.n	8000fee <_ZN9stm32plus11UsbKeyboardIN9OneButton14UsbHidKeyboardEJEE11onInterruptEv+0x2c6>
 8001024:	e6b9      	b.n	8000d9a <_ZN9stm32plus11UsbKeyboardIN9OneButton14UsbHidKeyboardEJEE11onInterruptEv+0x72>
 8001026:	46c0      	nop			; (mov r8, r8)
 8001028:	40005c00 	.word	0x40005c00
 800102c:	00000f8f 	.word	0x00000f8f
 8001030:	00580040 	.word	0x00580040
 8001034:	ffff8f0f 	.word	0xffff8f0f
 8001038:	10001700 	.word	0x10001700
 800103c:	40006000 	.word	0x40006000
 8001040:	08000c00 	.word	0x08000c00
 8001044:	ffff8fbf 	.word	0xffff8fbf
 8001048:	ffff8080 	.word	0xffff8080
 800104c:	40006004 	.word	0x40006004
 8001050:	40006018 	.word	0x40006018
 8001054:	fffffeff 	.word	0xfffffeff
    USBR->ISTR &= ~USB_ISTR_PMAOVR;
 8001058:	5ad1      	ldrh	r1, [r2, r3]
 800105a:	48d3      	ldr	r0, [pc, #844]	; (80013a8 <_ZN9stm32plus11UsbKeyboardIN9OneButton14UsbHidKeyboardEJEE11onInterruptEv+0x680>)
  size_type size() const { return __slist_size(this->_M_head._M_next); }
 800105c:	6aec      	ldr	r4, [r5, #44]	; 0x2c
 800105e:	4001      	ands	r1, r0
 8001060:	52d1      	strh	r1, [r2, r3]
  for ( ; __node != 0; __node = __node->_M_next)
 8001062:	2c00      	cmp	r4, #0
 8001064:	d100      	bne.n	8001068 <_ZN9stm32plus11UsbKeyboardIN9OneButton14UsbHidKeyboardEJEE11onInterruptEv+0x340>
 8001066:	e67a      	b.n	8000d5e <_ZN9stm32plus11UsbKeyboardIN9OneButton14UsbHidKeyboardEJEE11onInterruptEv+0x36>
 8001068:	0023      	movs	r3, r4
 800106a:	2200      	movs	r2, #0
 800106c:	681b      	ldr	r3, [r3, #0]
    ++__result;
 800106e:	3201      	adds	r2, #1
  for ( ; __node != 0; __node = __node->_M_next)
 8001070:	2b00      	cmp	r3, #0
 8001072:	d1fb      	bne.n	800106c <_ZN9stm32plus11UsbKeyboardIN9OneButton14UsbHidKeyboardEJEE11onInterruptEv+0x344>
        if(_slots.size()==1)
 8001074:	2a01      	cmp	r2, #1
 8001076:	d101      	bne.n	800107c <_ZN9stm32plus11UsbKeyboardIN9OneButton14UsbHidKeyboardEJEE11onInterruptEv+0x354>
 8001078:	f000 fc32 	bl	80018e0 <_ZN9stm32plus11UsbKeyboardIN9OneButton14UsbHidKeyboardEJEE11onInterruptEv+0xbb8>
 800107c:	2701      	movs	r7, #1
 800107e:	46a8      	mov	r8, r5
 8001080:	ae14      	add	r6, sp, #80	; 0x50
  inline GenericMemFunc GetClosureMemPtr() const { return reinterpret_cast<GenericMemFunc>(m_pFunction); }
 8001082:	0023      	movs	r3, r4
 8001084:	0032      	movs	r2, r6
 8001086:	3308      	adds	r3, #8
 8001088:	6860      	ldr	r0, [r4, #4]
 800108a:	cb22      	ldmia	r3!, {r1, r5}
 800108c:	c222      	stmia	r2!, {r1, r5}
 800108e:	9b15      	ldr	r3, [sp, #84]	; 0x54
 8001090:	9a14      	ldr	r2, [sp, #80]	; 0x50
  return (m_Closure.GetClosureThis()->*(m_Closure.GetClosureMemPtr()))(p1); }
 8001092:	421f      	tst	r7, r3
 8001094:	d100      	bne.n	8001098 <_ZN9stm32plus11UsbKeyboardIN9OneButton14UsbHidKeyboardEJEE11onInterruptEv+0x370>
 8001096:	e0f3      	b.n	8001280 <_ZN9stm32plus11UsbKeyboardIN9OneButton14UsbHidKeyboardEJEE11onInterruptEv+0x558>
 8001098:	105b      	asrs	r3, r3, #1
 800109a:	18c0      	adds	r0, r0, r3
 800109c:	6803      	ldr	r3, [r0, #0]
 800109e:	2101      	movs	r1, #1
 80010a0:	589b      	ldr	r3, [r3, r2]
 80010a2:	4798      	blx	r3
  void _M_incr() { _M_node = _M_node->_M_next; }
 80010a4:	6824      	ldr	r4, [r4, #0]
          for(auto it=_slots.begin();it!=_slots.end();it++)
 80010a6:	2c00      	cmp	r4, #0
 80010a8:	d1eb      	bne.n	8001082 <_ZN9stm32plus11UsbKeyboardIN9OneButton14UsbHidKeyboardEJEE11onInterruptEv+0x35a>
 80010aa:	4645      	mov	r5, r8
    if((USBR->ISTR & USB_ISTR_ERR)!=0)
 80010ac:	2344      	movs	r3, #68	; 0x44
 80010ae:	4abf      	ldr	r2, [pc, #764]	; (80013ac <_ZN9stm32plus11UsbKeyboardIN9OneButton14UsbHidKeyboardEJEE11onInterruptEv+0x684>)
 80010b0:	5ad1      	ldrh	r1, [r2, r3]
 80010b2:	0489      	lsls	r1, r1, #18
 80010b4:	d400      	bmi.n	80010b8 <_ZN9stm32plus11UsbKeyboardIN9OneButton14UsbHidKeyboardEJEE11onInterruptEv+0x390>
 80010b6:	e658      	b.n	8000d6a <_ZN9stm32plus11UsbKeyboardIN9OneButton14UsbHidKeyboardEJEE11onInterruptEv+0x42>
    USBR->ISTR &= ~USB_ISTR_ERR;
 80010b8:	5ad1      	ldrh	r1, [r2, r3]
 80010ba:	48bd      	ldr	r0, [pc, #756]	; (80013b0 <_ZN9stm32plus11UsbKeyboardIN9OneButton14UsbHidKeyboardEJEE11onInterruptEv+0x688>)
  size_type size() const { return __slist_size(this->_M_head._M_next); }
 80010bc:	6aec      	ldr	r4, [r5, #44]	; 0x2c
 80010be:	4001      	ands	r1, r0
 80010c0:	52d1      	strh	r1, [r2, r3]
  for ( ; __node != 0; __node = __node->_M_next)
 80010c2:	2c00      	cmp	r4, #0
 80010c4:	d100      	bne.n	80010c8 <_ZN9stm32plus11UsbKeyboardIN9OneButton14UsbHidKeyboardEJEE11onInterruptEv+0x3a0>
 80010c6:	e650      	b.n	8000d6a <_ZN9stm32plus11UsbKeyboardIN9OneButton14UsbHidKeyboardEJEE11onInterruptEv+0x42>
 80010c8:	0023      	movs	r3, r4
 80010ca:	2200      	movs	r2, #0
 80010cc:	681b      	ldr	r3, [r3, #0]
    ++__result;
 80010ce:	3201      	adds	r2, #1
  for ( ; __node != 0; __node = __node->_M_next)
 80010d0:	2b00      	cmp	r3, #0
 80010d2:	d1fb      	bne.n	80010cc <_ZN9stm32plus11UsbKeyboardIN9OneButton14UsbHidKeyboardEJEE11onInterruptEv+0x3a4>
        if(_slots.size()==1)
 80010d4:	2a01      	cmp	r2, #1
 80010d6:	d101      	bne.n	80010dc <_ZN9stm32plus11UsbKeyboardIN9OneButton14UsbHidKeyboardEJEE11onInterruptEv+0x3b4>
 80010d8:	f000 fc14 	bl	8001904 <_ZN9stm32plus11UsbKeyboardIN9OneButton14UsbHidKeyboardEJEE11onInterruptEv+0xbdc>
 80010dc:	2701      	movs	r7, #1
 80010de:	46a8      	mov	r8, r5
 80010e0:	ae18      	add	r6, sp, #96	; 0x60
  inline GenericMemFunc GetClosureMemPtr() const { return reinterpret_cast<GenericMemFunc>(m_pFunction); }
 80010e2:	0023      	movs	r3, r4
 80010e4:	0032      	movs	r2, r6
 80010e6:	3308      	adds	r3, #8
 80010e8:	6860      	ldr	r0, [r4, #4]
 80010ea:	cb22      	ldmia	r3!, {r1, r5}
 80010ec:	c222      	stmia	r2!, {r1, r5}
 80010ee:	9b19      	ldr	r3, [sp, #100]	; 0x64
 80010f0:	9a18      	ldr	r2, [sp, #96]	; 0x60
  return (m_Closure.GetClosureThis()->*(m_Closure.GetClosureMemPtr()))(p1); }
 80010f2:	421f      	tst	r7, r3
 80010f4:	d100      	bne.n	80010f8 <_ZN9stm32plus11UsbKeyboardIN9OneButton14UsbHidKeyboardEJEE11onInterruptEv+0x3d0>
 80010f6:	e17b      	b.n	80013f0 <_ZN9stm32plus11UsbKeyboardIN9OneButton14UsbHidKeyboardEJEE11onInterruptEv+0x6c8>
 80010f8:	105b      	asrs	r3, r3, #1
 80010fa:	18c0      	adds	r0, r0, r3
 80010fc:	6803      	ldr	r3, [r0, #0]
 80010fe:	2101      	movs	r1, #1
 8001100:	589b      	ldr	r3, [r3, r2]
 8001102:	4798      	blx	r3
  void _M_incr() { _M_node = _M_node->_M_next; }
 8001104:	6824      	ldr	r4, [r4, #0]
          for(auto it=_slots.begin();it!=_slots.end();it++)
 8001106:	2c00      	cmp	r4, #0
 8001108:	d1eb      	bne.n	80010e2 <_ZN9stm32plus11UsbKeyboardIN9OneButton14UsbHidKeyboardEJEE11onInterruptEv+0x3ba>
 800110a:	4645      	mov	r5, r8
    if((USBR->ISTR & USB_ISTR_WKUP)!=0)
 800110c:	2244      	movs	r2, #68	; 0x44
 800110e:	4ba7      	ldr	r3, [pc, #668]	; (80013ac <_ZN9stm32plus11UsbKeyboardIN9OneButton14UsbHidKeyboardEJEE11onInterruptEv+0x684>)
 8001110:	5a99      	ldrh	r1, [r3, r2]
 8001112:	04c9      	lsls	r1, r1, #19
 8001114:	d400      	bmi.n	8001118 <_ZN9stm32plus11UsbKeyboardIN9OneButton14UsbHidKeyboardEJEE11onInterruptEv+0x3f0>
 8001116:	e62e      	b.n	8000d76 <_ZN9stm32plus11UsbKeyboardIN9OneButton14UsbHidKeyboardEJEE11onInterruptEv+0x4e>
    USBR->CNTR &= ~USB_CNTR_LPMODE;
 8001118:	2140      	movs	r1, #64	; 0x40
 800111a:	2404      	movs	r4, #4
 800111c:	5a58      	ldrh	r0, [r3, r1]
 800111e:	43a0      	bics	r0, r4
 8001120:	5258      	strh	r0, [r3, r1]
    USBR->CNTR=USB_CNTR_CTRM          // correct transfer
 8001122:	48a4      	ldr	r0, [pc, #656]	; (80013b4 <_ZN9stm32plus11UsbKeyboardIN9OneButton14UsbHidKeyboardEJEE11onInterruptEv+0x68c>)
 8001124:	5258      	strh	r0, [r3, r1]
    USBR->ISTR &= ~USB_ISTR_WKUP;
 8001126:	5a99      	ldrh	r1, [r3, r2]
 8001128:	48a3      	ldr	r0, [pc, #652]	; (80013b8 <_ZN9stm32plus11UsbKeyboardIN9OneButton14UsbHidKeyboardEJEE11onInterruptEv+0x690>)
 800112a:	4001      	ands	r1, r0
 800112c:	5299      	strh	r1, [r3, r2]
    setDeviceState(_savedState);
 800112e:	6b6b      	ldr	r3, [r5, #52]	; 0x34
    if(_deviceState!=newState) {
 8001130:	6b2a      	ldr	r2, [r5, #48]	; 0x30
 8001132:	4293      	cmp	r3, r2
 8001134:	d100      	bne.n	8001138 <_ZN9stm32plus11UsbKeyboardIN9OneButton14UsbHidKeyboardEJEE11onInterruptEv+0x410>
 8001136:	e61e      	b.n	8000d76 <_ZN9stm32plus11UsbKeyboardIN9OneButton14UsbHidKeyboardEJEE11onInterruptEv+0x4e>
      _deviceState=newState;
 8001138:	632b      	str	r3, [r5, #48]	; 0x30

      switch(newState) {
 800113a:	2b02      	cmp	r3, #2
 800113c:	d100      	bne.n	8001140 <_ZN9stm32plus11UsbKeyboardIN9OneButton14UsbHidKeyboardEJEE11onInterruptEv+0x418>
 800113e:	e287      	b.n	8001650 <_ZN9stm32plus11UsbKeyboardIN9OneButton14UsbHidKeyboardEJEE11onInterruptEv+0x928>
 8001140:	dc00      	bgt.n	8001144 <_ZN9stm32plus11UsbKeyboardIN9OneButton14UsbHidKeyboardEJEE11onInterruptEv+0x41c>
 8001142:	e266      	b.n	8001612 <_ZN9stm32plus11UsbKeyboardIN9OneButton14UsbHidKeyboardEJEE11onInterruptEv+0x8ea>
 8001144:	2b03      	cmp	r3, #3
 8001146:	d100      	bne.n	800114a <_ZN9stm32plus11UsbKeyboardIN9OneButton14UsbHidKeyboardEJEE11onInterruptEv+0x422>
 8001148:	e355      	b.n	80017f6 <_ZN9stm32plus11UsbKeyboardIN9OneButton14UsbHidKeyboardEJEE11onInterruptEv+0xace>
        case DeviceStateType::CONFIGURED:
          notify=UsbStatusType::STATE_CONFIGURED;
          break;

        case DeviceStateType::SUSPENDED:
          notify=UsbStatusType::STATE_SUSPENDED;
 800114a:	2708      	movs	r7, #8
      switch(newState) {
 800114c:	2b04      	cmp	r3, #4
 800114e:	d000      	beq.n	8001152 <_ZN9stm32plus11UsbKeyboardIN9OneButton14UsbHidKeyboardEJEE11onInterruptEv+0x42a>
 8001150:	e611      	b.n	8000d76 <_ZN9stm32plus11UsbKeyboardIN9OneButton14UsbHidKeyboardEJEE11onInterruptEv+0x4e>
  size_type size() const { return __slist_size(this->_M_head._M_next); }
 8001152:	6aec      	ldr	r4, [r5, #44]	; 0x2c
  for ( ; __node != 0; __node = __node->_M_next)
 8001154:	2c00      	cmp	r4, #0
 8001156:	d100      	bne.n	800115a <_ZN9stm32plus11UsbKeyboardIN9OneButton14UsbHidKeyboardEJEE11onInterruptEv+0x432>
 8001158:	e60d      	b.n	8000d76 <_ZN9stm32plus11UsbKeyboardIN9OneButton14UsbHidKeyboardEJEE11onInterruptEv+0x4e>
 800115a:	0023      	movs	r3, r4
 800115c:	2200      	movs	r2, #0
 800115e:	681b      	ldr	r3, [r3, #0]
    ++__result;
 8001160:	3201      	adds	r2, #1
  for ( ; __node != 0; __node = __node->_M_next)
 8001162:	2b00      	cmp	r3, #0
 8001164:	d1fb      	bne.n	800115e <_ZN9stm32plus11UsbKeyboardIN9OneButton14UsbHidKeyboardEJEE11onInterruptEv+0x436>
        if(_slots.size()==1)
 8001166:	2a01      	cmp	r2, #1
 8001168:	d101      	bne.n	800116e <_ZN9stm32plus11UsbKeyboardIN9OneButton14UsbHidKeyboardEJEE11onInterruptEv+0x446>
 800116a:	f000 fbe8 	bl	800193e <_ZN9stm32plus11UsbKeyboardIN9OneButton14UsbHidKeyboardEJEE11onInterruptEv+0xc16>
 800116e:	2301      	movs	r3, #1
 8001170:	46a9      	mov	r9, r5
 8001172:	4698      	mov	r8, r3
 8001174:	ae1c      	add	r6, sp, #112	; 0x70
  inline GenericMemFunc GetClosureMemPtr() const { return reinterpret_cast<GenericMemFunc>(m_pFunction); }
 8001176:	0021      	movs	r1, r4
 8001178:	0033      	movs	r3, r6
 800117a:	3108      	adds	r1, #8
 800117c:	6860      	ldr	r0, [r4, #4]
 800117e:	c924      	ldmia	r1!, {r2, r5}
 8001180:	c324      	stmia	r3!, {r2, r5}
  return (m_Closure.GetClosureThis()->*(m_Closure.GetClosureMemPtr()))(p1); }
 8001182:	4641      	mov	r1, r8
  inline GenericMemFunc GetClosureMemPtr() const { return reinterpret_cast<GenericMemFunc>(m_pFunction); }
 8001184:	9b1d      	ldr	r3, [sp, #116]	; 0x74
 8001186:	9a1c      	ldr	r2, [sp, #112]	; 0x70
  return (m_Closure.GetClosureThis()->*(m_Closure.GetClosureMemPtr()))(p1); }
 8001188:	4219      	tst	r1, r3
 800118a:	d100      	bne.n	800118e <_ZN9stm32plus11UsbKeyboardIN9OneButton14UsbHidKeyboardEJEE11onInterruptEv+0x466>
 800118c:	e15b      	b.n	8001446 <_ZN9stm32plus11UsbKeyboardIN9OneButton14UsbHidKeyboardEJEE11onInterruptEv+0x71e>
 800118e:	105b      	asrs	r3, r3, #1
 8001190:	18c0      	adds	r0, r0, r3
 8001192:	6803      	ldr	r3, [r0, #0]
 8001194:	0039      	movs	r1, r7
 8001196:	589b      	ldr	r3, [r3, r2]
 8001198:	4798      	blx	r3
  void _M_incr() { _M_node = _M_node->_M_next; }
 800119a:	6824      	ldr	r4, [r4, #0]
          for(auto it=_slots.begin();it!=_slots.end();it++)
 800119c:	2c00      	cmp	r4, #0
 800119e:	d1ea      	bne.n	8001176 <_ZN9stm32plus11UsbKeyboardIN9OneButton14UsbHidKeyboardEJEE11onInterruptEv+0x44e>
 80011a0:	464d      	mov	r5, r9
    if((USBR->ISTR & USB_ISTR_SUSP)!=0)
 80011a2:	2244      	movs	r2, #68	; 0x44
 80011a4:	4b81      	ldr	r3, [pc, #516]	; (80013ac <_ZN9stm32plus11UsbKeyboardIN9OneButton14UsbHidKeyboardEJEE11onInterruptEv+0x684>)
 80011a6:	5a99      	ldrh	r1, [r3, r2]
 80011a8:	0509      	lsls	r1, r1, #20
 80011aa:	d400      	bmi.n	80011ae <_ZN9stm32plus11UsbKeyboardIN9OneButton14UsbHidKeyboardEJEE11onInterruptEv+0x486>
 80011ac:	e5e9      	b.n	8000d82 <_ZN9stm32plus11UsbKeyboardIN9OneButton14UsbHidKeyboardEJEE11onInterruptEv+0x5a>
    USBR->ISTR &= ~USB_ISTR_SUSP;
 80011ae:	5a99      	ldrh	r1, [r3, r2]
 80011b0:	4882      	ldr	r0, [pc, #520]	; (80013bc <_ZN9stm32plus11UsbKeyboardIN9OneButton14UsbHidKeyboardEJEE11onInterruptEv+0x694>)
 80011b2:	4001      	ands	r1, r0
    USBR->CNTR |= USB_CNTR_FSUSP;
 80011b4:	2008      	movs	r0, #8
    USBR->ISTR &= ~USB_ISTR_SUSP;
 80011b6:	5299      	strh	r1, [r3, r2]
    USBR->CNTR |= USB_CNTR_FSUSP;
 80011b8:	3a04      	subs	r2, #4
 80011ba:	5a99      	ldrh	r1, [r3, r2]
 80011bc:	4301      	orrs	r1, r0
 80011be:	5299      	strh	r1, [r3, r2]
    USBR->CNTR |= USB_CNTR_LPMODE;
 80011c0:	5a99      	ldrh	r1, [r3, r2]
 80011c2:	3804      	subs	r0, #4
 80011c4:	4301      	orrs	r1, r0
 80011c6:	5299      	strh	r1, [r3, r2]
    _savedState=_deviceState;
 80011c8:	6b2b      	ldr	r3, [r5, #48]	; 0x30
 80011ca:	636b      	str	r3, [r5, #52]	; 0x34
    if(_deviceState!=newState) {
 80011cc:	2b04      	cmp	r3, #4
 80011ce:	d100      	bne.n	80011d2 <_ZN9stm32plus11UsbKeyboardIN9OneButton14UsbHidKeyboardEJEE11onInterruptEv+0x4aa>
 80011d0:	e5d7      	b.n	8000d82 <_ZN9stm32plus11UsbKeyboardIN9OneButton14UsbHidKeyboardEJEE11onInterruptEv+0x5a>
      _deviceState=newState;
 80011d2:	2304      	movs	r3, #4
  size_type size() const { return __slist_size(this->_M_head._M_next); }
 80011d4:	6aec      	ldr	r4, [r5, #44]	; 0x2c
 80011d6:	632b      	str	r3, [r5, #48]	; 0x30
  for ( ; __node != 0; __node = __node->_M_next)
 80011d8:	2c00      	cmp	r4, #0
 80011da:	d100      	bne.n	80011de <_ZN9stm32plus11UsbKeyboardIN9OneButton14UsbHidKeyboardEJEE11onInterruptEv+0x4b6>
 80011dc:	e5d1      	b.n	8000d82 <_ZN9stm32plus11UsbKeyboardIN9OneButton14UsbHidKeyboardEJEE11onInterruptEv+0x5a>
 80011de:	0023      	movs	r3, r4
 80011e0:	2200      	movs	r2, #0
 80011e2:	681b      	ldr	r3, [r3, #0]
    ++__result;
 80011e4:	3201      	adds	r2, #1
  for ( ; __node != 0; __node = __node->_M_next)
 80011e6:	2b00      	cmp	r3, #0
 80011e8:	d1fb      	bne.n	80011e2 <_ZN9stm32plus11UsbKeyboardIN9OneButton14UsbHidKeyboardEJEE11onInterruptEv+0x4ba>
        if(_slots.size()==1)
 80011ea:	2a01      	cmp	r2, #1
 80011ec:	d100      	bne.n	80011f0 <_ZN9stm32plus11UsbKeyboardIN9OneButton14UsbHidKeyboardEJEE11onInterruptEv+0x4c8>
 80011ee:	e3c8      	b.n	8001982 <_ZN9stm32plus11UsbKeyboardIN9OneButton14UsbHidKeyboardEJEE11onInterruptEv+0xc5a>
 80011f0:	2701      	movs	r7, #1
 80011f2:	46a8      	mov	r8, r5
 80011f4:	ae20      	add	r6, sp, #128	; 0x80
  inline GenericMemFunc GetClosureMemPtr() const { return reinterpret_cast<GenericMemFunc>(m_pFunction); }
 80011f6:	0021      	movs	r1, r4
 80011f8:	0033      	movs	r3, r6
 80011fa:	3108      	adds	r1, #8
 80011fc:	6860      	ldr	r0, [r4, #4]
 80011fe:	c924      	ldmia	r1!, {r2, r5}
 8001200:	c324      	stmia	r3!, {r2, r5}
 8001202:	9b21      	ldr	r3, [sp, #132]	; 0x84
 8001204:	9a20      	ldr	r2, [sp, #128]	; 0x80
  return (m_Closure.GetClosureThis()->*(m_Closure.GetClosureMemPtr()))(p1); }
 8001206:	421f      	tst	r7, r3
 8001208:	d100      	bne.n	800120c <_ZN9stm32plus11UsbKeyboardIN9OneButton14UsbHidKeyboardEJEE11onInterruptEv+0x4e4>
 800120a:	e126      	b.n	800145a <_ZN9stm32plus11UsbKeyboardIN9OneButton14UsbHidKeyboardEJEE11onInterruptEv+0x732>
 800120c:	105b      	asrs	r3, r3, #1
 800120e:	18c0      	adds	r0, r0, r3
 8001210:	6803      	ldr	r3, [r0, #0]
 8001212:	2108      	movs	r1, #8
 8001214:	589b      	ldr	r3, [r3, r2]
 8001216:	4798      	blx	r3
  void _M_incr() { _M_node = _M_node->_M_next; }
 8001218:	6824      	ldr	r4, [r4, #0]
          for(auto it=_slots.begin();it!=_slots.end();it++)
 800121a:	2c00      	cmp	r4, #0
 800121c:	d1eb      	bne.n	80011f6 <_ZN9stm32plus11UsbKeyboardIN9OneButton14UsbHidKeyboardEJEE11onInterruptEv+0x4ce>
 800121e:	4645      	mov	r5, r8
    if((USBR->ISTR & USB_ISTR_SOF)!=0)
 8001220:	2344      	movs	r3, #68	; 0x44
 8001222:	4a62      	ldr	r2, [pc, #392]	; (80013ac <_ZN9stm32plus11UsbKeyboardIN9OneButton14UsbHidKeyboardEJEE11onInterruptEv+0x684>)
 8001224:	5ad1      	ldrh	r1, [r2, r3]
 8001226:	0589      	lsls	r1, r1, #22
 8001228:	d400      	bmi.n	800122c <_ZN9stm32plus11UsbKeyboardIN9OneButton14UsbHidKeyboardEJEE11onInterruptEv+0x504>
 800122a:	e5b0      	b.n	8000d8e <_ZN9stm32plus11UsbKeyboardIN9OneButton14UsbHidKeyboardEJEE11onInterruptEv+0x66>
    USBR->ISTR &= ~USB_ISTR_SOF;
 800122c:	5ad1      	ldrh	r1, [r2, r3]
 800122e:	4864      	ldr	r0, [pc, #400]	; (80013c0 <_ZN9stm32plus11UsbKeyboardIN9OneButton14UsbHidKeyboardEJEE11onInterruptEv+0x698>)
  size_type size() const { return __slist_size(this->_M_head._M_next); }
 8001230:	6aec      	ldr	r4, [r5, #44]	; 0x2c
 8001232:	4001      	ands	r1, r0
 8001234:	52d1      	strh	r1, [r2, r3]
  for ( ; __node != 0; __node = __node->_M_next)
 8001236:	2c00      	cmp	r4, #0
 8001238:	d100      	bne.n	800123c <_ZN9stm32plus11UsbKeyboardIN9OneButton14UsbHidKeyboardEJEE11onInterruptEv+0x514>
 800123a:	e5a8      	b.n	8000d8e <_ZN9stm32plus11UsbKeyboardIN9OneButton14UsbHidKeyboardEJEE11onInterruptEv+0x66>
 800123c:	0023      	movs	r3, r4
 800123e:	2200      	movs	r2, #0
 8001240:	681b      	ldr	r3, [r3, #0]
    ++__result;
 8001242:	3201      	adds	r2, #1
  for ( ; __node != 0; __node = __node->_M_next)
 8001244:	2b00      	cmp	r3, #0
 8001246:	d1fb      	bne.n	8001240 <_ZN9stm32plus11UsbKeyboardIN9OneButton14UsbHidKeyboardEJEE11onInterruptEv+0x518>
        if(_slots.size()==1)
 8001248:	2a01      	cmp	r2, #1
 800124a:	d100      	bne.n	800124e <_ZN9stm32plus11UsbKeyboardIN9OneButton14UsbHidKeyboardEJEE11onInterruptEv+0x526>
 800124c:	e336      	b.n	80018bc <_ZN9stm32plus11UsbKeyboardIN9OneButton14UsbHidKeyboardEJEE11onInterruptEv+0xb94>
 800124e:	2701      	movs	r7, #1
 8001250:	46a8      	mov	r8, r5
 8001252:	ae24      	add	r6, sp, #144	; 0x90
  inline GenericMemFunc GetClosureMemPtr() const { return reinterpret_cast<GenericMemFunc>(m_pFunction); }
 8001254:	0023      	movs	r3, r4
 8001256:	0032      	movs	r2, r6
 8001258:	3308      	adds	r3, #8
 800125a:	6860      	ldr	r0, [r4, #4]
 800125c:	cb22      	ldmia	r3!, {r1, r5}
 800125e:	c222      	stmia	r2!, {r1, r5}
 8001260:	9b25      	ldr	r3, [sp, #148]	; 0x94
 8001262:	9a24      	ldr	r2, [sp, #144]	; 0x90
  return (m_Closure.GetClosureThis()->*(m_Closure.GetClosureMemPtr()))(p1); }
 8001264:	421f      	tst	r7, r3
 8001266:	d100      	bne.n	800126a <_ZN9stm32plus11UsbKeyboardIN9OneButton14UsbHidKeyboardEJEE11onInterruptEv+0x542>
 8001268:	e093      	b.n	8001392 <_ZN9stm32plus11UsbKeyboardIN9OneButton14UsbHidKeyboardEJEE11onInterruptEv+0x66a>
 800126a:	105b      	asrs	r3, r3, #1
 800126c:	18c0      	adds	r0, r0, r3
 800126e:	6803      	ldr	r3, [r0, #0]
 8001270:	2103      	movs	r1, #3
 8001272:	589b      	ldr	r3, [r3, r2]
 8001274:	4798      	blx	r3
  void _M_incr() { _M_node = _M_node->_M_next; }
 8001276:	6824      	ldr	r4, [r4, #0]
          for(auto it=_slots.begin();it!=_slots.end();it++)
 8001278:	2c00      	cmp	r4, #0
 800127a:	d1eb      	bne.n	8001254 <_ZN9stm32plus11UsbKeyboardIN9OneButton14UsbHidKeyboardEJEE11onInterruptEv+0x52c>
 800127c:	4645      	mov	r5, r8
 800127e:	e586      	b.n	8000d8e <_ZN9stm32plus11UsbKeyboardIN9OneButton14UsbHidKeyboardEJEE11onInterruptEv+0x66>
 8001280:	105b      	asrs	r3, r3, #1
 8001282:	18c0      	adds	r0, r0, r3
 8001284:	2101      	movs	r1, #1
 8001286:	4790      	blx	r2
 8001288:	6824      	ldr	r4, [r4, #0]
 800128a:	2c00      	cmp	r4, #0
 800128c:	d000      	beq.n	8001290 <_ZN9stm32plus11UsbKeyboardIN9OneButton14UsbHidKeyboardEJEE11onInterruptEv+0x568>
 800128e:	e6f8      	b.n	8001082 <_ZN9stm32plus11UsbKeyboardIN9OneButton14UsbHidKeyboardEJEE11onInterruptEv+0x35a>
 8001290:	4645      	mov	r5, r8
 8001292:	e70b      	b.n	80010ac <_ZN9stm32plus11UsbKeyboardIN9OneButton14UsbHidKeyboardEJEE11onInterruptEv+0x384>
    USBR->ISTR &= ~USB_ISTR_RESET;
 8001294:	5a99      	ldrh	r1, [r3, r2]
 8001296:	484b      	ldr	r0, [pc, #300]	; (80013c4 <_ZN9stm32plus11UsbKeyboardIN9OneButton14UsbHidKeyboardEJEE11onInterruptEv+0x69c>)
 8001298:	4001      	ands	r1, r0
 800129a:	5299      	strh	r1, [r3, r2]
      USBR->DADDR=USB_DADDR_EF;
 800129c:	2180      	movs	r1, #128	; 0x80
 800129e:	3208      	adds	r2, #8
 80012a0:	5299      	strh	r1, [r3, r2]
    *reg=(*reg & USB_EP_T_MASK) | type;
 80012a2:	881a      	ldrh	r2, [r3, #0]
 80012a4:	4948      	ldr	r1, [pc, #288]	; (80013c8 <_ZN9stm32plus11UsbKeyboardIN9OneButton14UsbHidKeyboardEJEE11onInterruptEv+0x6a0>)
 80012a6:	4011      	ands	r1, r2
 80012a8:	2280      	movs	r2, #128	; 0x80
 80012aa:	0092      	lsls	r2, r2, #2
 80012ac:	430a      	orrs	r2, r1
 80012ae:	801a      	strh	r2, [r3, #0]
    *reg=(*reg & USB_EPREG_MASK) | addr | USB_EP_CTR_TX;
 80012b0:	881a      	ldrh	r2, [r3, #0]
 80012b2:	4946      	ldr	r1, [pc, #280]	; (80013cc <_ZN9stm32plus11UsbKeyboardIN9OneButton14UsbHidKeyboardEJEE11onInterruptEv+0x6a4>)
 80012b4:	400a      	ands	r2, r1
 80012b6:	2180      	movs	r1, #128	; 0x80
 80012b8:	430a      	orrs	r2, r1
 80012ba:	801a      	strh	r2, [r3, #0]
    USBR_BDT[addr].tx.addr=pmaAddress;
 80012bc:	4a44      	ldr	r2, [pc, #272]	; (80013d0 <_ZN9stm32plus11UsbKeyboardIN9OneButton14UsbHidKeyboardEJEE11onInterruptEv+0x6a8>)
 80012be:	3928      	subs	r1, #40	; 0x28
 80012c0:	8011      	strh	r1, [r2, #0]
    if((*reg & USB_EP_DTOG_TX)!=0)
 80012c2:	881a      	ldrh	r2, [r3, #0]
 80012c4:	0652      	lsls	r2, r2, #25
 80012c6:	d505      	bpl.n	80012d4 <_ZN9stm32plus11UsbKeyboardIN9OneButton14UsbHidKeyboardEJEE11onInterruptEv+0x5ac>
      *reg=(*reg & USB_EPREG_MASK) | USB_EP_CTR_TX | USB_EP_DTOG_TX;
 80012c8:	881a      	ldrh	r2, [r3, #0]
 80012ca:	4942      	ldr	r1, [pc, #264]	; (80013d4 <_ZN9stm32plus11UsbKeyboardIN9OneButton14UsbHidKeyboardEJEE11onInterruptEv+0x6ac>)
 80012cc:	400a      	ands	r2, r1
 80012ce:	21c0      	movs	r1, #192	; 0xc0
 80012d0:	430a      	orrs	r2, r1
 80012d2:	801a      	strh	r2, [r3, #0]
    value=*epreg & USB_EPTX_DTOGMASK;
 80012d4:	4b35      	ldr	r3, [pc, #212]	; (80013ac <_ZN9stm32plus11UsbKeyboardIN9OneButton14UsbHidKeyboardEJEE11onInterruptEv+0x684>)
 80012d6:	4940      	ldr	r1, [pc, #256]	; (80013d8 <_ZN9stm32plus11UsbKeyboardIN9OneButton14UsbHidKeyboardEJEE11onInterruptEv+0x6b0>)
 80012d8:	881a      	ldrh	r2, [r3, #0]
 80012da:	400a      	ands	r2, r1
      reg^=USB_EPTX_DTOG2;
 80012dc:	2120      	movs	r1, #32
 80012de:	4051      	eors	r1, r2
    *epreg=setTxStatus(value,status) | USB_EP_CTR_RX | USB_EP_CTR_TX;
 80012e0:	4a3e      	ldr	r2, [pc, #248]	; (80013dc <_ZN9stm32plus11UsbKeyboardIN9OneButton14UsbHidKeyboardEJEE11onInterruptEv+0x6b4>)
 80012e2:	430a      	orrs	r2, r1
 80012e4:	b292      	uxth	r2, r2
 80012e6:	801a      	strh	r2, [r3, #0]
    *reg=(*reg & USB_EP_T_MASK) | type;
 80012e8:	881a      	ldrh	r2, [r3, #0]
 80012ea:	4937      	ldr	r1, [pc, #220]	; (80013c8 <_ZN9stm32plus11UsbKeyboardIN9OneButton14UsbHidKeyboardEJEE11onInterruptEv+0x6a0>)
 80012ec:	4011      	ands	r1, r2
 80012ee:	2280      	movs	r2, #128	; 0x80
 80012f0:	0092      	lsls	r2, r2, #2
 80012f2:	430a      	orrs	r2, r1
 80012f4:	801a      	strh	r2, [r3, #0]
    *reg=(*reg & USB_EPREG_MASK) | addr | USB_EP_CTR_RX;
 80012f6:	881a      	ldrh	r2, [r3, #0]
 80012f8:	4934      	ldr	r1, [pc, #208]	; (80013cc <_ZN9stm32plus11UsbKeyboardIN9OneButton14UsbHidKeyboardEJEE11onInterruptEv+0x6a4>)
 80012fa:	400a      	ands	r2, r1
 80012fc:	2180      	movs	r1, #128	; 0x80
 80012fe:	0209      	lsls	r1, r1, #8
 8001300:	430a      	orrs	r2, r1
    USBR_BDT[addr].rx.addr=pmaAddress;
 8001302:	2118      	movs	r1, #24
    *reg=(*reg & USB_EPREG_MASK) | addr | USB_EP_CTR_RX;
 8001304:	801a      	strh	r2, [r3, #0]
    USBR_BDT[addr].rx.addr=pmaAddress;
 8001306:	4a32      	ldr	r2, [pc, #200]	; (80013d0 <_ZN9stm32plus11UsbKeyboardIN9OneButton14UsbHidKeyboardEJEE11onInterruptEv+0x6a8>)
 8001308:	8091      	strh	r1, [r2, #4]
        count=(wNBlocks << 10) | 0x8000;
 800130a:	4935      	ldr	r1, [pc, #212]	; (80013e0 <_ZN9stm32plus11UsbKeyboardIN9OneButton14UsbHidKeyboardEJEE11onInterruptEv+0x6b8>)
 800130c:	80d1      	strh	r1, [r2, #6]
    if((*reg & USB_EP_DTOG_RX)!=0)
 800130e:	881a      	ldrh	r2, [r3, #0]
 8001310:	0452      	lsls	r2, r2, #17
 8001312:	d506      	bpl.n	8001322 <_ZN9stm32plus11UsbKeyboardIN9OneButton14UsbHidKeyboardEJEE11onInterruptEv+0x5fa>
      *reg=(*reg & USB_EPREG_MASK) | USB_EP_CTR_RX | USB_EP_DTOG_RX;
 8001314:	881a      	ldrh	r2, [r3, #0]
 8001316:	4933      	ldr	r1, [pc, #204]	; (80013e4 <_ZN9stm32plus11UsbKeyboardIN9OneButton14UsbHidKeyboardEJEE11onInterruptEv+0x6bc>)
 8001318:	400a      	ands	r2, r1
 800131a:	21c0      	movs	r1, #192	; 0xc0
 800131c:	0209      	lsls	r1, r1, #8
 800131e:	430a      	orrs	r2, r1
 8001320:	801a      	strh	r2, [r3, #0]
    value=*epreg & USB_EPRX_DTOGMASK;
 8001322:	4922      	ldr	r1, [pc, #136]	; (80013ac <_ZN9stm32plus11UsbKeyboardIN9OneButton14UsbHidKeyboardEJEE11onInterruptEv+0x684>)
 8001324:	4a30      	ldr	r2, [pc, #192]	; (80013e8 <_ZN9stm32plus11UsbKeyboardIN9OneButton14UsbHidKeyboardEJEE11onInterruptEv+0x6c0>)
 8001326:	880b      	ldrh	r3, [r1, #0]
  size_type size() const { return __slist_size(this->_M_head._M_next); }
 8001328:	6aec      	ldr	r4, [r5, #44]	; 0x2c
 800132a:	401a      	ands	r2, r3
      reg^=USB_EPRX_DTOG2;
 800132c:	23c0      	movs	r3, #192	; 0xc0
 800132e:	019b      	lsls	r3, r3, #6
 8001330:	4053      	eors	r3, r2
    *epreg=setRxStatus(value,status) | USB_EP_CTR_RX | USB_EP_CTR_TX;
 8001332:	4a2e      	ldr	r2, [pc, #184]	; (80013ec <_ZN9stm32plus11UsbKeyboardIN9OneButton14UsbHidKeyboardEJEE11onInterruptEv+0x6c4>)
 8001334:	4313      	orrs	r3, r2
 8001336:	800b      	strh	r3, [r1, #0]
  for ( ; __node != 0; __node = __node->_M_next)
 8001338:	2c00      	cmp	r4, #0
 800133a:	d100      	bne.n	800133e <_ZN9stm32plus11UsbKeyboardIN9OneButton14UsbHidKeyboardEJEE11onInterruptEv+0x616>
 800133c:	e509      	b.n	8000d52 <_ZN9stm32plus11UsbKeyboardIN9OneButton14UsbHidKeyboardEJEE11onInterruptEv+0x2a>
 800133e:	0023      	movs	r3, r4
 8001340:	2200      	movs	r2, #0
 8001342:	681b      	ldr	r3, [r3, #0]
    ++__result;
 8001344:	3201      	adds	r2, #1
  for ( ; __node != 0; __node = __node->_M_next)
 8001346:	2b00      	cmp	r3, #0
 8001348:	d1fb      	bne.n	8001342 <_ZN9stm32plus11UsbKeyboardIN9OneButton14UsbHidKeyboardEJEE11onInterruptEv+0x61a>
        if(_slots.size()==1)
 800134a:	2a01      	cmp	r2, #1
 800134c:	d100      	bne.n	8001350 <_ZN9stm32plus11UsbKeyboardIN9OneButton14UsbHidKeyboardEJEE11onInterruptEv+0x628>
 800134e:	e266      	b.n	800181e <_ZN9stm32plus11UsbKeyboardIN9OneButton14UsbHidKeyboardEJEE11onInterruptEv+0xaf6>
 8001350:	2701      	movs	r7, #1
 8001352:	46a8      	mov	r8, r5
 8001354:	ae10      	add	r6, sp, #64	; 0x40
  inline GenericMemFunc GetClosureMemPtr() const { return reinterpret_cast<GenericMemFunc>(m_pFunction); }
 8001356:	0023      	movs	r3, r4
 8001358:	0032      	movs	r2, r6
 800135a:	3308      	adds	r3, #8
 800135c:	6860      	ldr	r0, [r4, #4]
 800135e:	cb22      	ldmia	r3!, {r1, r5}
 8001360:	c222      	stmia	r2!, {r1, r5}
 8001362:	9b11      	ldr	r3, [sp, #68]	; 0x44
 8001364:	9a10      	ldr	r2, [sp, #64]	; 0x40
  return (m_Closure.GetClosureThis()->*(m_Closure.GetClosureMemPtr()))(p1); }
 8001366:	421f      	tst	r7, r3
 8001368:	d00a      	beq.n	8001380 <_ZN9stm32plus11UsbKeyboardIN9OneButton14UsbHidKeyboardEJEE11onInterruptEv+0x658>
 800136a:	105b      	asrs	r3, r3, #1
 800136c:	18c0      	adds	r0, r0, r3
 800136e:	6803      	ldr	r3, [r0, #0]
 8001370:	2100      	movs	r1, #0
 8001372:	589b      	ldr	r3, [r3, r2]
 8001374:	4798      	blx	r3
  void _M_incr() { _M_node = _M_node->_M_next; }
 8001376:	6824      	ldr	r4, [r4, #0]
          for(auto it=_slots.begin();it!=_slots.end();it++)
 8001378:	2c00      	cmp	r4, #0
 800137a:	d1ec      	bne.n	8001356 <_ZN9stm32plus11UsbKeyboardIN9OneButton14UsbHidKeyboardEJEE11onInterruptEv+0x62e>
 800137c:	4645      	mov	r5, r8
 800137e:	e4e8      	b.n	8000d52 <_ZN9stm32plus11UsbKeyboardIN9OneButton14UsbHidKeyboardEJEE11onInterruptEv+0x2a>
 8001380:	105b      	asrs	r3, r3, #1
 8001382:	18c0      	adds	r0, r0, r3
 8001384:	2100      	movs	r1, #0
 8001386:	4790      	blx	r2
 8001388:	6824      	ldr	r4, [r4, #0]
 800138a:	2c00      	cmp	r4, #0
 800138c:	d1e3      	bne.n	8001356 <_ZN9stm32plus11UsbKeyboardIN9OneButton14UsbHidKeyboardEJEE11onInterruptEv+0x62e>
 800138e:	4645      	mov	r5, r8
 8001390:	e4df      	b.n	8000d52 <_ZN9stm32plus11UsbKeyboardIN9OneButton14UsbHidKeyboardEJEE11onInterruptEv+0x2a>
 8001392:	105b      	asrs	r3, r3, #1
 8001394:	18c0      	adds	r0, r0, r3
 8001396:	2103      	movs	r1, #3
 8001398:	4790      	blx	r2
 800139a:	6824      	ldr	r4, [r4, #0]
 800139c:	2c00      	cmp	r4, #0
 800139e:	d000      	beq.n	80013a2 <_ZN9stm32plus11UsbKeyboardIN9OneButton14UsbHidKeyboardEJEE11onInterruptEv+0x67a>
 80013a0:	e758      	b.n	8001254 <_ZN9stm32plus11UsbKeyboardIN9OneButton14UsbHidKeyboardEJEE11onInterruptEv+0x52c>
 80013a2:	4645      	mov	r5, r8
 80013a4:	e4f3      	b.n	8000d8e <_ZN9stm32plus11UsbKeyboardIN9OneButton14UsbHidKeyboardEJEE11onInterruptEv+0x66>
 80013a6:	46c0      	nop			; (mov r8, r8)
 80013a8:	ffffbfff 	.word	0xffffbfff
 80013ac:	40005c00 	.word	0x40005c00
 80013b0:	ffffdfff 	.word	0xffffdfff
 80013b4:	ffffbd00 	.word	0xffffbd00
 80013b8:	ffffefff 	.word	0xffffefff
 80013bc:	fffff7ff 	.word	0xfffff7ff
 80013c0:	fffffdff 	.word	0xfffffdff
 80013c4:	fffffbff 	.word	0xfffffbff
 80013c8:	ffff898f 	.word	0xffff898f
 80013cc:	ffff8f8f 	.word	0xffff8f8f
 80013d0:	40006000 	.word	0x40006000
 80013d4:	ffff8f0f 	.word	0xffff8f0f
 80013d8:	ffff8fbf 	.word	0xffff8fbf
 80013dc:	ffff8080 	.word	0xffff8080
 80013e0:	ffff8400 	.word	0xffff8400
 80013e4:	00000f8f 	.word	0x00000f8f
 80013e8:	ffffbf8f 	.word	0xffffbf8f
 80013ec:	00008080 	.word	0x00008080
 80013f0:	105b      	asrs	r3, r3, #1
 80013f2:	18c0      	adds	r0, r0, r3
 80013f4:	2101      	movs	r1, #1
 80013f6:	4790      	blx	r2
 80013f8:	6824      	ldr	r4, [r4, #0]
 80013fa:	2c00      	cmp	r4, #0
 80013fc:	d000      	beq.n	8001400 <_ZN9stm32plus11UsbKeyboardIN9OneButton14UsbHidKeyboardEJEE11onInterruptEv+0x6d8>
 80013fe:	e670      	b.n	80010e2 <_ZN9stm32plus11UsbKeyboardIN9OneButton14UsbHidKeyboardEJEE11onInterruptEv+0x3ba>
 8001400:	4645      	mov	r5, r8
 8001402:	e683      	b.n	800110c <_ZN9stm32plus11UsbKeyboardIN9OneButton14UsbHidKeyboardEJEE11onInterruptEv+0x3e4>
  inline GenericMemFunc GetClosureMemPtr() const { return reinterpret_cast<GenericMemFunc>(m_pFunction); }
 8001404:	002b      	movs	r3, r5
 8001406:	a902      	add	r1, sp, #8
 8001408:	3314      	adds	r3, #20
 800140a:	6928      	ldr	r0, [r5, #16]
 800140c:	cb50      	ldmia	r3!, {r4, r6}
 800140e:	c150      	stmia	r1!, {r4, r6}
 8001410:	9b03      	ldr	r3, [sp, #12]
 8001412:	9c02      	ldr	r4, [sp, #8]
  return (m_Closure.GetClosureThis()->*(m_Closure.GetClosureMemPtr()))(p1, p2, p3); }
 8001414:	421a      	tst	r2, r3
 8001416:	d100      	bne.n	800141a <_ZN9stm32plus11UsbKeyboardIN9OneButton14UsbHidKeyboardEJEE11onInterruptEv+0x6f2>
 8001418:	e359      	b.n	8001ace <_ZN9stm32plus11UsbKeyboardIN9OneButton14UsbHidKeyboardEJEE11onInterruptEv+0xda6>
 800141a:	105b      	asrs	r3, r3, #1
 800141c:	18c0      	adds	r0, r0, r3
 800141e:	6803      	ldr	r3, [r0, #0]
 8001420:	591c      	ldr	r4, [r3, r4]
 8001422:	003b      	movs	r3, r7
 8001424:	4ad2      	ldr	r2, [pc, #840]	; (8001770 <_ZN9stm32plus11UsbKeyboardIN9OneButton14UsbHidKeyboardEJEE11onInterruptEv+0xa48>)
 8001426:	2100      	movs	r1, #0
 8001428:	47a0      	blx	r4
 800142a:	4ad2      	ldr	r2, [pc, #840]	; (8001774 <_ZN9stm32plus11UsbKeyboardIN9OneButton14UsbHidKeyboardEJEE11onInterruptEv+0xa4c>)
 800142c:	4bd2      	ldr	r3, [pc, #840]	; (8001778 <_ZN9stm32plus11UsbKeyboardIN9OneButton14UsbHidKeyboardEJEE11onInterruptEv+0xa50>)
    value=*epreg & USB_EPRX_DTOGMASK;
 800142e:	49d3      	ldr	r1, [pc, #844]	; (800177c <_ZN9stm32plus11UsbKeyboardIN9OneButton14UsbHidKeyboardEJEE11onInterruptEv+0xa54>)
 8001430:	805a      	strh	r2, [r3, #2]
 8001432:	880b      	ldrh	r3, [r1, #0]
 8001434:	4ad2      	ldr	r2, [pc, #840]	; (8001780 <_ZN9stm32plus11UsbKeyboardIN9OneButton14UsbHidKeyboardEJEE11onInterruptEv+0xa58>)
 8001436:	401a      	ands	r2, r3
      reg^=USB_EPRX_DTOG2;
 8001438:	23c0      	movs	r3, #192	; 0xc0
 800143a:	019b      	lsls	r3, r3, #6
 800143c:	4053      	eors	r3, r2
    *epreg=setRxStatus(value,status) | USB_EP_CTR_RX | USB_EP_CTR_TX;
 800143e:	4ad1      	ldr	r2, [pc, #836]	; (8001784 <_ZN9stm32plus11UsbKeyboardIN9OneButton14UsbHidKeyboardEJEE11onInterruptEv+0xa5c>)
 8001440:	4313      	orrs	r3, r2
 8001442:	800b      	strh	r3, [r1, #0]
 8001444:	e502      	b.n	8000e4c <_ZN9stm32plus11UsbKeyboardIN9OneButton14UsbHidKeyboardEJEE11onInterruptEv+0x124>
  return (m_Closure.GetClosureThis()->*(m_Closure.GetClosureMemPtr()))(p1); }
 8001446:	105b      	asrs	r3, r3, #1
 8001448:	18c0      	adds	r0, r0, r3
 800144a:	0039      	movs	r1, r7
 800144c:	4790      	blx	r2
 800144e:	6824      	ldr	r4, [r4, #0]
 8001450:	2c00      	cmp	r4, #0
 8001452:	d000      	beq.n	8001456 <_ZN9stm32plus11UsbKeyboardIN9OneButton14UsbHidKeyboardEJEE11onInterruptEv+0x72e>
 8001454:	e68f      	b.n	8001176 <_ZN9stm32plus11UsbKeyboardIN9OneButton14UsbHidKeyboardEJEE11onInterruptEv+0x44e>
 8001456:	464d      	mov	r5, r9
 8001458:	e6a3      	b.n	80011a2 <_ZN9stm32plus11UsbKeyboardIN9OneButton14UsbHidKeyboardEJEE11onInterruptEv+0x47a>
 800145a:	105b      	asrs	r3, r3, #1
 800145c:	18c0      	adds	r0, r0, r3
 800145e:	2108      	movs	r1, #8
 8001460:	4790      	blx	r2
 8001462:	6824      	ldr	r4, [r4, #0]
 8001464:	2c00      	cmp	r4, #0
 8001466:	d000      	beq.n	800146a <_ZN9stm32plus11UsbKeyboardIN9OneButton14UsbHidKeyboardEJEE11onInterruptEv+0x742>
 8001468:	e6c5      	b.n	80011f6 <_ZN9stm32plus11UsbKeyboardIN9OneButton14UsbHidKeyboardEJEE11onInterruptEv+0x4ce>
 800146a:	4645      	mov	r5, r8
 800146c:	e6d8      	b.n	8001220 <_ZN9stm32plus11UsbKeyboardIN9OneButton14UsbHidKeyboardEJEE11onInterruptEv+0x4f8>
      if(_inEndpointData[0].remaining) {
 800146e:	333e      	adds	r3, #62	; 0x3e
 8001470:	5aeb      	ldrh	r3, [r5, r3]
 8001472:	2b00      	cmp	r3, #0
 8001474:	d000      	beq.n	8001478 <_ZN9stm32plus11UsbKeyboardIN9OneButton14UsbHidKeyboardEJEE11onInterruptEv+0x750>
 8001476:	e1e5      	b.n	8001844 <_ZN9stm32plus11UsbKeyboardIN9OneButton14UsbHidKeyboardEJEE11onInterruptEv+0xb1c>
        if((_inEndpointData[0].total % CONTROL_MAX_PACKET_SIZE)==0 &&
 8001478:	2342      	movs	r3, #66	; 0x42
 800147a:	5ae9      	ldrh	r1, [r5, r3]
 800147c:	3b03      	subs	r3, #3
 800147e:	400b      	ands	r3, r1
 8001480:	d120      	bne.n	80014c4 <_ZN9stm32plus11UsbKeyboardIN9OneButton14UsbHidKeyboardEJEE11onInterruptEv+0x79c>
 8001482:	2940      	cmp	r1, #64	; 0x40
 8001484:	d91e      	bls.n	80014c4 <_ZN9stm32plus11UsbKeyboardIN9OneButton14UsbHidKeyboardEJEE11onInterruptEv+0x79c>
            _inEndpointData[0].total<_setupDataLength) {
 8001486:	2054      	movs	r0, #84	; 0x54
 8001488:	5a28      	ldrh	r0, [r5, r0]
            _inEndpointData[0].total>CONTROL_MAX_PACKET_SIZE &&
 800148a:	4281      	cmp	r1, r0
 800148c:	da1a      	bge.n	80014c4 <_ZN9stm32plus11UsbKeyboardIN9OneButton14UsbHidKeyboardEJEE11onInterruptEv+0x79c>
    _inEndpointData[endpointIndex].remaining=length;
 800148e:	49be      	ldr	r1, [pc, #760]	; (8001788 <_ZN9stm32plus11UsbKeyboardIN9OneButton14UsbHidKeyboardEJEE11onInterruptEv+0xa60>)
 8001490:	642b      	str	r3, [r5, #64]	; 0x40
 8001492:	6469      	str	r1, [r5, #68]	; 0x44
    USBR_BDT[endpointIndex].tx.count=length;
 8001494:	49bd      	ldr	r1, [pc, #756]	; (800178c <_ZN9stm32plus11UsbKeyboardIN9OneButton14UsbHidKeyboardEJEE11onInterruptEv+0xa64>)
    _inEndpointData[endpointIndex].ptr=reinterpret_cast<const uint8_t *>(data);
 8001496:	63eb      	str	r3, [r5, #60]	; 0x3c
    USBR_BDT[endpointIndex].tx.count=length;
 8001498:	804b      	strh	r3, [r1, #2]
    value=*epreg & USB_EPTX_DTOGMASK;
 800149a:	8811      	ldrh	r1, [r2, #0]
 800149c:	48bc      	ldr	r0, [pc, #752]	; (8001790 <_ZN9stm32plus11UsbKeyboardIN9OneButton14UsbHidKeyboardEJEE11onInterruptEv+0xa68>)
 800149e:	4001      	ands	r1, r0
      reg^=USB_EPTX_DTOG2;
 80014a0:	2030      	movs	r0, #48	; 0x30
 80014a2:	4041      	eors	r1, r0
    *epreg=setTxStatus(value,status) | USB_EP_CTR_RX | USB_EP_CTR_TX;
 80014a4:	48bb      	ldr	r0, [pc, #748]	; (8001794 <_ZN9stm32plus11UsbKeyboardIN9OneButton14UsbHidKeyboardEJEE11onInterruptEv+0xa6c>)
 80014a6:	4301      	orrs	r1, r0
 80014a8:	b289      	uxth	r1, r1
 80014aa:	8011      	strh	r1, [r2, #0]
        count=wNBlocks << 10;
 80014ac:	49b2      	ldr	r1, [pc, #712]	; (8001778 <_ZN9stm32plus11UsbKeyboardIN9OneButton14UsbHidKeyboardEJEE11onInterruptEv+0xa50>)
 80014ae:	804b      	strh	r3, [r1, #2]
    value=*epreg & USB_EPRX_DTOGMASK;
 80014b0:	8813      	ldrh	r3, [r2, #0]
 80014b2:	49b3      	ldr	r1, [pc, #716]	; (8001780 <_ZN9stm32plus11UsbKeyboardIN9OneButton14UsbHidKeyboardEJEE11onInterruptEv+0xa58>)
 80014b4:	4019      	ands	r1, r3
      reg^=USB_EPRX_DTOG2;
 80014b6:	23c0      	movs	r3, #192	; 0xc0
 80014b8:	019b      	lsls	r3, r3, #6
 80014ba:	404b      	eors	r3, r1
    *epreg=setRxStatus(value,status) | USB_EP_CTR_RX | USB_EP_CTR_TX;
 80014bc:	4318      	orrs	r0, r3
 80014be:	b280      	uxth	r0, r0
 80014c0:	8010      	strh	r0, [r2, #0]
 80014c2:	e4d8      	b.n	8000e76 <_ZN9stm32plus11UsbKeyboardIN9OneButton14UsbHidKeyboardEJEE11onInterruptEv+0x14e>
          _controlEndpointState=ControlEndpointStateType::STATUS_OUT;
 80014c4:	2305      	movs	r3, #5
 80014c6:	2200      	movs	r2, #0
 80014c8:	63ab      	str	r3, [r5, #56]	; 0x38
 80014ca:	4bab      	ldr	r3, [pc, #684]	; (8001778 <_ZN9stm32plus11UsbKeyboardIN9OneButton14UsbHidKeyboardEJEE11onInterruptEv+0xa50>)
    value=*epreg & USB_EPRX_DTOGMASK;
 80014cc:	49ab      	ldr	r1, [pc, #684]	; (800177c <_ZN9stm32plus11UsbKeyboardIN9OneButton14UsbHidKeyboardEJEE11onInterruptEv+0xa54>)
 80014ce:	805a      	strh	r2, [r3, #2]
 80014d0:	880b      	ldrh	r3, [r1, #0]
 80014d2:	4aab      	ldr	r2, [pc, #684]	; (8001780 <_ZN9stm32plus11UsbKeyboardIN9OneButton14UsbHidKeyboardEJEE11onInterruptEv+0xa58>)
 80014d4:	401a      	ands	r2, r3
      reg^=USB_EPRX_DTOG2;
 80014d6:	23c0      	movs	r3, #192	; 0xc0
 80014d8:	019b      	lsls	r3, r3, #6
 80014da:	4053      	eors	r3, r2
    *epreg=setRxStatus(value,status) | USB_EP_CTR_RX | USB_EP_CTR_TX;
 80014dc:	4aa9      	ldr	r2, [pc, #676]	; (8001784 <_ZN9stm32plus11UsbKeyboardIN9OneButton14UsbHidKeyboardEJEE11onInterruptEv+0xa5c>)
 80014de:	4313      	orrs	r3, r2
 80014e0:	800b      	strh	r3, [r1, #0]
 80014e2:	e4c8      	b.n	8000e76 <_ZN9stm32plus11UsbKeyboardIN9OneButton14UsbHidKeyboardEJEE11onInterruptEv+0x14e>
    *reg=*reg & (~USB_EP_CTR_RX) & USB_EPREG_MASK;
 80014e4:	8833      	ldrh	r3, [r6, #0]
 80014e6:	4aac      	ldr	r2, [pc, #688]	; (8001798 <_ZN9stm32plus11UsbKeyboardIN9OneButton14UsbHidKeyboardEJEE11onInterruptEv+0xa70>)
  size_type size() const { return __slist_size(this->_M_head._M_next); }
 80014e8:	69ef      	ldr	r7, [r5, #28]
 80014ea:	4013      	ands	r3, r2
 80014ec:	8033      	strh	r3, [r6, #0]
        static_cast<uint16_t>(USBR_BDT[endpointIndex].rx.getCount()));
 80014ee:	4bab      	ldr	r3, [pc, #684]	; (800179c <_ZN9stm32plus11UsbKeyboardIN9OneButton14UsbHidKeyboardEJEE11onInterruptEv+0xa74>)
 80014f0:	18e3      	adds	r3, r4, r3
 80014f2:	00db      	lsls	r3, r3, #3
 80014f4:	9301      	str	r3, [sp, #4]
      return count & 0x3ff;
 80014f6:	88db      	ldrh	r3, [r3, #6]
 80014f8:	059b      	lsls	r3, r3, #22
 80014fa:	0d9b      	lsrs	r3, r3, #22
 80014fc:	469a      	mov	sl, r3
  for ( ; __node != 0; __node = __node->_M_next)
 80014fe:	2f00      	cmp	r7, #0
 8001500:	d03b      	beq.n	800157a <_ZN9stm32plus11UsbKeyboardIN9OneButton14UsbHidKeyboardEJEE11onInterruptEv+0x852>
 8001502:	003b      	movs	r3, r7
 8001504:	2200      	movs	r2, #0
 8001506:	681b      	ldr	r3, [r3, #0]
    ++__result;
 8001508:	3201      	adds	r2, #1
  for ( ; __node != 0; __node = __node->_M_next)
 800150a:	2b00      	cmp	r3, #0
 800150c:	d1fb      	bne.n	8001506 <_ZN9stm32plus11UsbKeyboardIN9OneButton14UsbHidKeyboardEJEE11onInterruptEv+0x7de>
        if(_slots.size()==1)
 800150e:	2a01      	cmp	r2, #1
 8001510:	d01e      	beq.n	8001550 <_ZN9stm32plus11UsbKeyboardIN9OneButton14UsbHidKeyboardEJEE11onInterruptEv+0x828>
 8001512:	ab08      	add	r3, sp, #32
 8001514:	4698      	mov	r8, r3
  return (m_Closure.GetClosureThis()->*(m_Closure.GetClosureMemPtr()))(p1, p2, p3); }
 8001516:	2301      	movs	r3, #1
 8001518:	46a1      	mov	r9, r4
 800151a:	469b      	mov	fp, r3
 800151c:	e00a      	b.n	8001534 <_ZN9stm32plus11UsbKeyboardIN9OneButton14UsbHidKeyboardEJEE11onInterruptEv+0x80c>
 800151e:	105b      	asrs	r3, r3, #1
 8001520:	18c8      	adds	r0, r1, r3
 8001522:	6803      	ldr	r3, [r0, #0]
 8001524:	591c      	ldr	r4, [r3, r4]
 8001526:	4653      	mov	r3, sl
 8001528:	4a9d      	ldr	r2, [pc, #628]	; (80017a0 <_ZN9stm32plus11UsbKeyboardIN9OneButton14UsbHidKeyboardEJEE11onInterruptEv+0xa78>)
 800152a:	4649      	mov	r1, r9
 800152c:	47a0      	blx	r4
  void _M_incr() { _M_node = _M_node->_M_next; }
 800152e:	683f      	ldr	r7, [r7, #0]
          for(auto it=_slots.begin();it!=_slots.end();it++)
 8001530:	2f00      	cmp	r7, #0
 8001532:	d06c      	beq.n	800160e <_ZN9stm32plus11UsbKeyboardIN9OneButton14UsbHidKeyboardEJEE11onInterruptEv+0x8e6>
  inline GenericMemFunc GetClosureMemPtr() const { return reinterpret_cast<GenericMemFunc>(m_pFunction); }
 8001534:	003a      	movs	r2, r7
 8001536:	4643      	mov	r3, r8
 8001538:	3208      	adds	r2, #8
 800153a:	6879      	ldr	r1, [r7, #4]
 800153c:	ca11      	ldmia	r2!, {r0, r4}
 800153e:	c311      	stmia	r3!, {r0, r4}
  return (m_Closure.GetClosureThis()->*(m_Closure.GetClosureMemPtr()))(p1, p2, p3); }
 8001540:	465a      	mov	r2, fp
  inline GenericMemFunc GetClosureMemPtr() const { return reinterpret_cast<GenericMemFunc>(m_pFunction); }
 8001542:	9b09      	ldr	r3, [sp, #36]	; 0x24
 8001544:	9c08      	ldr	r4, [sp, #32]
  return (m_Closure.GetClosureThis()->*(m_Closure.GetClosureMemPtr()))(p1, p2, p3); }
 8001546:	421a      	tst	r2, r3
 8001548:	d1e9      	bne.n	800151e <_ZN9stm32plus11UsbKeyboardIN9OneButton14UsbHidKeyboardEJEE11onInterruptEv+0x7f6>
 800154a:	1058      	asrs	r0, r3, #1
 800154c:	1808      	adds	r0, r1, r0
 800154e:	e7ea      	b.n	8001526 <_ZN9stm32plus11UsbKeyboardIN9OneButton14UsbHidKeyboardEJEE11onInterruptEv+0x7fe>
 8001550:	692b      	ldr	r3, [r5, #16]
  inline GenericMemFunc GetClosureMemPtr() const { return reinterpret_cast<GenericMemFunc>(m_pFunction); }
 8001552:	a906      	add	r1, sp, #24
 8001554:	469c      	mov	ip, r3
 8001556:	002b      	movs	r3, r5
 8001558:	3314      	adds	r3, #20
 800155a:	cb81      	ldmia	r3!, {r0, r7}
 800155c:	c181      	stmia	r1!, {r0, r7}
 800155e:	9b07      	ldr	r3, [sp, #28]
 8001560:	9f06      	ldr	r7, [sp, #24]
  return (m_Closure.GetClosureThis()->*(m_Closure.GetClosureMemPtr()))(p1, p2, p3); }
 8001562:	421a      	tst	r2, r3
 8001564:	d100      	bne.n	8001568 <_ZN9stm32plus11UsbKeyboardIN9OneButton14UsbHidKeyboardEJEE11onInterruptEv+0x840>
 8001566:	e2ab      	b.n	8001ac0 <_ZN9stm32plus11UsbKeyboardIN9OneButton14UsbHidKeyboardEJEE11onInterruptEv+0xd98>
 8001568:	105b      	asrs	r3, r3, #1
 800156a:	4463      	add	r3, ip
 800156c:	0018      	movs	r0, r3
 800156e:	681b      	ldr	r3, [r3, #0]
 8001570:	59df      	ldr	r7, [r3, r7]
 8001572:	4653      	mov	r3, sl
 8001574:	4a8a      	ldr	r2, [pc, #552]	; (80017a0 <_ZN9stm32plus11UsbKeyboardIN9OneButton14UsbHidKeyboardEJEE11onInterruptEv+0xa78>)
 8001576:	0021      	movs	r1, r4
 8001578:	47b8      	blx	r7
        count=wNBlocks << 10;
 800157a:	2380      	movs	r3, #128	; 0x80
 800157c:	9a01      	ldr	r2, [sp, #4]
 800157e:	00db      	lsls	r3, r3, #3
 8001580:	80d3      	strh	r3, [r2, #6]
    value=*epreg & USB_EPRX_DTOGMASK;
 8001582:	8833      	ldrh	r3, [r6, #0]
 8001584:	4a7e      	ldr	r2, [pc, #504]	; (8001780 <_ZN9stm32plus11UsbKeyboardIN9OneButton14UsbHidKeyboardEJEE11onInterruptEv+0xa58>)
 8001586:	401a      	ands	r2, r3
      reg^=USB_EPRX_DTOG2;
 8001588:	23c0      	movs	r3, #192	; 0xc0
 800158a:	019b      	lsls	r3, r3, #6
 800158c:	4053      	eors	r3, r2
    *epreg=setRxStatus(value,status) | USB_EP_CTR_RX | USB_EP_CTR_TX;
 800158e:	4a7d      	ldr	r2, [pc, #500]	; (8001784 <_ZN9stm32plus11UsbKeyboardIN9OneButton14UsbHidKeyboardEJEE11onInterruptEv+0xa5c>)
 8001590:	4313      	orrs	r3, r2
 8001592:	8033      	strh	r3, [r6, #0]
 8001594:	e486      	b.n	8000ea4 <_ZN9stm32plus11UsbKeyboardIN9OneButton14UsbHidKeyboardEJEE11onInterruptEv+0x17c>
  size_type size() const { return __slist_size(this->_M_head._M_next); }
 8001596:	68ee      	ldr	r6, [r5, #12]
  for ( ; __node != 0; __node = __node->_M_next)
 8001598:	2e00      	cmp	r6, #0
 800159a:	d100      	bne.n	800159e <_ZN9stm32plus11UsbKeyboardIN9OneButton14UsbHidKeyboardEJEE11onInterruptEv+0x876>
 800159c:	e456      	b.n	8000e4c <_ZN9stm32plus11UsbKeyboardIN9OneButton14UsbHidKeyboardEJEE11onInterruptEv+0x124>
 800159e:	0033      	movs	r3, r6
 80015a0:	2100      	movs	r1, #0
 80015a2:	681b      	ldr	r3, [r3, #0]
    ++__result;
 80015a4:	3101      	adds	r1, #1
  for ( ; __node != 0; __node = __node->_M_next)
 80015a6:	2b00      	cmp	r3, #0
 80015a8:	d1fb      	bne.n	80015a2 <_ZN9stm32plus11UsbKeyboardIN9OneButton14UsbHidKeyboardEJEE11onInterruptEv+0x87a>
        if(_slots.size()==1)
 80015aa:	2901      	cmp	r1, #1
 80015ac:	d100      	bne.n	80015b0 <_ZN9stm32plus11UsbKeyboardIN9OneButton14UsbHidKeyboardEJEE11onInterruptEv+0x888>
 80015ae:	e209      	b.n	80019c4 <_ZN9stm32plus11UsbKeyboardIN9OneButton14UsbHidKeyboardEJEE11onInterruptEv+0xc9c>
 80015b0:	ab0c      	add	r3, sp, #48	; 0x30
 80015b2:	4698      	mov	r8, r3
 80015b4:	4663      	mov	r3, ip
 80015b6:	191f      	adds	r7, r3, r4
  return (m_Closure.GetClosureThis()->*(m_Closure.GetClosureMemPtr()))(p1, p2); }
 80015b8:	2301      	movs	r3, #1
 80015ba:	46a3      	mov	fp, r4
 80015bc:	4699      	mov	r9, r3
 80015be:	00bf      	lsls	r7, r7, #2
 80015c0:	19ef      	adds	r7, r5, r7
 80015c2:	3742      	adds	r7, #66	; 0x42
 80015c4:	9501      	str	r5, [sp, #4]
  inline GenericMemFunc GetClosureMemPtr() const { return reinterpret_cast<GenericMemFunc>(m_pFunction); }
 80015c6:	0031      	movs	r1, r6
 80015c8:	4643      	mov	r3, r8
 80015ca:	3108      	adds	r1, #8
 80015cc:	883a      	ldrh	r2, [r7, #0]
 80015ce:	6870      	ldr	r0, [r6, #4]
 80015d0:	c930      	ldmia	r1!, {r4, r5}
 80015d2:	c330      	stmia	r3!, {r4, r5}
  return (m_Closure.GetClosureThis()->*(m_Closure.GetClosureMemPtr()))(p1, p2); }
 80015d4:	4649      	mov	r1, r9
  inline GenericMemFunc GetClosureMemPtr() const { return reinterpret_cast<GenericMemFunc>(m_pFunction); }
 80015d6:	9b0c      	ldr	r3, [sp, #48]	; 0x30
 80015d8:	469a      	mov	sl, r3
 80015da:	9b0d      	ldr	r3, [sp, #52]	; 0x34
  return (m_Closure.GetClosureThis()->*(m_Closure.GetClosureMemPtr()))(p1, p2); }
 80015dc:	4219      	tst	r1, r3
 80015de:	d00c      	beq.n	80015fa <_ZN9stm32plus11UsbKeyboardIN9OneButton14UsbHidKeyboardEJEE11onInterruptEv+0x8d2>
 80015e0:	4651      	mov	r1, sl
 80015e2:	105b      	asrs	r3, r3, #1
 80015e4:	18c0      	adds	r0, r0, r3
 80015e6:	6803      	ldr	r3, [r0, #0]
 80015e8:	585b      	ldr	r3, [r3, r1]
 80015ea:	4659      	mov	r1, fp
 80015ec:	4798      	blx	r3
  void _M_incr() { _M_node = _M_node->_M_next; }
 80015ee:	6836      	ldr	r6, [r6, #0]
          for(auto it=_slots.begin();it!=_slots.end();it++)
 80015f0:	2e00      	cmp	r6, #0
 80015f2:	d1e8      	bne.n	80015c6 <_ZN9stm32plus11UsbKeyboardIN9OneButton14UsbHidKeyboardEJEE11onInterruptEv+0x89e>
 80015f4:	9d01      	ldr	r5, [sp, #4]
 80015f6:	f7ff fc29 	bl	8000e4c <_ZN9stm32plus11UsbKeyboardIN9OneButton14UsbHidKeyboardEJEE11onInterruptEv+0x124>
 80015fa:	105b      	asrs	r3, r3, #1
 80015fc:	18c0      	adds	r0, r0, r3
 80015fe:	4659      	mov	r1, fp
 8001600:	47d0      	blx	sl
 8001602:	6836      	ldr	r6, [r6, #0]
 8001604:	2e00      	cmp	r6, #0
 8001606:	d1de      	bne.n	80015c6 <_ZN9stm32plus11UsbKeyboardIN9OneButton14UsbHidKeyboardEJEE11onInterruptEv+0x89e>
 8001608:	9d01      	ldr	r5, [sp, #4]
 800160a:	f7ff fc1f 	bl	8000e4c <_ZN9stm32plus11UsbKeyboardIN9OneButton14UsbHidKeyboardEJEE11onInterruptEv+0x124>
 800160e:	464c      	mov	r4, r9
 8001610:	e7b3      	b.n	800157a <_ZN9stm32plus11UsbKeyboardIN9OneButton14UsbHidKeyboardEJEE11onInterruptEv+0x852>
          notify=UsbStatusType::STATE_DEFAULT;
 8001612:	2705      	movs	r7, #5
      switch(newState) {
 8001614:	2b01      	cmp	r3, #1
 8001616:	d100      	bne.n	800161a <_ZN9stm32plus11UsbKeyboardIN9OneButton14UsbHidKeyboardEJEE11onInterruptEv+0x8f2>
 8001618:	e59b      	b.n	8001152 <_ZN9stm32plus11UsbKeyboardIN9OneButton14UsbHidKeyboardEJEE11onInterruptEv+0x42a>
 800161a:	f7ff fbac 	bl	8000d76 <_ZN9stm32plus11UsbKeyboardIN9OneButton14UsbHidKeyboardEJEE11onInterruptEv+0x4e>
      return count & 0x3ff;
 800161e:	4b56      	ldr	r3, [pc, #344]	; (8001778 <_ZN9stm32plus11UsbKeyboardIN9OneButton14UsbHidKeyboardEJEE11onInterruptEv+0xa50>)
 8001620:	885a      	ldrh	r2, [r3, #2]
    _setupDataLength=USBR_BDT[0].rx.getCount();
 8001622:	2354      	movs	r3, #84	; 0x54
 8001624:	0592      	lsls	r2, r2, #22
 8001626:	0d92      	lsrs	r2, r2, #22
 8001628:	52ea      	strh	r2, [r5, r3]
    _controlEndpointState=ControlEndpointStateType::SETUP;
 800162a:	3b53      	subs	r3, #83	; 0x53
    for(i=(byteCount+1)/2;i>0;i--)
 800162c:	3201      	adds	r2, #1
    _controlEndpointState=ControlEndpointStateType::SETUP;
 800162e:	63ab      	str	r3, [r5, #56]	; 0x38
    for(i=(byteCount+1)/2;i>0;i--)
 8001630:	1052      	asrs	r2, r2, #1
 8001632:	d101      	bne.n	8001638 <_ZN9stm32plus11UsbKeyboardIN9OneButton14UsbHidKeyboardEJEE11onInterruptEv+0x910>
 8001634:	f7ff fbb8 	bl	8000da8 <_ZN9stm32plus11UsbKeyboardIN9OneButton14UsbHidKeyboardEJEE11onInterruptEv+0x80>
 8001638:	4b4d      	ldr	r3, [pc, #308]	; (8001770 <_ZN9stm32plus11UsbKeyboardIN9OneButton14UsbHidKeyboardEJEE11onInterruptEv+0xa48>)
 800163a:	ac28      	add	r4, sp, #160	; 0xa0
      *destptr++=*srcptr++;
 800163c:	4959      	ldr	r1, [pc, #356]	; (80017a4 <_ZN9stm32plus11UsbKeyboardIN9OneButton14UsbHidKeyboardEJEE11onInterruptEv+0xa7c>)
 800163e:	8818      	ldrh	r0, [r3, #0]
 8001640:	1859      	adds	r1, r3, r1
    for(i=(byteCount+1)/2;i>0;i--)
 8001642:	3a01      	subs	r2, #1
      *destptr++=*srcptr++;
 8001644:	5260      	strh	r0, [r4, r1]
 8001646:	3302      	adds	r3, #2
    for(i=(byteCount+1)/2;i>0;i--)
 8001648:	2a00      	cmp	r2, #0
 800164a:	d1f7      	bne.n	800163c <_ZN9stm32plus11UsbKeyboardIN9OneButton14UsbHidKeyboardEJEE11onInterruptEv+0x914>
 800164c:	f7ff fbad 	bl	8000daa <_ZN9stm32plus11UsbKeyboardIN9OneButton14UsbHidKeyboardEJEE11onInterruptEv+0x82>
          notify=UsbStatusType::STATE_ADDRESSED;
 8001650:	2706      	movs	r7, #6
 8001652:	e57e      	b.n	8001152 <_ZN9stm32plus11UsbKeyboardIN9OneButton14UsbHidKeyboardEJEE11onInterruptEv+0x42a>
    switch(header.bRequest) {
 8001654:	2809      	cmp	r0, #9
 8001656:	d809      	bhi.n	800166c <_ZN9stm32plus11UsbKeyboardIN9OneButton14UsbHidKeyboardEJEE11onInterruptEv+0x944>
 8001658:	4b53      	ldr	r3, [pc, #332]	; (80017a8 <_ZN9stm32plus11UsbKeyboardIN9OneButton14UsbHidKeyboardEJEE11onInterruptEv+0xa80>)
 800165a:	0080      	lsls	r0, r0, #2
 800165c:	581b      	ldr	r3, [r3, r0]
 800165e:	469f      	mov	pc, r3
    if((_configurationIndex=header.wValue)>1)    // just one configuration here
 8001660:	235a      	movs	r3, #90	; 0x5a
 8001662:	b2ff      	uxtb	r7, r7
 8001664:	54ef      	strb	r7, [r5, r3]
 8001666:	2f01      	cmp	r7, #1
 8001668:	d800      	bhi.n	800166c <_ZN9stm32plus11UsbKeyboardIN9OneButton14UsbHidKeyboardEJEE11onInterruptEv+0x944>
 800166a:	e257      	b.n	8001b1c <_ZN9stm32plus11UsbKeyboardIN9OneButton14UsbHidKeyboardEJEE11onInterruptEv+0xdf4>
    value=*epreg & USB_EPRX_DTOGMASK;
 800166c:	4943      	ldr	r1, [pc, #268]	; (800177c <_ZN9stm32plus11UsbKeyboardIN9OneButton14UsbHidKeyboardEJEE11onInterruptEv+0xa54>)
 800166e:	4a44      	ldr	r2, [pc, #272]	; (8001780 <_ZN9stm32plus11UsbKeyboardIN9OneButton14UsbHidKeyboardEJEE11onInterruptEv+0xa58>)
 8001670:	880b      	ldrh	r3, [r1, #0]
    value=*epreg & USB_EPTX_DTOGMASK;
 8001672:	4847      	ldr	r0, [pc, #284]	; (8001790 <_ZN9stm32plus11UsbKeyboardIN9OneButton14UsbHidKeyboardEJEE11onInterruptEv+0xa68>)
    value=*epreg & USB_EPRX_DTOGMASK;
 8001674:	401a      	ands	r2, r3
      reg^=USB_EPRX_DTOG1;
 8001676:	2380      	movs	r3, #128	; 0x80
 8001678:	015b      	lsls	r3, r3, #5
 800167a:	4053      	eors	r3, r2
    *epreg=setRxStatus(value,status) | USB_EP_CTR_RX | USB_EP_CTR_TX;
 800167c:	4a45      	ldr	r2, [pc, #276]	; (8001794 <_ZN9stm32plus11UsbKeyboardIN9OneButton14UsbHidKeyboardEJEE11onInterruptEv+0xa6c>)
 800167e:	4313      	orrs	r3, r2
 8001680:	b29b      	uxth	r3, r3
 8001682:	800b      	strh	r3, [r1, #0]
    value=*epreg & USB_EPTX_DTOGMASK;
 8001684:	880b      	ldrh	r3, [r1, #0]
 8001686:	4003      	ands	r3, r0
      reg^=USB_EPTX_DTOG1;
 8001688:	2010      	movs	r0, #16
 800168a:	4043      	eors	r3, r0
    *epreg=setTxStatus(value,status) | USB_EP_CTR_RX | USB_EP_CTR_TX;
 800168c:	431a      	orrs	r2, r3
 800168e:	b292      	uxth	r2, r2
 8001690:	800a      	strh	r2, [r1, #0]
 8001692:	f7ff fbdb 	bl	8000e4c <_ZN9stm32plus11UsbKeyboardIN9OneButton14UsbHidKeyboardEJEE11onInterruptEv+0x124>
    if(header.wLength!=1)
 8001696:	2c01      	cmp	r4, #1
 8001698:	d1e8      	bne.n	800166c <_ZN9stm32plus11UsbKeyboardIN9OneButton14UsbHidKeyboardEJEE11onInterruptEv+0x944>
      switch(_deviceState) {
 800169a:	6b2b      	ldr	r3, [r5, #48]	; 0x30
 800169c:	2b02      	cmp	r3, #2
 800169e:	d100      	bne.n	80016a2 <_ZN9stm32plus11UsbKeyboardIN9OneButton14UsbHidKeyboardEJEE11onInterruptEv+0x97a>
 80016a0:	e30b      	b.n	8001cba <_ZN9stm32plus11UsbKeyboardIN9OneButton14UsbHidKeyboardEJEE11onInterruptEv+0xf92>
 80016a2:	2b03      	cmp	r3, #3
 80016a4:	d111      	bne.n	80016ca <_ZN9stm32plus11UsbKeyboardIN9OneButton14UsbHidKeyboardEJEE11onInterruptEv+0x9a2>
    _controlEndpointState=ControlEndpointStateType::DATA_IN;
 80016a6:	2302      	movs	r3, #2
 80016a8:	63ab      	str	r3, [r5, #56]	; 0x38
          sendControlData(&_configurationIndex,1);
 80016aa:	002b      	movs	r3, r5
 80016ac:	335a      	adds	r3, #90	; 0x5a
    _inEndpointData[endpointIndex].ptr=reinterpret_cast<const uint8_t *>(data);
 80016ae:	63eb      	str	r3, [r5, #60]	; 0x3c
    _inEndpointData[endpointIndex].remaining=length;
 80016b0:	4b3e      	ldr	r3, [pc, #248]	; (80017ac <_ZN9stm32plus11UsbKeyboardIN9OneButton14UsbHidKeyboardEJEE11onInterruptEv+0xa84>)
 80016b2:	f7ff fbc5 	bl	8000e40 <_ZN9stm32plus11UsbKeyboardIN9OneButton14UsbHidKeyboardEJEE11onInterruptEv+0x118>
    switch(header.wValue >> 8) {
 80016b6:	123b      	asrs	r3, r7, #8
 80016b8:	2b02      	cmp	r3, #2
 80016ba:	d100      	bne.n	80016be <_ZN9stm32plus11UsbKeyboardIN9OneButton14UsbHidKeyboardEJEE11onInterruptEv+0x996>
 80016bc:	e2fa      	b.n	8001cb4 <_ZN9stm32plus11UsbKeyboardIN9OneButton14UsbHidKeyboardEJEE11onInterruptEv+0xf8c>
 80016be:	2b03      	cmp	r3, #3
 80016c0:	d100      	bne.n	80016c4 <_ZN9stm32plus11UsbKeyboardIN9OneButton14UsbHidKeyboardEJEE11onInterruptEv+0x99c>
 80016c2:	e2ef      	b.n	8001ca4 <_ZN9stm32plus11UsbKeyboardIN9OneButton14UsbHidKeyboardEJEE11onInterruptEv+0xf7c>
 80016c4:	2b01      	cmp	r3, #1
 80016c6:	d100      	bne.n	80016ca <_ZN9stm32plus11UsbKeyboardIN9OneButton14UsbHidKeyboardEJEE11onInterruptEv+0x9a2>
 80016c8:	e2d2      	b.n	8001c70 <_ZN9stm32plus11UsbKeyboardIN9OneButton14UsbHidKeyboardEJEE11onInterruptEv+0xf48>
    value=*epreg & USB_EPRX_DTOGMASK;
 80016ca:	492c      	ldr	r1, [pc, #176]	; (800177c <_ZN9stm32plus11UsbKeyboardIN9OneButton14UsbHidKeyboardEJEE11onInterruptEv+0xa54>)
 80016cc:	4a2c      	ldr	r2, [pc, #176]	; (8001780 <_ZN9stm32plus11UsbKeyboardIN9OneButton14UsbHidKeyboardEJEE11onInterruptEv+0xa58>)
 80016ce:	880b      	ldrh	r3, [r1, #0]
    value=*epreg & USB_EPTX_DTOGMASK;
 80016d0:	482f      	ldr	r0, [pc, #188]	; (8001790 <_ZN9stm32plus11UsbKeyboardIN9OneButton14UsbHidKeyboardEJEE11onInterruptEv+0xa68>)
    value=*epreg & USB_EPRX_DTOGMASK;
 80016d2:	401a      	ands	r2, r3
      reg^=USB_EPRX_DTOG1;
 80016d4:	2380      	movs	r3, #128	; 0x80
 80016d6:	015b      	lsls	r3, r3, #5
 80016d8:	4053      	eors	r3, r2
    *epreg=setRxStatus(value,status) | USB_EP_CTR_RX | USB_EP_CTR_TX;
 80016da:	4a2e      	ldr	r2, [pc, #184]	; (8001794 <_ZN9stm32plus11UsbKeyboardIN9OneButton14UsbHidKeyboardEJEE11onInterruptEv+0xa6c>)
 80016dc:	4313      	orrs	r3, r2
 80016de:	b29b      	uxth	r3, r3
 80016e0:	800b      	strh	r3, [r1, #0]
    value=*epreg & USB_EPTX_DTOGMASK;
 80016e2:	880b      	ldrh	r3, [r1, #0]
 80016e4:	4018      	ands	r0, r3
      reg^=USB_EPTX_DTOG1;
 80016e6:	2310      	movs	r3, #16
 80016e8:	4043      	eors	r3, r0
    *epreg=setTxStatus(value,status) | USB_EP_CTR_RX | USB_EP_CTR_TX;
 80016ea:	431a      	orrs	r2, r3
 80016ec:	b292      	uxth	r2, r2
 80016ee:	800a      	strh	r2, [r1, #0]
 80016f0:	f7ff fbac 	bl	8000e4c <_ZN9stm32plus11UsbKeyboardIN9OneButton14UsbHidKeyboardEJEE11onInterruptEv+0x124>
    if(header.wIndex==0 && header.wLength==0) {
 80016f4:	4663      	mov	r3, ip
 80016f6:	2b00      	cmp	r3, #0
 80016f8:	d1b8      	bne.n	800166c <_ZN9stm32plus11UsbKeyboardIN9OneButton14UsbHidKeyboardEJEE11onInterruptEv+0x944>
 80016fa:	2c00      	cmp	r4, #0
 80016fc:	d1b6      	bne.n	800166c <_ZN9stm32plus11UsbKeyboardIN9OneButton14UsbHidKeyboardEJEE11onInterruptEv+0x944>
      if(_deviceState==DeviceStateType::CONFIGURED)
 80016fe:	6b2b      	ldr	r3, [r5, #48]	; 0x30
 8001700:	2b03      	cmp	r3, #3
 8001702:	d0e2      	beq.n	80016ca <_ZN9stm32plus11UsbKeyboardIN9OneButton14UsbHidKeyboardEJEE11onInterruptEv+0x9a2>
        address=header.wValue & 0x7F;
 8001704:	237f      	movs	r3, #127	; 0x7f
 8001706:	401f      	ands	r7, r3
    if(address==0)
 8001708:	d000      	beq.n	800170c <_ZN9stm32plus11UsbKeyboardIN9OneButton14UsbHidKeyboardEJEE11onInterruptEv+0x9e4>
 800170a:	e2e7      	b.n	8001cdc <_ZN9stm32plus11UsbKeyboardIN9OneButton14UsbHidKeyboardEJEE11onInterruptEv+0xfb4>
      USBR->DADDR=USB_DADDR_EF;
 800170c:	2180      	movs	r1, #128	; 0x80
 800170e:	4a1b      	ldr	r2, [pc, #108]	; (800177c <_ZN9stm32plus11UsbKeyboardIN9OneButton14UsbHidKeyboardEJEE11onInterruptEv+0xa54>)
 8001710:	3b33      	subs	r3, #51	; 0x33
 8001712:	52d1      	strh	r1, [r2, r3]
    _inEndpointData[endpointIndex].total=length;
 8001714:	4662      	mov	r2, ip
    _controlEndpointState=ControlEndpointStateType::STATUS_IN;
 8001716:	3b48      	subs	r3, #72	; 0x48
 8001718:	63ab      	str	r3, [r5, #56]	; 0x38
    _inEndpointData[endpointIndex].total=length;
 800171a:	333e      	adds	r3, #62	; 0x3e
 800171c:	52ea      	strh	r2, [r5, r3]
    _inEndpointData[endpointIndex].remaining=length;
 800171e:	3b02      	subs	r3, #2
 8001720:	52ea      	strh	r2, [r5, r3]
    _inEndpointData[endpointIndex].ptr=reinterpret_cast<const uint8_t *>(data);
 8001722:	4662      	mov	r2, ip
 8001724:	63ea      	str	r2, [r5, #60]	; 0x3c
    _inEndpointData[endpointIndex].pmaAddress=pmaInAddress;
 8001726:	2246      	movs	r2, #70	; 0x46
 8001728:	3928      	subs	r1, #40	; 0x28
 800172a:	52a9      	strh	r1, [r5, r2]
    _inEndpointData[endpointIndex].maxPacketSize=maxPacketSize;
 800172c:	3a02      	subs	r2, #2
 800172e:	52ab      	strh	r3, [r5, r2]
    continueSendData(endpointIndex);
 8001730:	0028      	movs	r0, r5
 8001732:	f7fe fd27 	bl	8000184 <_ZN9stm32plus11UsbKeyboardIN9OneButton14UsbHidKeyboardEJEE16continueSendDataEh.constprop.82>
    if(_deviceState!=newState) {
 8001736:	6b2b      	ldr	r3, [r5, #48]	; 0x30
 8001738:	2b01      	cmp	r3, #1
 800173a:	d101      	bne.n	8001740 <_ZN9stm32plus11UsbKeyboardIN9OneButton14UsbHidKeyboardEJEE11onInterruptEv+0xa18>
 800173c:	f7ff fb86 	bl	8000e4c <_ZN9stm32plus11UsbKeyboardIN9OneButton14UsbHidKeyboardEJEE11onInterruptEv+0x124>
      _deviceState=newState;
 8001740:	2301      	movs	r3, #1
 8001742:	632b      	str	r3, [r5, #48]	; 0x30
          notify=UsbStatusType::STATE_DEFAULT;
 8001744:	3304      	adds	r3, #4
 8001746:	9324      	str	r3, [sp, #144]	; 0x90

        default:
          return;
      }

      UsbStatusEventSender.raiseEvent(notify);
 8001748:	0028      	movs	r0, r5
 800174a:	a924      	add	r1, sp, #144	; 0x90
 800174c:	3020      	adds	r0, #32
 800174e:	f7ff f97f 	bl	8000a50 <_ZNK4wink6signalINS_4slotIFvN9stm32plus13UsbStatusTypeEEEEE10raiseEventIJRS3_EEEvDpOT_>
 8001752:	f7ff fb7b 	bl	8000e4c <_ZN9stm32plus11UsbKeyboardIN9OneButton14UsbHidKeyboardEJEE11onInterruptEv+0x124>
    if(header.wValue==USB_FEATURE_REMOTE_WAKEUP) {
 8001756:	2f01      	cmp	r7, #1
 8001758:	d001      	beq.n	800175e <_ZN9stm32plus11UsbKeyboardIN9OneButton14UsbHidKeyboardEJEE11onInterruptEv+0xa36>
 800175a:	f7ff fb77 	bl	8000e4c <_ZN9stm32plus11UsbKeyboardIN9OneButton14UsbHidKeyboardEJEE11onInterruptEv+0x124>
      _remoteWakeup=true;
 800175e:	235b      	movs	r3, #91	; 0x5b
 8001760:	54ef      	strb	r7, [r5, r3]
    _controlEndpointState=ControlEndpointStateType::STATUS_IN;
 8001762:	3b57      	subs	r3, #87	; 0x57
 8001764:	63ab      	str	r3, [r5, #56]	; 0x38
    _inEndpointData[endpointIndex].ptr=reinterpret_cast<const uint8_t *>(data);
 8001766:	2300      	movs	r3, #0
 8001768:	63eb      	str	r3, [r5, #60]	; 0x3c
 800176a:	f7ff fb69 	bl	8000e40 <_ZN9stm32plus11UsbKeyboardIN9OneButton14UsbHidKeyboardEJEE11onInterruptEv+0x118>
 800176e:	46c0      	nop			; (mov r8, r8)
 8001770:	40006018 	.word	0x40006018
 8001774:	ffff8400 	.word	0xffff8400
 8001778:	40006004 	.word	0x40006004
 800177c:	40005c00 	.word	0x40005c00
 8001780:	ffffbf8f 	.word	0xffffbf8f
 8001784:	00008080 	.word	0x00008080
 8001788:	00580040 	.word	0x00580040
 800178c:	40006000 	.word	0x40006000
 8001790:	ffff8fbf 	.word	0xffff8fbf
 8001794:	ffff8080 	.word	0xffff8080
 8001798:	00000f8f 	.word	0x00000f8f
 800179c:	08000c00 	.word	0x08000c00
 80017a0:	400060d8 	.word	0x400060d8
 80017a4:	bfff9fe8 	.word	0xbfff9fe8
 80017a8:	080030ac 	.word	0x080030ac
 80017ac:	00010001 	.word	0x00010001
    if(_deviceState==DeviceStateType::ADDRESSED || _deviceState==DeviceStateType::CONFIGURED) {
 80017b0:	6b2b      	ldr	r3, [r5, #48]	; 0x30
 80017b2:	3b02      	subs	r3, #2
 80017b4:	2b01      	cmp	r3, #1
 80017b6:	d901      	bls.n	80017bc <_ZN9stm32plus11UsbKeyboardIN9OneButton14UsbHidKeyboardEJEE11onInterruptEv+0xa94>
 80017b8:	f7ff fb48 	bl	8000e4c <_ZN9stm32plus11UsbKeyboardIN9OneButton14UsbHidKeyboardEJEE11onInterruptEv+0x124>
      status=0;
 80017bc:	2200      	movs	r2, #0
 80017be:	4bcb      	ldr	r3, [pc, #812]	; (8001aec <_ZN9stm32plus11UsbKeyboardIN9OneButton14UsbHidKeyboardEJEE11onInterruptEv+0xdc4>)
 80017c0:	701a      	strb	r2, [r3, #0]
      if(_remoteWakeup)
 80017c2:	325b      	adds	r2, #91	; 0x5b
 80017c4:	5caa      	ldrb	r2, [r5, r2]
 80017c6:	2a00      	cmp	r2, #0
 80017c8:	d001      	beq.n	80017ce <_ZN9stm32plus11UsbKeyboardIN9OneButton14UsbHidKeyboardEJEE11onInterruptEv+0xaa6>
        status|=USB_CONFIG_REMOTE_WAKEUP;
 80017ca:	2202      	movs	r2, #2
 80017cc:	701a      	strb	r2, [r3, #0]
    _controlEndpointState=ControlEndpointStateType::DATA_IN;
 80017ce:	2202      	movs	r2, #2
 80017d0:	63aa      	str	r2, [r5, #56]	; 0x38
 80017d2:	e76c      	b.n	80016ae <_ZN9stm32plus11UsbKeyboardIN9OneButton14UsbHidKeyboardEJEE11onInterruptEv+0x986>
    if(_deviceState==DeviceStateType::ADDRESSED || _deviceState==DeviceStateType::CONFIGURED) {
 80017d4:	6b2b      	ldr	r3, [r5, #48]	; 0x30
 80017d6:	3b02      	subs	r3, #2
 80017d8:	2b01      	cmp	r3, #1
 80017da:	d900      	bls.n	80017de <_ZN9stm32plus11UsbKeyboardIN9OneButton14UsbHidKeyboardEJEE11onInterruptEv+0xab6>
 80017dc:	e746      	b.n	800166c <_ZN9stm32plus11UsbKeyboardIN9OneButton14UsbHidKeyboardEJEE11onInterruptEv+0x944>
      if(header.wValue==USB_FEATURE_REMOTE_WAKEUP) {
 80017de:	2f01      	cmp	r7, #1
 80017e0:	d001      	beq.n	80017e6 <_ZN9stm32plus11UsbKeyboardIN9OneButton14UsbHidKeyboardEJEE11onInterruptEv+0xabe>
 80017e2:	f7ff fb33 	bl	8000e4c <_ZN9stm32plus11UsbKeyboardIN9OneButton14UsbHidKeyboardEJEE11onInterruptEv+0x124>
        _remoteWakeup=false;
 80017e6:	2300      	movs	r3, #0
 80017e8:	225b      	movs	r2, #91	; 0x5b
 80017ea:	54ab      	strb	r3, [r5, r2]
    _controlEndpointState=ControlEndpointStateType::STATUS_IN;
 80017ec:	3a57      	subs	r2, #87	; 0x57
 80017ee:	63aa      	str	r2, [r5, #56]	; 0x38
    _inEndpointData[endpointIndex].ptr=reinterpret_cast<const uint8_t *>(data);
 80017f0:	63eb      	str	r3, [r5, #60]	; 0x3c
 80017f2:	f7ff fb25 	bl	8000e40 <_ZN9stm32plus11UsbKeyboardIN9OneButton14UsbHidKeyboardEJEE11onInterruptEv+0x118>
          notify=UsbStatusType::STATE_CONFIGURED;
 80017f6:	2707      	movs	r7, #7
 80017f8:	e4ab      	b.n	8001152 <_ZN9stm32plus11UsbKeyboardIN9OneButton14UsbHidKeyboardEJEE11onInterruptEv+0x42a>
 80017fa:	6a28      	ldr	r0, [r5, #32]
  inline GenericMemFunc GetClosureMemPtr() const { return reinterpret_cast<GenericMemFunc>(m_pFunction); }
 80017fc:	ab26      	add	r3, sp, #152	; 0x98
 80017fe:	3524      	adds	r5, #36	; 0x24
 8001800:	cd12      	ldmia	r5!, {r1, r4}
 8001802:	c312      	stmia	r3!, {r1, r4}
 8001804:	9b27      	ldr	r3, [sp, #156]	; 0x9c
 8001806:	9c26      	ldr	r4, [sp, #152]	; 0x98
  return (m_Closure.GetClosureThis()->*(m_Closure.GetClosureMemPtr()))(p1); }
 8001808:	421a      	tst	r2, r3
 800180a:	d100      	bne.n	800180e <_ZN9stm32plus11UsbKeyboardIN9OneButton14UsbHidKeyboardEJEE11onInterruptEv+0xae6>
 800180c:	e0cb      	b.n	80019a6 <_ZN9stm32plus11UsbKeyboardIN9OneButton14UsbHidKeyboardEJEE11onInterruptEv+0xc7e>
 800180e:	105b      	asrs	r3, r3, #1
 8001810:	18c0      	adds	r0, r0, r3
 8001812:	6803      	ldr	r3, [r0, #0]
 8001814:	591c      	ldr	r4, [r3, r4]
 8001816:	2104      	movs	r1, #4
 8001818:	47a0      	blx	r4
 800181a:	f7ff fabe 	bl	8000d9a <_ZN9stm32plus11UsbKeyboardIN9OneButton14UsbHidKeyboardEJEE11onInterruptEv+0x72>
  inline GenericMemFunc GetClosureMemPtr() const { return reinterpret_cast<GenericMemFunc>(m_pFunction); }
 800181e:	002b      	movs	r3, r5
 8001820:	a90e      	add	r1, sp, #56	; 0x38
 8001822:	3324      	adds	r3, #36	; 0x24
 8001824:	6a28      	ldr	r0, [r5, #32]
 8001826:	cb50      	ldmia	r3!, {r4, r6}
 8001828:	c150      	stmia	r1!, {r4, r6}
 800182a:	9b0f      	ldr	r3, [sp, #60]	; 0x3c
 800182c:	9c0e      	ldr	r4, [sp, #56]	; 0x38
  return (m_Closure.GetClosureThis()->*(m_Closure.GetClosureMemPtr()))(p1); }
 800182e:	421a      	tst	r2, r3
 8001830:	d100      	bne.n	8001834 <_ZN9stm32plus11UsbKeyboardIN9OneButton14UsbHidKeyboardEJEE11onInterruptEv+0xb0c>
 8001832:	e0bb      	b.n	80019ac <_ZN9stm32plus11UsbKeyboardIN9OneButton14UsbHidKeyboardEJEE11onInterruptEv+0xc84>
 8001834:	105b      	asrs	r3, r3, #1
 8001836:	18c0      	adds	r0, r0, r3
 8001838:	6803      	ldr	r3, [r0, #0]
 800183a:	591c      	ldr	r4, [r3, r4]
 800183c:	2100      	movs	r1, #0
 800183e:	47a0      	blx	r4
 8001840:	f7ff fa87 	bl	8000d52 <_ZN9stm32plus11UsbKeyboardIN9OneButton14UsbHidKeyboardEJEE11onInterruptEv+0x2a>
    if((length=ep.remaining)>ep.maxPacketSize)
 8001844:	5a6e      	ldrh	r6, [r5, r1]
 8001846:	0030      	movs	r0, r6
 8001848:	42b3      	cmp	r3, r6
 800184a:	dc01      	bgt.n	8001850 <_ZN9stm32plus11UsbKeyboardIN9OneButton14UsbHidKeyboardEJEE11onInterruptEv+0xb28>
 800184c:	0018      	movs	r0, r3
 800184e:	001e      	movs	r6, r3
    pdwVal=reinterpret_cast<uint16_t *>(BTABLE_BASE+ep.pmaAddress);
 8001850:	2246      	movs	r2, #70	; 0x46
 8001852:	5aac      	ldrh	r4, [r5, r2]
 8001854:	4aa6      	ldr	r2, [pc, #664]	; (8001af0 <_ZN9stm32plus11UsbKeyboardIN9OneButton14UsbHidKeyboardEJEE11onInterruptEv+0xdc8>)
    n=(length+1)/2;
 8001856:	3001      	adds	r0, #1
    pdwVal=reinterpret_cast<uint16_t *>(BTABLE_BASE+ep.pmaAddress);
 8001858:	4694      	mov	ip, r2
    n=(length+1)/2;
 800185a:	1040      	asrs	r0, r0, #1
    pdwVal=reinterpret_cast<uint16_t *>(BTABLE_BASE+ep.pmaAddress);
 800185c:	4464      	add	r4, ip
    dataBytes=ep.ptr;
 800185e:	6be9      	ldr	r1, [r5, #60]	; 0x3c
    for(i=n;i!=0;i--) {
 8001860:	2800      	cmp	r0, #0
 8001862:	d00c      	beq.n	800187e <_ZN9stm32plus11UsbKeyboardIN9OneButton14UsbHidKeyboardEJEE11onInterruptEv+0xb56>
      word=dataBytes[0] | ((uint16_t)dataBytes[1] << 8);
 8001864:	784a      	ldrb	r2, [r1, #1]
 8001866:	780b      	ldrb	r3, [r1, #0]
 8001868:	0212      	lsls	r2, r2, #8
 800186a:	4313      	orrs	r3, r2
    for(i=n;i!=0;i--) {
 800186c:	3801      	subs	r0, #1
      *pdwVal++=word;
 800186e:	8023      	strh	r3, [r4, #0]
      dataBytes+=2;
 8001870:	3102      	adds	r1, #2
 8001872:	3402      	adds	r4, #2
    for(i=n;i!=0;i--) {
 8001874:	2800      	cmp	r0, #0
 8001876:	d1f5      	bne.n	8001864 <_ZN9stm32plus11UsbKeyboardIN9OneButton14UsbHidKeyboardEJEE11onInterruptEv+0xb3c>
 8001878:	2340      	movs	r3, #64	; 0x40
 800187a:	6be9      	ldr	r1, [r5, #60]	; 0x3c
 800187c:	5aeb      	ldrh	r3, [r5, r3]
    ep.remaining-=length;
 800187e:	2240      	movs	r2, #64	; 0x40
    ep.ptr+=length;
 8001880:	1989      	adds	r1, r1, r6
    ep.remaining-=length;
 8001882:	1b9b      	subs	r3, r3, r6
    ep.ptr+=length;
 8001884:	63e9      	str	r1, [r5, #60]	; 0x3c
    ep.remaining-=length;
 8001886:	52ab      	strh	r3, [r5, r2]
    USBR_BDT[endpointIndex].tx.count=length;
 8001888:	4b99      	ldr	r3, [pc, #612]	; (8001af0 <_ZN9stm32plus11UsbKeyboardIN9OneButton14UsbHidKeyboardEJEE11onInterruptEv+0xdc8>)
    value=*epreg & USB_EPTX_DTOGMASK;
 800188a:	499a      	ldr	r1, [pc, #616]	; (8001af4 <_ZN9stm32plus11UsbKeyboardIN9OneButton14UsbHidKeyboardEJEE11onInterruptEv+0xdcc>)
    USBR_BDT[endpointIndex].tx.count=length;
 800188c:	805e      	strh	r6, [r3, #2]
    value=*epreg & USB_EPTX_DTOGMASK;
 800188e:	880b      	ldrh	r3, [r1, #0]
 8001890:	4a99      	ldr	r2, [pc, #612]	; (8001af8 <_ZN9stm32plus11UsbKeyboardIN9OneButton14UsbHidKeyboardEJEE11onInterruptEv+0xdd0>)
        count=wNBlocks << 10;
 8001892:	2000      	movs	r0, #0
 8001894:	4013      	ands	r3, r2
      reg^=USB_EPTX_DTOG2;
 8001896:	2230      	movs	r2, #48	; 0x30
 8001898:	4053      	eors	r3, r2
    *epreg=setTxStatus(value,status) | USB_EP_CTR_RX | USB_EP_CTR_TX;
 800189a:	4a98      	ldr	r2, [pc, #608]	; (8001afc <_ZN9stm32plus11UsbKeyboardIN9OneButton14UsbHidKeyboardEJEE11onInterruptEv+0xdd4>)
 800189c:	4313      	orrs	r3, r2
 800189e:	b29b      	uxth	r3, r3
 80018a0:	800b      	strh	r3, [r1, #0]
 80018a2:	4b97      	ldr	r3, [pc, #604]	; (8001b00 <_ZN9stm32plus11UsbKeyboardIN9OneButton14UsbHidKeyboardEJEE11onInterruptEv+0xdd8>)
 80018a4:	8058      	strh	r0, [r3, #2]
    value=*epreg & USB_EPRX_DTOGMASK;
 80018a6:	880b      	ldrh	r3, [r1, #0]
 80018a8:	4896      	ldr	r0, [pc, #600]	; (8001b04 <_ZN9stm32plus11UsbKeyboardIN9OneButton14UsbHidKeyboardEJEE11onInterruptEv+0xddc>)
 80018aa:	4018      	ands	r0, r3
      reg^=USB_EPRX_DTOG2;
 80018ac:	23c0      	movs	r3, #192	; 0xc0
 80018ae:	019b      	lsls	r3, r3, #6
 80018b0:	4043      	eors	r3, r0
    *epreg=setRxStatus(value,status) | USB_EP_CTR_RX | USB_EP_CTR_TX;
 80018b2:	431a      	orrs	r2, r3
 80018b4:	b292      	uxth	r2, r2
 80018b6:	800a      	strh	r2, [r1, #0]
 80018b8:	f7ff fadd 	bl	8000e76 <_ZN9stm32plus11UsbKeyboardIN9OneButton14UsbHidKeyboardEJEE11onInterruptEv+0x14e>
  inline GenericMemFunc GetClosureMemPtr() const { return reinterpret_cast<GenericMemFunc>(m_pFunction); }
 80018bc:	002b      	movs	r3, r5
 80018be:	a922      	add	r1, sp, #136	; 0x88
 80018c0:	3324      	adds	r3, #36	; 0x24
 80018c2:	6a28      	ldr	r0, [r5, #32]
 80018c4:	cb50      	ldmia	r3!, {r4, r6}
 80018c6:	c150      	stmia	r1!, {r4, r6}
 80018c8:	9b23      	ldr	r3, [sp, #140]	; 0x8c
 80018ca:	9c22      	ldr	r4, [sp, #136]	; 0x88
  return (m_Closure.GetClosureThis()->*(m_Closure.GetClosureMemPtr()))(p1); }
 80018cc:	421a      	tst	r2, r3
 80018ce:	d076      	beq.n	80019be <_ZN9stm32plus11UsbKeyboardIN9OneButton14UsbHidKeyboardEJEE11onInterruptEv+0xc96>
 80018d0:	105b      	asrs	r3, r3, #1
 80018d2:	18c0      	adds	r0, r0, r3
 80018d4:	6803      	ldr	r3, [r0, #0]
 80018d6:	591c      	ldr	r4, [r3, r4]
 80018d8:	2103      	movs	r1, #3
 80018da:	47a0      	blx	r4
 80018dc:	f7ff fa57 	bl	8000d8e <_ZN9stm32plus11UsbKeyboardIN9OneButton14UsbHidKeyboardEJEE11onInterruptEv+0x66>
  inline GenericMemFunc GetClosureMemPtr() const { return reinterpret_cast<GenericMemFunc>(m_pFunction); }
 80018e0:	002b      	movs	r3, r5
 80018e2:	a912      	add	r1, sp, #72	; 0x48
 80018e4:	3324      	adds	r3, #36	; 0x24
 80018e6:	6a28      	ldr	r0, [r5, #32]
 80018e8:	cb50      	ldmia	r3!, {r4, r6}
 80018ea:	c150      	stmia	r1!, {r4, r6}
 80018ec:	9b13      	ldr	r3, [sp, #76]	; 0x4c
 80018ee:	9c12      	ldr	r4, [sp, #72]	; 0x48
  return (m_Closure.GetClosureThis()->*(m_Closure.GetClosureMemPtr()))(p1); }
 80018f0:	421a      	tst	r2, r3
 80018f2:	d05e      	beq.n	80019b2 <_ZN9stm32plus11UsbKeyboardIN9OneButton14UsbHidKeyboardEJEE11onInterruptEv+0xc8a>
 80018f4:	105b      	asrs	r3, r3, #1
 80018f6:	18c0      	adds	r0, r0, r3
 80018f8:	6803      	ldr	r3, [r0, #0]
 80018fa:	591c      	ldr	r4, [r3, r4]
 80018fc:	2101      	movs	r1, #1
 80018fe:	47a0      	blx	r4
 8001900:	f7ff fa2d 	bl	8000d5e <_ZN9stm32plus11UsbKeyboardIN9OneButton14UsbHidKeyboardEJEE11onInterruptEv+0x36>
  inline GenericMemFunc GetClosureMemPtr() const { return reinterpret_cast<GenericMemFunc>(m_pFunction); }
 8001904:	002b      	movs	r3, r5
 8001906:	a916      	add	r1, sp, #88	; 0x58
 8001908:	3324      	adds	r3, #36	; 0x24
 800190a:	6a28      	ldr	r0, [r5, #32]
 800190c:	cb50      	ldmia	r3!, {r4, r6}
 800190e:	c150      	stmia	r1!, {r4, r6}
 8001910:	9b17      	ldr	r3, [sp, #92]	; 0x5c
 8001912:	9c16      	ldr	r4, [sp, #88]	; 0x58
  return (m_Closure.GetClosureThis()->*(m_Closure.GetClosureMemPtr()))(p1); }
 8001914:	421a      	tst	r2, r3
 8001916:	d04f      	beq.n	80019b8 <_ZN9stm32plus11UsbKeyboardIN9OneButton14UsbHidKeyboardEJEE11onInterruptEv+0xc90>
 8001918:	105b      	asrs	r3, r3, #1
 800191a:	18c0      	adds	r0, r0, r3
 800191c:	6803      	ldr	r3, [r0, #0]
 800191e:	591c      	ldr	r4, [r3, r4]
 8001920:	2101      	movs	r1, #1
 8001922:	47a0      	blx	r4
 8001924:	f7ff fa21 	bl	8000d6a <_ZN9stm32plus11UsbKeyboardIN9OneButton14UsbHidKeyboardEJEE11onInterruptEv+0x42>
    value=*epreg & USB_EPRX_DTOGMASK;
 8001928:	8813      	ldrh	r3, [r2, #0]
 800192a:	4976      	ldr	r1, [pc, #472]	; (8001b04 <_ZN9stm32plus11UsbKeyboardIN9OneButton14UsbHidKeyboardEJEE11onInterruptEv+0xddc>)
 800192c:	4019      	ands	r1, r3
      reg^=USB_EPRX_DTOG1;
 800192e:	2380      	movs	r3, #128	; 0x80
 8001930:	015b      	lsls	r3, r3, #5
 8001932:	404b      	eors	r3, r1
    *epreg=setRxStatus(value,status) | USB_EP_CTR_RX | USB_EP_CTR_TX;
 8001934:	4974      	ldr	r1, [pc, #464]	; (8001b08 <_ZN9stm32plus11UsbKeyboardIN9OneButton14UsbHidKeyboardEJEE11onInterruptEv+0xde0>)
 8001936:	430b      	orrs	r3, r1
 8001938:	8013      	strh	r3, [r2, #0]
 800193a:	f7ff fa87 	bl	8000e4c <_ZN9stm32plus11UsbKeyboardIN9OneButton14UsbHidKeyboardEJEE11onInterruptEv+0x124>
  inline GenericMemFunc GetClosureMemPtr() const { return reinterpret_cast<GenericMemFunc>(m_pFunction); }
 800193e:	002b      	movs	r3, r5
 8001940:	a91a      	add	r1, sp, #104	; 0x68
 8001942:	3324      	adds	r3, #36	; 0x24
 8001944:	6a28      	ldr	r0, [r5, #32]
 8001946:	cb50      	ldmia	r3!, {r4, r6}
 8001948:	c150      	stmia	r1!, {r4, r6}
 800194a:	9b1b      	ldr	r3, [sp, #108]	; 0x6c
 800194c:	9c1a      	ldr	r4, [sp, #104]	; 0x68
  return (m_Closure.GetClosureThis()->*(m_Closure.GetClosureMemPtr()))(p1); }
 800194e:	421a      	tst	r2, r3
 8001950:	d051      	beq.n	80019f6 <_ZN9stm32plus11UsbKeyboardIN9OneButton14UsbHidKeyboardEJEE11onInterruptEv+0xcce>
 8001952:	105b      	asrs	r3, r3, #1
 8001954:	18c0      	adds	r0, r0, r3
 8001956:	6803      	ldr	r3, [r0, #0]
 8001958:	591c      	ldr	r4, [r3, r4]
 800195a:	0039      	movs	r1, r7
 800195c:	47a0      	blx	r4
 800195e:	f7ff fa0a 	bl	8000d76 <_ZN9stm32plus11UsbKeyboardIN9OneButton14UsbHidKeyboardEJEE11onInterruptEv+0x4e>
    if(_deviceState==DeviceStateType::CONFIGURED && (header.wIndex & 0xff)<=1)
 8001962:	6b2b      	ldr	r3, [r5, #48]	; 0x30
 8001964:	2b03      	cmp	r3, #3
 8001966:	d000      	beq.n	800196a <_ZN9stm32plus11UsbKeyboardIN9OneButton14UsbHidKeyboardEJEE11onInterruptEv+0xc42>
 8001968:	e680      	b.n	800166c <_ZN9stm32plus11UsbKeyboardIN9OneButton14UsbHidKeyboardEJEE11onInterruptEv+0x944>
 800196a:	4662      	mov	r2, ip
 800196c:	33fc      	adds	r3, #252	; 0xfc
 800196e:	4013      	ands	r3, r2
 8001970:	2b01      	cmp	r3, #1
 8001972:	d900      	bls.n	8001976 <_ZN9stm32plus11UsbKeyboardIN9OneButton14UsbHidKeyboardEJEE11onInterruptEv+0xc4e>
 8001974:	e67a      	b.n	800166c <_ZN9stm32plus11UsbKeyboardIN9OneButton14UsbHidKeyboardEJEE11onInterruptEv+0x944>
      handleSetup(header);
 8001976:	0031      	movs	r1, r6
 8001978:	0028      	movs	r0, r5
 800197a:	f7ff f8b1 	bl	8000ae0 <_ZN9stm32plus11UsbKeyboardIN9OneButton14UsbHidKeyboardEJEE11handleSetupERKNS_14UsbSetupHeaderE>
 800197e:	f7ff fa65 	bl	8000e4c <_ZN9stm32plus11UsbKeyboardIN9OneButton14UsbHidKeyboardEJEE11onInterruptEv+0x124>
  inline GenericMemFunc GetClosureMemPtr() const { return reinterpret_cast<GenericMemFunc>(m_pFunction); }
 8001982:	0029      	movs	r1, r5
 8001984:	ab1e      	add	r3, sp, #120	; 0x78
 8001986:	3124      	adds	r1, #36	; 0x24
 8001988:	6a28      	ldr	r0, [r5, #32]
 800198a:	c950      	ldmia	r1!, {r4, r6}
 800198c:	c350      	stmia	r3!, {r4, r6}
 800198e:	9b1f      	ldr	r3, [sp, #124]	; 0x7c
 8001990:	9c1e      	ldr	r4, [sp, #120]	; 0x78
  return (m_Closure.GetClosureThis()->*(m_Closure.GetClosureMemPtr()))(p1); }
 8001992:	421a      	tst	r2, r3
 8001994:	d032      	beq.n	80019fc <_ZN9stm32plus11UsbKeyboardIN9OneButton14UsbHidKeyboardEJEE11onInterruptEv+0xcd4>
 8001996:	105b      	asrs	r3, r3, #1
 8001998:	18c0      	adds	r0, r0, r3
 800199a:	6803      	ldr	r3, [r0, #0]
 800199c:	591c      	ldr	r4, [r3, r4]
 800199e:	2108      	movs	r1, #8
 80019a0:	47a0      	blx	r4
 80019a2:	f7ff f9ee 	bl	8000d82 <_ZN9stm32plus11UsbKeyboardIN9OneButton14UsbHidKeyboardEJEE11onInterruptEv+0x5a>
 80019a6:	105b      	asrs	r3, r3, #1
 80019a8:	18c0      	adds	r0, r0, r3
 80019aa:	e734      	b.n	8001816 <_ZN9stm32plus11UsbKeyboardIN9OneButton14UsbHidKeyboardEJEE11onInterruptEv+0xaee>
 80019ac:	105b      	asrs	r3, r3, #1
 80019ae:	18c0      	adds	r0, r0, r3
 80019b0:	e744      	b.n	800183c <_ZN9stm32plus11UsbKeyboardIN9OneButton14UsbHidKeyboardEJEE11onInterruptEv+0xb14>
 80019b2:	105b      	asrs	r3, r3, #1
 80019b4:	18c0      	adds	r0, r0, r3
 80019b6:	e7a1      	b.n	80018fc <_ZN9stm32plus11UsbKeyboardIN9OneButton14UsbHidKeyboardEJEE11onInterruptEv+0xbd4>
 80019b8:	105b      	asrs	r3, r3, #1
 80019ba:	18c0      	adds	r0, r0, r3
 80019bc:	e7b0      	b.n	8001920 <_ZN9stm32plus11UsbKeyboardIN9OneButton14UsbHidKeyboardEJEE11onInterruptEv+0xbf8>
 80019be:	105b      	asrs	r3, r3, #1
 80019c0:	18c0      	adds	r0, r0, r3
 80019c2:	e789      	b.n	80018d8 <_ZN9stm32plus11UsbKeyboardIN9OneButton14UsbHidKeyboardEJEE11onInterruptEv+0xbb0>
 80019c4:	4663      	mov	r3, ip
 80019c6:	191b      	adds	r3, r3, r4
 80019c8:	009b      	lsls	r3, r3, #2
 80019ca:	18eb      	adds	r3, r5, r3
 80019cc:	3342      	adds	r3, #66	; 0x42
 80019ce:	881b      	ldrh	r3, [r3, #0]
  inline GenericMemFunc GetClosureMemPtr() const { return reinterpret_cast<GenericMemFunc>(m_pFunction); }
 80019d0:	ae0a      	add	r6, sp, #40	; 0x28
 80019d2:	469c      	mov	ip, r3
 80019d4:	002b      	movs	r3, r5
 80019d6:	cb01      	ldmia	r3!, {r0}
 80019d8:	cb84      	ldmia	r3!, {r2, r7}
 80019da:	c684      	stmia	r6!, {r2, r7}
 80019dc:	9b0b      	ldr	r3, [sp, #44]	; 0x2c
 80019de:	9e0a      	ldr	r6, [sp, #40]	; 0x28
  return (m_Closure.GetClosureThis()->*(m_Closure.GetClosureMemPtr()))(p1, p2); }
 80019e0:	4219      	tst	r1, r3
 80019e2:	d071      	beq.n	8001ac8 <_ZN9stm32plus11UsbKeyboardIN9OneButton14UsbHidKeyboardEJEE11onInterruptEv+0xda0>
 80019e4:	105b      	asrs	r3, r3, #1
 80019e6:	18c0      	adds	r0, r0, r3
 80019e8:	6803      	ldr	r3, [r0, #0]
 80019ea:	599e      	ldr	r6, [r3, r6]
 80019ec:	4662      	mov	r2, ip
 80019ee:	0021      	movs	r1, r4
 80019f0:	47b0      	blx	r6
 80019f2:	f7ff fa2b 	bl	8000e4c <_ZN9stm32plus11UsbKeyboardIN9OneButton14UsbHidKeyboardEJEE11onInterruptEv+0x124>
 80019f6:	105b      	asrs	r3, r3, #1
 80019f8:	18c0      	adds	r0, r0, r3
 80019fa:	e7ae      	b.n	800195a <_ZN9stm32plus11UsbKeyboardIN9OneButton14UsbHidKeyboardEJEE11onInterruptEv+0xc32>
 80019fc:	105b      	asrs	r3, r3, #1
 80019fe:	18c0      	adds	r0, r0, r3
 8001a00:	e7cd      	b.n	800199e <_ZN9stm32plus11UsbKeyboardIN9OneButton14UsbHidKeyboardEJEE11onInterruptEv+0xc76>
    value=*epreg & USB_EPRX_DTOGMASK;
 8001a02:	8813      	ldrh	r3, [r2, #0]
 8001a04:	493f      	ldr	r1, [pc, #252]	; (8001b04 <_ZN9stm32plus11UsbKeyboardIN9OneButton14UsbHidKeyboardEJEE11onInterruptEv+0xddc>)
    value=*epreg & USB_EPTX_DTOGMASK;
 8001a06:	483c      	ldr	r0, [pc, #240]	; (8001af8 <_ZN9stm32plus11UsbKeyboardIN9OneButton14UsbHidKeyboardEJEE11onInterruptEv+0xdd0>)
    value=*epreg & USB_EPRX_DTOGMASK;
 8001a08:	4019      	ands	r1, r3
      reg^=USB_EPRX_DTOG1;
 8001a0a:	2380      	movs	r3, #128	; 0x80
 8001a0c:	015b      	lsls	r3, r3, #5
 8001a0e:	404b      	eors	r3, r1
    *epreg=setRxStatus(value,status) | USB_EP_CTR_RX | USB_EP_CTR_TX;
 8001a10:	493a      	ldr	r1, [pc, #232]	; (8001afc <_ZN9stm32plus11UsbKeyboardIN9OneButton14UsbHidKeyboardEJEE11onInterruptEv+0xdd4>)
 8001a12:	430b      	orrs	r3, r1
 8001a14:	b29b      	uxth	r3, r3
 8001a16:	8013      	strh	r3, [r2, #0]
    value=*epreg & USB_EPTX_DTOGMASK;
 8001a18:	8813      	ldrh	r3, [r2, #0]
 8001a1a:	4003      	ands	r3, r0
      reg^=USB_EPTX_DTOG1;
 8001a1c:	2010      	movs	r0, #16
 8001a1e:	4043      	eors	r3, r0
    *epreg=setTxStatus(value,status) | USB_EP_CTR_RX | USB_EP_CTR_TX;
 8001a20:	4319      	orrs	r1, r3
 8001a22:	b289      	uxth	r1, r1
 8001a24:	8011      	strh	r1, [r2, #0]
 8001a26:	f7ff fa11 	bl	8000e4c <_ZN9stm32plus11UsbKeyboardIN9OneButton14UsbHidKeyboardEJEE11onInterruptEv+0x124>
              if((ep_addr & 0x7f)!=0)
 8001a2a:	064b      	lsls	r3, r1, #25
 8001a2c:	d101      	bne.n	8001a32 <_ZN9stm32plus11UsbKeyboardIN9OneButton14UsbHidKeyboardEJEE11onInterruptEv+0xd0a>
 8001a2e:	f7ff fa0d 	bl	8000e4c <_ZN9stm32plus11UsbKeyboardIN9OneButton14UsbHidKeyboardEJEE11onInterruptEv+0x124>
                stallEndpoint(ep_addr);
 8001a32:	0008      	movs	r0, r1
 8001a34:	f7fe fbe2 	bl	80001fc <_ZNK9stm32plus11UsbKeyboardIN9OneButton14UsbHidKeyboardEJEE13stallEndpointEh.isra.42>
 8001a38:	f7ff fa08 	bl	8000e4c <_ZN9stm32plus11UsbKeyboardIN9OneButton14UsbHidKeyboardEJEE11onInterruptEv+0x124>
          switch (_deviceState) {
 8001a3c:	6b2b      	ldr	r3, [r5, #48]	; 0x30
 8001a3e:	2b02      	cmp	r3, #2
 8001a40:	d0f3      	beq.n	8001a2a <_ZN9stm32plus11UsbKeyboardIN9OneButton14UsbHidKeyboardEJEE11onInterruptEv+0xd02>
 8001a42:	2b03      	cmp	r3, #3
 8001a44:	d1dd      	bne.n	8001a02 <_ZN9stm32plus11UsbKeyboardIN9OneButton14UsbHidKeyboardEJEE11onInterruptEv+0xcda>
    endpointIndex=epAddr & 0x7f;
 8001a46:	207f      	movs	r0, #127	; 0x7f
    if((epAddr & 0x80)==0x80 || endpointIndex==0) {
 8001a48:	4663      	mov	r3, ip
    endpointIndex=epAddr & 0x7f;
 8001a4a:	4008      	ands	r0, r1
    if((epAddr & 0x80)==0x80 || endpointIndex==0) {
 8001a4c:	061b      	lsls	r3, r3, #24
 8001a4e:	d441      	bmi.n	8001ad4 <_ZN9stm32plus11UsbKeyboardIN9OneButton14UsbHidKeyboardEJEE11onInterruptEv+0xdac>
 8001a50:	2800      	cmp	r0, #0
 8001a52:	d03f      	beq.n	8001ad4 <_ZN9stm32plus11UsbKeyboardIN9OneButton14UsbHidKeyboardEJEE11onInterruptEv+0xdac>
      status=getRxEndpointStatus(&USBR->EP0R+endpointIndex*2);
 8001a54:	4b2d      	ldr	r3, [pc, #180]	; (8001b0c <_ZN9stm32plus11UsbKeyboardIN9OneButton14UsbHidKeyboardEJEE11onInterruptEv+0xde4>)
      return status==USB_EP_RX_STALL;
 8001a56:	22c0      	movs	r2, #192	; 0xc0
      status=getRxEndpointStatus(&USBR->EP0R+endpointIndex*2);
 8001a58:	469c      	mov	ip, r3
 8001a5a:	4460      	add	r0, ip
 8001a5c:	0080      	lsls	r0, r0, #2
    return *epreg & USB_EPRX_STAT;
 8001a5e:	8803      	ldrh	r3, [r0, #0]
      return status==USB_EP_RX_STALL;
 8001a60:	0192      	lsls	r2, r2, #6
 8001a62:	4013      	ands	r3, r2
 8001a64:	4a2a      	ldr	r2, [pc, #168]	; (8001b10 <_ZN9stm32plus11UsbKeyboardIN9OneButton14UsbHidKeyboardEJEE11onInterruptEv+0xde8>)
 8001a66:	4694      	mov	ip, r2
 8001a68:	4463      	add	r3, ip
 8001a6a:	4259      	negs	r1, r3
 8001a6c:	4159      	adcs	r1, r3
 8001a6e:	b2cb      	uxtb	r3, r1
              status=isStalled(ep_addr) ? 1 : 0;
 8001a70:	4a28      	ldr	r2, [pc, #160]	; (8001b14 <_ZN9stm32plus11UsbKeyboardIN9OneButton14UsbHidKeyboardEJEE11onInterruptEv+0xdec>)
 8001a72:	8013      	strh	r3, [r2, #0]
    _controlEndpointState=ControlEndpointStateType::DATA_IN;
 8001a74:	2302      	movs	r3, #2
    _inEndpointData[endpointIndex].ptr=reinterpret_cast<const uint8_t *>(data);
 8001a76:	63ea      	str	r2, [r5, #60]	; 0x3c
    _controlEndpointState=ControlEndpointStateType::DATA_IN;
 8001a78:	63ab      	str	r3, [r5, #56]	; 0x38
    _inEndpointData[endpointIndex].remaining=length;
 8001a7a:	4b27      	ldr	r3, [pc, #156]	; (8001b18 <_ZN9stm32plus11UsbKeyboardIN9OneButton14UsbHidKeyboardEJEE11onInterruptEv+0xdf0>)
 8001a7c:	f7ff f9e0 	bl	8000e40 <_ZN9stm32plus11UsbKeyboardIN9OneButton14UsbHidKeyboardEJEE11onInterruptEv+0x118>
          switch (_deviceState) {
 8001a80:	6b2b      	ldr	r3, [r5, #48]	; 0x30
 8001a82:	2b02      	cmp	r3, #2
 8001a84:	d0d1      	beq.n	8001a2a <_ZN9stm32plus11UsbKeyboardIN9OneButton14UsbHidKeyboardEJEE11onInterruptEv+0xd02>
 8001a86:	2b03      	cmp	r3, #3
 8001a88:	d1bb      	bne.n	8001a02 <_ZN9stm32plus11UsbKeyboardIN9OneButton14UsbHidKeyboardEJEE11onInterruptEv+0xcda>
              if(header.wValue==USB_FEATURE_EP_HALT) {
 8001a8a:	2f00      	cmp	r7, #0
 8001a8c:	d001      	beq.n	8001a92 <_ZN9stm32plus11UsbKeyboardIN9OneButton14UsbHidKeyboardEJEE11onInterruptEv+0xd6a>
 8001a8e:	f7ff f9dd 	bl	8000e4c <_ZN9stm32plus11UsbKeyboardIN9OneButton14UsbHidKeyboardEJEE11onInterruptEv+0x124>
 8001a92:	207f      	movs	r0, #127	; 0x7f
 8001a94:	4008      	ands	r0, r1
                if((ep_addr & 0x7f)!=0) {
 8001a96:	d101      	bne.n	8001a9c <_ZN9stm32plus11UsbKeyboardIN9OneButton14UsbHidKeyboardEJEE11onInterruptEv+0xd74>
 8001a98:	f7ff f9d8 	bl	8000e4c <_ZN9stm32plus11UsbKeyboardIN9OneButton14UsbHidKeyboardEJEE11onInterruptEv+0x124>
    if((epAddr & 0x80)==0x80 || endpointIndex==0)
 8001a9c:	4663      	mov	r3, ip
 8001a9e:	061b      	lsls	r3, r3, #24
 8001aa0:	d500      	bpl.n	8001aa4 <_ZN9stm32plus11UsbKeyboardIN9OneButton14UsbHidKeyboardEJEE11onInterruptEv+0xd7c>
 8001aa2:	e10e      	b.n	8001cc2 <_ZN9stm32plus11UsbKeyboardIN9OneButton14UsbHidKeyboardEJEE11onInterruptEv+0xf9a>
      setRxEndpointStatus(&USBR->EP0R+endpointIndex*2,USB_EP_RX_STALL);
 8001aa4:	4b19      	ldr	r3, [pc, #100]	; (8001b0c <_ZN9stm32plus11UsbKeyboardIN9OneButton14UsbHidKeyboardEJEE11onInterruptEv+0xde4>)
    value=*epreg & USB_EPRX_DTOGMASK;
 8001aa6:	4a17      	ldr	r2, [pc, #92]	; (8001b04 <_ZN9stm32plus11UsbKeyboardIN9OneButton14UsbHidKeyboardEJEE11onInterruptEv+0xddc>)
      setRxEndpointStatus(&USBR->EP0R+endpointIndex*2,USB_EP_RX_STALL);
 8001aa8:	469c      	mov	ip, r3
 8001aaa:	4460      	add	r0, ip
 8001aac:	0080      	lsls	r0, r0, #2
    value=*epreg & USB_EPRX_DTOGMASK;
 8001aae:	8803      	ldrh	r3, [r0, #0]
 8001ab0:	401a      	ands	r2, r3
      reg^=USB_EPRX_DTOG1;
 8001ab2:	2380      	movs	r3, #128	; 0x80
 8001ab4:	015b      	lsls	r3, r3, #5
 8001ab6:	4053      	eors	r3, r2
    *epreg=setRxStatus(value,status) | USB_EP_CTR_RX | USB_EP_CTR_TX;
 8001ab8:	4a13      	ldr	r2, [pc, #76]	; (8001b08 <_ZN9stm32plus11UsbKeyboardIN9OneButton14UsbHidKeyboardEJEE11onInterruptEv+0xde0>)
 8001aba:	4313      	orrs	r3, r2
 8001abc:	8003      	strh	r3, [r0, #0]
 8001abe:	e75a      	b.n	8001976 <_ZN9stm32plus11UsbKeyboardIN9OneButton14UsbHidKeyboardEJEE11onInterruptEv+0xc4e>
 8001ac0:	105b      	asrs	r3, r3, #1
 8001ac2:	4463      	add	r3, ip
 8001ac4:	0018      	movs	r0, r3
 8001ac6:	e554      	b.n	8001572 <_ZN9stm32plus11UsbKeyboardIN9OneButton14UsbHidKeyboardEJEE11onInterruptEv+0x84a>
 8001ac8:	105b      	asrs	r3, r3, #1
 8001aca:	18c0      	adds	r0, r0, r3
 8001acc:	e78e      	b.n	80019ec <_ZN9stm32plus11UsbKeyboardIN9OneButton14UsbHidKeyboardEJEE11onInterruptEv+0xcc4>
 8001ace:	105b      	asrs	r3, r3, #1
 8001ad0:	18c0      	adds	r0, r0, r3
 8001ad2:	e4a6      	b.n	8001422 <_ZN9stm32plus11UsbKeyboardIN9OneButton14UsbHidKeyboardEJEE11onInterruptEv+0x6fa>
      status=getTxEndpointStatus(&USBR->EP0R+endpointIndex*2);
 8001ad4:	4b0d      	ldr	r3, [pc, #52]	; (8001b0c <_ZN9stm32plus11UsbKeyboardIN9OneButton14UsbHidKeyboardEJEE11onInterruptEv+0xde4>)
 8001ad6:	469c      	mov	ip, r3
      return status==USB_EP_TX_STALL;
 8001ad8:	2330      	movs	r3, #48	; 0x30
      status=getTxEndpointStatus(&USBR->EP0R+endpointIndex*2);
 8001ada:	4460      	add	r0, ip
 8001adc:	0080      	lsls	r0, r0, #2
    return *epreg & USB_EPTX_STAT;
 8001ade:	8802      	ldrh	r2, [r0, #0]
      return status==USB_EP_TX_STALL;
 8001ae0:	4013      	ands	r3, r2
 8001ae2:	3b10      	subs	r3, #16
 8001ae4:	4259      	negs	r1, r3
 8001ae6:	4159      	adcs	r1, r3
 8001ae8:	b2cb      	uxtb	r3, r1
 8001aea:	e7c1      	b.n	8001a70 <_ZN9stm32plus11UsbKeyboardIN9OneButton14UsbHidKeyboardEJEE11onInterruptEv+0xd48>
 8001aec:	2000086c 	.word	0x2000086c
 8001af0:	40006000 	.word	0x40006000
 8001af4:	40005c00 	.word	0x40005c00
 8001af8:	ffff8fbf 	.word	0xffff8fbf
 8001afc:	ffff8080 	.word	0xffff8080
 8001b00:	40006004 	.word	0x40006004
 8001b04:	ffffbf8f 	.word	0xffffbf8f
 8001b08:	00008080 	.word	0x00008080
 8001b0c:	10001700 	.word	0x10001700
 8001b10:	fffff000 	.word	0xfffff000
 8001b14:	2000086e 	.word	0x2000086e
 8001b18:	00020002 	.word	0x00020002
      switch(_deviceState) {
 8001b1c:	6b2b      	ldr	r3, [r5, #48]	; 0x30
 8001b1e:	2b02      	cmp	r3, #2
 8001b20:	d041      	beq.n	8001ba6 <_ZN9stm32plus11UsbKeyboardIN9OneButton14UsbHidKeyboardEJEE11onInterruptEv+0xe7e>
 8001b22:	2b03      	cmp	r3, #3
 8001b24:	d000      	beq.n	8001b28 <_ZN9stm32plus11UsbKeyboardIN9OneButton14UsbHidKeyboardEJEE11onInterruptEv+0xe00>
 8001b26:	e5d0      	b.n	80016ca <_ZN9stm32plus11UsbKeyboardIN9OneButton14UsbHidKeyboardEJEE11onInterruptEv+0x9a2>
          if(_configurationIndex==0) {
 8001b28:	2f00      	cmp	r7, #0
 8001b2a:	d001      	beq.n	8001b30 <_ZN9stm32plus11UsbKeyboardIN9OneButton14UsbHidKeyboardEJEE11onInterruptEv+0xe08>
 8001b2c:	f7ff f984 	bl	8000e38 <_ZN9stm32plus11UsbKeyboardIN9OneButton14UsbHidKeyboardEJEE11onInterruptEv+0x110>
    if((*reg & USB_EP_DTOG_TX)!=0)
 8001b30:	4a7e      	ldr	r2, [pc, #504]	; (8001d2c <_ZN9stm32plus11UsbKeyboardIN9OneButton14UsbHidKeyboardEJEE11onInterruptEv+0x1004>)
 8001b32:	8813      	ldrh	r3, [r2, #0]
 8001b34:	065b      	lsls	r3, r3, #25
 8001b36:	d505      	bpl.n	8001b44 <_ZN9stm32plus11UsbKeyboardIN9OneButton14UsbHidKeyboardEJEE11onInterruptEv+0xe1c>
      *reg=(*reg & USB_EPREG_MASK) | USB_EP_CTR_RX | USB_EP_CTR_TX | USB_EP_DTOG_TX;
 8001b38:	8813      	ldrh	r3, [r2, #0]
 8001b3a:	497d      	ldr	r1, [pc, #500]	; (8001d30 <_ZN9stm32plus11UsbKeyboardIN9OneButton14UsbHidKeyboardEJEE11onInterruptEv+0x1008>)
 8001b3c:	400b      	ands	r3, r1
 8001b3e:	497d      	ldr	r1, [pc, #500]	; (8001d34 <_ZN9stm32plus11UsbKeyboardIN9OneButton14UsbHidKeyboardEJEE11onInterruptEv+0x100c>)
 8001b40:	430b      	orrs	r3, r1
 8001b42:	8013      	strh	r3, [r2, #0]
    value=*epreg & USB_EPTX_DTOGMASK;
 8001b44:	4b79      	ldr	r3, [pc, #484]	; (8001d2c <_ZN9stm32plus11UsbKeyboardIN9OneButton14UsbHidKeyboardEJEE11onInterruptEv+0x1004>)
 8001b46:	497c      	ldr	r1, [pc, #496]	; (8001d38 <_ZN9stm32plus11UsbKeyboardIN9OneButton14UsbHidKeyboardEJEE11onInterruptEv+0x1010>)
 8001b48:	881a      	ldrh	r2, [r3, #0]
 8001b4a:	400a      	ands	r2, r1
    *epreg=setTxStatus(value,status) | USB_EP_CTR_RX | USB_EP_CTR_TX;
 8001b4c:	497b      	ldr	r1, [pc, #492]	; (8001d3c <_ZN9stm32plus11UsbKeyboardIN9OneButton14UsbHidKeyboardEJEE11onInterruptEv+0x1014>)
 8001b4e:	430a      	orrs	r2, r1
 8001b50:	801a      	strh	r2, [r3, #0]
    if((*reg & USB_EP_DTOG_RX)!=0)
 8001b52:	881a      	ldrh	r2, [r3, #0]
 8001b54:	0452      	lsls	r2, r2, #17
 8001b56:	d505      	bpl.n	8001b64 <_ZN9stm32plus11UsbKeyboardIN9OneButton14UsbHidKeyboardEJEE11onInterruptEv+0xe3c>
      *reg=(*reg & USB_EPREG_MASK) | USB_EP_CTR_RX | USB_EP_CTR_TX | USB_EP_DTOG_RX;
 8001b58:	881a      	ldrh	r2, [r3, #0]
 8001b5a:	4975      	ldr	r1, [pc, #468]	; (8001d30 <_ZN9stm32plus11UsbKeyboardIN9OneButton14UsbHidKeyboardEJEE11onInterruptEv+0x1008>)
 8001b5c:	400a      	ands	r2, r1
 8001b5e:	4978      	ldr	r1, [pc, #480]	; (8001d40 <_ZN9stm32plus11UsbKeyboardIN9OneButton14UsbHidKeyboardEJEE11onInterruptEv+0x1018>)
 8001b60:	430a      	orrs	r2, r1
 8001b62:	801a      	strh	r2, [r3, #0]
    value=*epreg & USB_EPRX_DTOGMASK;
 8001b64:	4a71      	ldr	r2, [pc, #452]	; (8001d2c <_ZN9stm32plus11UsbKeyboardIN9OneButton14UsbHidKeyboardEJEE11onInterruptEv+0x1004>)
 8001b66:	4977      	ldr	r1, [pc, #476]	; (8001d44 <_ZN9stm32plus11UsbKeyboardIN9OneButton14UsbHidKeyboardEJEE11onInterruptEv+0x101c>)
 8001b68:	8813      	ldrh	r3, [r2, #0]
    continueSendData(endpointIndex);
 8001b6a:	0028      	movs	r0, r5
    value=*epreg & USB_EPRX_DTOGMASK;
 8001b6c:	400b      	ands	r3, r1
    *epreg=setRxStatus(value,status) | USB_EP_CTR_RX | USB_EP_CTR_TX;
 8001b6e:	4973      	ldr	r1, [pc, #460]	; (8001d3c <_ZN9stm32plus11UsbKeyboardIN9OneButton14UsbHidKeyboardEJEE11onInterruptEv+0x1014>)
 8001b70:	430b      	orrs	r3, r1
 8001b72:	8013      	strh	r3, [r2, #0]
    _controlEndpointState=ControlEndpointStateType::STATUS_IN;
 8001b74:	2304      	movs	r3, #4
    _inEndpointData[endpointIndex].total=length;
 8001b76:	2242      	movs	r2, #66	; 0x42
    _controlEndpointState=ControlEndpointStateType::STATUS_IN;
 8001b78:	63ab      	str	r3, [r5, #56]	; 0x38
    _inEndpointData[endpointIndex].total=length;
 8001b7a:	2300      	movs	r3, #0
    _inEndpointData[endpointIndex].pmaAddress=pmaInAddress;
 8001b7c:	2158      	movs	r1, #88	; 0x58
    _inEndpointData[endpointIndex].total=length;
 8001b7e:	52ab      	strh	r3, [r5, r2]
    _inEndpointData[endpointIndex].remaining=length;
 8001b80:	3a02      	subs	r2, #2
 8001b82:	52ab      	strh	r3, [r5, r2]
    _inEndpointData[endpointIndex].ptr=reinterpret_cast<const uint8_t *>(data);
 8001b84:	63eb      	str	r3, [r5, #60]	; 0x3c
    _inEndpointData[endpointIndex].pmaAddress=pmaInAddress;
 8001b86:	3346      	adds	r3, #70	; 0x46
 8001b88:	52e9      	strh	r1, [r5, r3]
    _inEndpointData[endpointIndex].maxPacketSize=maxPacketSize;
 8001b8a:	3b02      	subs	r3, #2
 8001b8c:	52ea      	strh	r2, [r5, r3]
    continueSendData(endpointIndex);
 8001b8e:	f7fe faf9 	bl	8000184 <_ZN9stm32plus11UsbKeyboardIN9OneButton14UsbHidKeyboardEJEE16continueSendDataEh.constprop.82>
    if(_deviceState!=newState) {
 8001b92:	6b2b      	ldr	r3, [r5, #48]	; 0x30
 8001b94:	2b02      	cmp	r3, #2
 8001b96:	d101      	bne.n	8001b9c <_ZN9stm32plus11UsbKeyboardIN9OneButton14UsbHidKeyboardEJEE11onInterruptEv+0xe74>
 8001b98:	f7ff f958 	bl	8000e4c <_ZN9stm32plus11UsbKeyboardIN9OneButton14UsbHidKeyboardEJEE11onInterruptEv+0x124>
      _deviceState=newState;
 8001b9c:	2302      	movs	r3, #2
 8001b9e:	632b      	str	r3, [r5, #48]	; 0x30
          notify=UsbStatusType::STATE_CONFIGURED;
 8001ba0:	3304      	adds	r3, #4
 8001ba2:	9324      	str	r3, [sp, #144]	; 0x90
 8001ba4:	e5d0      	b.n	8001748 <_ZN9stm32plus11UsbKeyboardIN9OneButton14UsbHidKeyboardEJEE11onInterruptEv+0xa20>
          if(_configurationIndex) {
 8001ba6:	2f00      	cmp	r7, #0
 8001ba8:	d101      	bne.n	8001bae <_ZN9stm32plus11UsbKeyboardIN9OneButton14UsbHidKeyboardEJEE11onInterruptEv+0xe86>
 8001baa:	f7ff f945 	bl	8000e38 <_ZN9stm32plus11UsbKeyboardIN9OneButton14UsbHidKeyboardEJEE11onInterruptEv+0x110>
    *reg=(*reg & USB_EP_T_MASK) | type;
 8001bae:	4b5f      	ldr	r3, [pc, #380]	; (8001d2c <_ZN9stm32plus11UsbKeyboardIN9OneButton14UsbHidKeyboardEJEE11onInterruptEv+0x1004>)
 8001bb0:	4965      	ldr	r1, [pc, #404]	; (8001d48 <_ZN9stm32plus11UsbKeyboardIN9OneButton14UsbHidKeyboardEJEE11onInterruptEv+0x1020>)
 8001bb2:	881a      	ldrh	r2, [r3, #0]
 8001bb4:	4011      	ands	r1, r2
 8001bb6:	22c0      	movs	r2, #192	; 0xc0
 8001bb8:	00d2      	lsls	r2, r2, #3
 8001bba:	430a      	orrs	r2, r1
 8001bbc:	801a      	strh	r2, [r3, #0]
    *reg=(*reg & USB_EPREG_MASK) | addr | USB_EP_CTR_TX;
 8001bbe:	881a      	ldrh	r2, [r3, #0]
 8001bc0:	4962      	ldr	r1, [pc, #392]	; (8001d4c <_ZN9stm32plus11UsbKeyboardIN9OneButton14UsbHidKeyboardEJEE11onInterruptEv+0x1024>)
 8001bc2:	4011      	ands	r1, r2
 8001bc4:	2281      	movs	r2, #129	; 0x81
 8001bc6:	430a      	orrs	r2, r1
    USBR_BDT[addr].tx.addr=pmaAddress;
 8001bc8:	2198      	movs	r1, #152	; 0x98
    *reg=(*reg & USB_EPREG_MASK) | addr | USB_EP_CTR_TX;
 8001bca:	801a      	strh	r2, [r3, #0]
    USBR_BDT[addr].tx.addr=pmaAddress;
 8001bcc:	4a60      	ldr	r2, [pc, #384]	; (8001d50 <_ZN9stm32plus11UsbKeyboardIN9OneButton14UsbHidKeyboardEJEE11onInterruptEv+0x1028>)
 8001bce:	8011      	strh	r1, [r2, #0]
    if((*reg & USB_EP_DTOG_TX)!=0)
 8001bd0:	881a      	ldrh	r2, [r3, #0]
 8001bd2:	0652      	lsls	r2, r2, #25
 8001bd4:	d505      	bpl.n	8001be2 <_ZN9stm32plus11UsbKeyboardIN9OneButton14UsbHidKeyboardEJEE11onInterruptEv+0xeba>
      *reg=(*reg & USB_EPREG_MASK) | USB_EP_CTR_TX | USB_EP_DTOG_TX;
 8001bd6:	881a      	ldrh	r2, [r3, #0]
 8001bd8:	495e      	ldr	r1, [pc, #376]	; (8001d54 <_ZN9stm32plus11UsbKeyboardIN9OneButton14UsbHidKeyboardEJEE11onInterruptEv+0x102c>)
 8001bda:	4011      	ands	r1, r2
 8001bdc:	22c0      	movs	r2, #192	; 0xc0
 8001bde:	430a      	orrs	r2, r1
 8001be0:	801a      	strh	r2, [r3, #0]
    value=*epreg & USB_EPTX_DTOGMASK;
 8001be2:	4b52      	ldr	r3, [pc, #328]	; (8001d2c <_ZN9stm32plus11UsbKeyboardIN9OneButton14UsbHidKeyboardEJEE11onInterruptEv+0x1004>)
 8001be4:	4954      	ldr	r1, [pc, #336]	; (8001d38 <_ZN9stm32plus11UsbKeyboardIN9OneButton14UsbHidKeyboardEJEE11onInterruptEv+0x1010>)
 8001be6:	881a      	ldrh	r2, [r3, #0]
 8001be8:	4011      	ands	r1, r2
      reg^=USB_EPTX_DTOG2;
 8001bea:	2220      	movs	r2, #32
 8001bec:	404a      	eors	r2, r1
    *epreg=setTxStatus(value,status) | USB_EP_CTR_RX | USB_EP_CTR_TX;
 8001bee:	4953      	ldr	r1, [pc, #332]	; (8001d3c <_ZN9stm32plus11UsbKeyboardIN9OneButton14UsbHidKeyboardEJEE11onInterruptEv+0x1014>)
 8001bf0:	430a      	orrs	r2, r1
 8001bf2:	801a      	strh	r2, [r3, #0]
    *reg=(*reg & USB_EP_T_MASK) | type;
 8001bf4:	881a      	ldrh	r2, [r3, #0]
 8001bf6:	4954      	ldr	r1, [pc, #336]	; (8001d48 <_ZN9stm32plus11UsbKeyboardIN9OneButton14UsbHidKeyboardEJEE11onInterruptEv+0x1020>)
 8001bf8:	4011      	ands	r1, r2
 8001bfa:	22c0      	movs	r2, #192	; 0xc0
 8001bfc:	00d2      	lsls	r2, r2, #3
 8001bfe:	430a      	orrs	r2, r1
 8001c00:	801a      	strh	r2, [r3, #0]
    *reg=(*reg & USB_EPREG_MASK) | addr | USB_EP_CTR_RX;
 8001c02:	881a      	ldrh	r2, [r3, #0]
 8001c04:	4951      	ldr	r1, [pc, #324]	; (8001d4c <_ZN9stm32plus11UsbKeyboardIN9OneButton14UsbHidKeyboardEJEE11onInterruptEv+0x1024>)
 8001c06:	400a      	ands	r2, r1
 8001c08:	4953      	ldr	r1, [pc, #332]	; (8001d58 <_ZN9stm32plus11UsbKeyboardIN9OneButton14UsbHidKeyboardEJEE11onInterruptEv+0x1030>)
 8001c0a:	430a      	orrs	r2, r1
    USBR_BDT[addr].rx.addr=pmaAddress;
 8001c0c:	21d8      	movs	r1, #216	; 0xd8
    *reg=(*reg & USB_EPREG_MASK) | addr | USB_EP_CTR_RX;
 8001c0e:	801a      	strh	r2, [r3, #0]
    USBR_BDT[addr].rx.addr=pmaAddress;
 8001c10:	4a4f      	ldr	r2, [pc, #316]	; (8001d50 <_ZN9stm32plus11UsbKeyboardIN9OneButton14UsbHidKeyboardEJEE11onInterruptEv+0x1028>)
 8001c12:	8091      	strh	r1, [r2, #4]
 8001c14:	2180      	movs	r1, #128	; 0x80
 8001c16:	00c9      	lsls	r1, r1, #3
 8001c18:	80d1      	strh	r1, [r2, #6]
    if((*reg & USB_EP_DTOG_RX)!=0)
 8001c1a:	881a      	ldrh	r2, [r3, #0]
 8001c1c:	0452      	lsls	r2, r2, #17
 8001c1e:	d506      	bpl.n	8001c2e <_ZN9stm32plus11UsbKeyboardIN9OneButton14UsbHidKeyboardEJEE11onInterruptEv+0xf06>
      *reg=(*reg & USB_EPREG_MASK) | USB_EP_CTR_RX | USB_EP_DTOG_RX;
 8001c20:	881a      	ldrh	r2, [r3, #0]
 8001c22:	494e      	ldr	r1, [pc, #312]	; (8001d5c <_ZN9stm32plus11UsbKeyboardIN9OneButton14UsbHidKeyboardEJEE11onInterruptEv+0x1034>)
 8001c24:	400a      	ands	r2, r1
 8001c26:	21c0      	movs	r1, #192	; 0xc0
 8001c28:	0209      	lsls	r1, r1, #8
 8001c2a:	430a      	orrs	r2, r1
 8001c2c:	801a      	strh	r2, [r3, #0]
    value=*epreg & USB_EPRX_DTOGMASK;
 8001c2e:	493f      	ldr	r1, [pc, #252]	; (8001d2c <_ZN9stm32plus11UsbKeyboardIN9OneButton14UsbHidKeyboardEJEE11onInterruptEv+0x1004>)
 8001c30:	4a44      	ldr	r2, [pc, #272]	; (8001d44 <_ZN9stm32plus11UsbKeyboardIN9OneButton14UsbHidKeyboardEJEE11onInterruptEv+0x101c>)
 8001c32:	880b      	ldrh	r3, [r1, #0]
    continueSendData(endpointIndex);
 8001c34:	0028      	movs	r0, r5
    value=*epreg & USB_EPRX_DTOGMASK;
 8001c36:	401a      	ands	r2, r3
      reg^=USB_EPRX_DTOG2;
 8001c38:	23c0      	movs	r3, #192	; 0xc0
 8001c3a:	019b      	lsls	r3, r3, #6
 8001c3c:	4053      	eors	r3, r2
    *epreg=setRxStatus(value,status) | USB_EP_CTR_RX | USB_EP_CTR_TX;
 8001c3e:	4a3f      	ldr	r2, [pc, #252]	; (8001d3c <_ZN9stm32plus11UsbKeyboardIN9OneButton14UsbHidKeyboardEJEE11onInterruptEv+0x1014>)
 8001c40:	4313      	orrs	r3, r2
 8001c42:	800b      	strh	r3, [r1, #0]
    _controlEndpointState=ControlEndpointStateType::STATUS_IN;
 8001c44:	2304      	movs	r3, #4
    _inEndpointData[endpointIndex].total=length;
 8001c46:	2242      	movs	r2, #66	; 0x42
    _controlEndpointState=ControlEndpointStateType::STATUS_IN;
 8001c48:	63ab      	str	r3, [r5, #56]	; 0x38
    _inEndpointData[endpointIndex].total=length;
 8001c4a:	2300      	movs	r3, #0
    _inEndpointData[endpointIndex].pmaAddress=pmaInAddress;
 8001c4c:	2158      	movs	r1, #88	; 0x58
    _inEndpointData[endpointIndex].total=length;
 8001c4e:	52ab      	strh	r3, [r5, r2]
    _inEndpointData[endpointIndex].remaining=length;
 8001c50:	3a02      	subs	r2, #2
 8001c52:	52ab      	strh	r3, [r5, r2]
    _inEndpointData[endpointIndex].ptr=reinterpret_cast<const uint8_t *>(data);
 8001c54:	63eb      	str	r3, [r5, #60]	; 0x3c
    _inEndpointData[endpointIndex].pmaAddress=pmaInAddress;
 8001c56:	3346      	adds	r3, #70	; 0x46
 8001c58:	52e9      	strh	r1, [r5, r3]
    _inEndpointData[endpointIndex].maxPacketSize=maxPacketSize;
 8001c5a:	3b02      	subs	r3, #2
 8001c5c:	52ea      	strh	r2, [r5, r3]
    continueSendData(endpointIndex);
 8001c5e:	f7fe fa91 	bl	8000184 <_ZN9stm32plus11UsbKeyboardIN9OneButton14UsbHidKeyboardEJEE16continueSendDataEh.constprop.82>
    if(_deviceState!=newState) {
 8001c62:	6b2b      	ldr	r3, [r5, #48]	; 0x30
 8001c64:	2b03      	cmp	r3, #3
 8001c66:	d101      	bne.n	8001c6c <_ZN9stm32plus11UsbKeyboardIN9OneButton14UsbHidKeyboardEJEE11onInterruptEv+0xf44>
 8001c68:	f7ff f8f0 	bl	8000e4c <_ZN9stm32plus11UsbKeyboardIN9OneButton14UsbHidKeyboardEJEE11onInterruptEv+0x124>
      _deviceState=newState;
 8001c6c:	2303      	movs	r3, #3
 8001c6e:	e796      	b.n	8001b9e <_ZN9stm32plus11UsbKeyboardIN9OneButton14UsbHidKeyboardEJEE11onInterruptEv+0xe76>
        length=sizeof(_deviceDescriptor);
 8001c70:	2312      	movs	r3, #18
        dataToSend=const_cast<uint8_t *>(_deviceDescriptor);
 8001c72:	4a3b      	ldr	r2, [pc, #236]	; (8001d60 <_ZN9stm32plus11UsbKeyboardIN9OneButton14UsbHidKeyboardEJEE11onInterruptEv+0x1038>)
    if(length && header.wLength)
 8001c74:	2c00      	cmp	r4, #0
 8001c76:	d101      	bne.n	8001c7c <_ZN9stm32plus11UsbKeyboardIN9OneButton14UsbHidKeyboardEJEE11onInterruptEv+0xf54>
 8001c78:	f7ff f8e8 	bl	8000e4c <_ZN9stm32plus11UsbKeyboardIN9OneButton14UsbHidKeyboardEJEE11onInterruptEv+0x124>
      sendControlData(dataToSend,length<=header.wLength ? length : header.wLength);
 8001c7c:	42a3      	cmp	r3, r4
 8001c7e:	dc00      	bgt.n	8001c82 <_ZN9stm32plus11UsbKeyboardIN9OneButton14UsbHidKeyboardEJEE11onInterruptEv+0xf5a>
 8001c80:	001c      	movs	r4, r3
    _controlEndpointState=ControlEndpointStateType::DATA_IN;
 8001c82:	2302      	movs	r3, #2
 8001c84:	63ab      	str	r3, [r5, #56]	; 0x38
    _inEndpointData[endpointIndex].total=length;
 8001c86:	3340      	adds	r3, #64	; 0x40
 8001c88:	52ec      	strh	r4, [r5, r3]
    _inEndpointData[endpointIndex].remaining=length;
 8001c8a:	3b02      	subs	r3, #2
 8001c8c:	52ec      	strh	r4, [r5, r3]
    _inEndpointData[endpointIndex].pmaAddress=pmaInAddress;
 8001c8e:	2158      	movs	r1, #88	; 0x58
    _inEndpointData[endpointIndex].ptr=reinterpret_cast<const uint8_t *>(data);
 8001c90:	63ea      	str	r2, [r5, #60]	; 0x3c
    _inEndpointData[endpointIndex].pmaAddress=pmaInAddress;
 8001c92:	2246      	movs	r2, #70	; 0x46
 8001c94:	52a9      	strh	r1, [r5, r2]
    _inEndpointData[endpointIndex].maxPacketSize=maxPacketSize;
 8001c96:	3a02      	subs	r2, #2
 8001c98:	52ab      	strh	r3, [r5, r2]
    continueSendData(endpointIndex);
 8001c9a:	0028      	movs	r0, r5
 8001c9c:	f7fe fa72 	bl	8000184 <_ZN9stm32plus11UsbKeyboardIN9OneButton14UsbHidKeyboardEJEE16continueSendDataEh.constprop.82>
 8001ca0:	f7ff f8d4 	bl	8000e4c <_ZN9stm32plus11UsbKeyboardIN9OneButton14UsbHidKeyboardEJEE11onInterruptEv+0x124>
    switch(header.wValue & 0xff) {
 8001ca4:	b2ff      	uxtb	r7, r7
 8001ca6:	2f05      	cmp	r7, #5
 8001ca8:	d900      	bls.n	8001cac <_ZN9stm32plus11UsbKeyboardIN9OneButton14UsbHidKeyboardEJEE11onInterruptEv+0xf84>
 8001caa:	e50e      	b.n	80016ca <_ZN9stm32plus11UsbKeyboardIN9OneButton14UsbHidKeyboardEJEE11onInterruptEv+0x9a2>
 8001cac:	4b2d      	ldr	r3, [pc, #180]	; (8001d64 <_ZN9stm32plus11UsbKeyboardIN9OneButton14UsbHidKeyboardEJEE11onInterruptEv+0x103c>)
 8001cae:	00bf      	lsls	r7, r7, #2
 8001cb0:	59db      	ldr	r3, [r3, r7]
 8001cb2:	469f      	mov	pc, r3
        length=sizeof(_configurationDescriptor);
 8001cb4:	2329      	movs	r3, #41	; 0x29
        dataToSend=const_cast<uint8_t *>(_configurationDescriptor);
 8001cb6:	4a2c      	ldr	r2, [pc, #176]	; (8001d68 <_ZN9stm32plus11UsbKeyboardIN9OneButton14UsbHidKeyboardEJEE11onInterruptEv+0x1040>)
 8001cb8:	e7dc      	b.n	8001c74 <_ZN9stm32plus11UsbKeyboardIN9OneButton14UsbHidKeyboardEJEE11onInterruptEv+0xf4c>
          _configurationIndex=0;
 8001cba:	2200      	movs	r2, #0
 8001cbc:	235a      	movs	r3, #90	; 0x5a
 8001cbe:	54ea      	strb	r2, [r5, r3]
 8001cc0:	e4f1      	b.n	80016a6 <_ZN9stm32plus11UsbKeyboardIN9OneButton14UsbHidKeyboardEJEE11onInterruptEv+0x97e>
      setTxEndpointStatus(&USBR->EP0R+endpointIndex*2,USB_EP_TX_STALL);
 8001cc2:	4b2a      	ldr	r3, [pc, #168]	; (8001d6c <_ZN9stm32plus11UsbKeyboardIN9OneButton14UsbHidKeyboardEJEE11onInterruptEv+0x1044>)
    value=*epreg & USB_EPTX_DTOGMASK;
 8001cc4:	4a1c      	ldr	r2, [pc, #112]	; (8001d38 <_ZN9stm32plus11UsbKeyboardIN9OneButton14UsbHidKeyboardEJEE11onInterruptEv+0x1010>)
      setTxEndpointStatus(&USBR->EP0R+endpointIndex*2,USB_EP_TX_STALL);
 8001cc6:	469c      	mov	ip, r3
 8001cc8:	4460      	add	r0, ip
 8001cca:	0080      	lsls	r0, r0, #2
    value=*epreg & USB_EPTX_DTOGMASK;
 8001ccc:	8803      	ldrh	r3, [r0, #0]
 8001cce:	401a      	ands	r2, r3
      reg^=USB_EPTX_DTOG1;
 8001cd0:	2310      	movs	r3, #16
 8001cd2:	4053      	eors	r3, r2
    *epreg=setTxStatus(value,status) | USB_EP_CTR_RX | USB_EP_CTR_TX;
 8001cd4:	4a19      	ldr	r2, [pc, #100]	; (8001d3c <_ZN9stm32plus11UsbKeyboardIN9OneButton14UsbHidKeyboardEJEE11onInterruptEv+0x1014>)
 8001cd6:	4313      	orrs	r3, r2
 8001cd8:	8003      	strh	r3, [r0, #0]
 8001cda:	e64c      	b.n	8001976 <_ZN9stm32plus11UsbKeyboardIN9OneButton14UsbHidKeyboardEJEE11onInterruptEv+0xc4e>
      _address=address;
 8001cdc:	2359      	movs	r3, #89	; 0x59
 8001cde:	54ef      	strb	r7, [r5, r3]
    _controlEndpointState=ControlEndpointStateType::STATUS_IN;
 8001ce0:	3b55      	subs	r3, #85	; 0x55
 8001ce2:	63ab      	str	r3, [r5, #56]	; 0x38
    _inEndpointData[endpointIndex].remaining=length;
 8001ce4:	4b22      	ldr	r3, [pc, #136]	; (8001d70 <_ZN9stm32plus11UsbKeyboardIN9OneButton14UsbHidKeyboardEJEE11onInterruptEv+0x1048>)
    _inEndpointData[endpointIndex].ptr=reinterpret_cast<const uint8_t *>(data);
 8001ce6:	63ec      	str	r4, [r5, #60]	; 0x3c
    _inEndpointData[endpointIndex].remaining=length;
 8001ce8:	646b      	str	r3, [r5, #68]	; 0x44
 8001cea:	642c      	str	r4, [r5, #64]	; 0x40
    continueSendData(endpointIndex);
 8001cec:	0028      	movs	r0, r5
 8001cee:	f7fe fa49 	bl	8000184 <_ZN9stm32plus11UsbKeyboardIN9OneButton14UsbHidKeyboardEJEE16continueSendDataEh.constprop.82>
    if(_deviceState!=newState) {
 8001cf2:	6b2b      	ldr	r3, [r5, #48]	; 0x30
 8001cf4:	2b02      	cmp	r3, #2
 8001cf6:	d101      	bne.n	8001cfc <_ZN9stm32plus11UsbKeyboardIN9OneButton14UsbHidKeyboardEJEE11onInterruptEv+0xfd4>
 8001cf8:	f7ff f8a8 	bl	8000e4c <_ZN9stm32plus11UsbKeyboardIN9OneButton14UsbHidKeyboardEJEE11onInterruptEv+0x124>
      _deviceState=newState;
 8001cfc:	2302      	movs	r3, #2
 8001cfe:	632b      	str	r3, [r5, #48]	; 0x30
          notify=UsbStatusType::STATE_ADDRESSED;
 8001d00:	3304      	adds	r3, #4
 8001d02:	9324      	str	r3, [sp, #144]	; 0x90
 8001d04:	e520      	b.n	8001748 <_ZN9stm32plus11UsbKeyboardIN9OneButton14UsbHidKeyboardEJEE11onInterruptEv+0xa20>
        length=sizeof(TConfiguration::ConfigurationString);
 8001d06:	2308      	movs	r3, #8
        dataToSend=const_cast<uint8_t *>(TConfiguration::ConfigurationString);
 8001d08:	4a1a      	ldr	r2, [pc, #104]	; (8001d74 <_ZN9stm32plus11UsbKeyboardIN9OneButton14UsbHidKeyboardEJEE11onInterruptEv+0x104c>)
 8001d0a:	e7b3      	b.n	8001c74 <_ZN9stm32plus11UsbKeyboardIN9OneButton14UsbHidKeyboardEJEE11onInterruptEv+0xf4c>
        length=sizeof(TConfiguration::SerialString);
 8001d0c:	230c      	movs	r3, #12
        dataToSend=const_cast<uint8_t *>(TConfiguration::SerialString);
 8001d0e:	4a1a      	ldr	r2, [pc, #104]	; (8001d78 <_ZN9stm32plus11UsbKeyboardIN9OneButton14UsbHidKeyboardEJEE11onInterruptEv+0x1050>)
 8001d10:	e7b0      	b.n	8001c74 <_ZN9stm32plus11UsbKeyboardIN9OneButton14UsbHidKeyboardEJEE11onInterruptEv+0xf4c>
        length=sizeof(TConfiguration::ProductString);
 8001d12:	2316      	movs	r3, #22
        dataToSend=const_cast<uint8_t *>(TConfiguration::ProductString);
 8001d14:	4a19      	ldr	r2, [pc, #100]	; (8001d7c <_ZN9stm32plus11UsbKeyboardIN9OneButton14UsbHidKeyboardEJEE11onInterruptEv+0x1054>)
 8001d16:	e7ad      	b.n	8001c74 <_ZN9stm32plus11UsbKeyboardIN9OneButton14UsbHidKeyboardEJEE11onInterruptEv+0xf4c>
        length=sizeof(TConfiguration::ManufacturerString);
 8001d18:	2320      	movs	r3, #32
        dataToSend=const_cast<uint8_t *>(TConfiguration::ManufacturerString);
 8001d1a:	4a19      	ldr	r2, [pc, #100]	; (8001d80 <_ZN9stm32plus11UsbKeyboardIN9OneButton14UsbHidKeyboardEJEE11onInterruptEv+0x1058>)
 8001d1c:	e7aa      	b.n	8001c74 <_ZN9stm32plus11UsbKeyboardIN9OneButton14UsbHidKeyboardEJEE11onInterruptEv+0xf4c>
        length=sizeof(_langIdDescriptor);
 8001d1e:	2304      	movs	r3, #4
        dataToSend=const_cast<uint8_t *>(_langIdDescriptor);
 8001d20:	4a18      	ldr	r2, [pc, #96]	; (8001d84 <_ZN9stm32plus11UsbKeyboardIN9OneButton14UsbHidKeyboardEJEE11onInterruptEv+0x105c>)
 8001d22:	e7a7      	b.n	8001c74 <_ZN9stm32plus11UsbKeyboardIN9OneButton14UsbHidKeyboardEJEE11onInterruptEv+0xf4c>
        length=sizeof(TConfiguration::InterfaceString);
 8001d24:	2308      	movs	r3, #8
        dataToSend=const_cast<uint8_t *>(TConfiguration::InterfaceString);
 8001d26:	4a18      	ldr	r2, [pc, #96]	; (8001d88 <_ZN9stm32plus11UsbKeyboardIN9OneButton14UsbHidKeyboardEJEE11onInterruptEv+0x1060>)
 8001d28:	e7a4      	b.n	8001c74 <_ZN9stm32plus11UsbKeyboardIN9OneButton14UsbHidKeyboardEJEE11onInterruptEv+0xf4c>
 8001d2a:	46c0      	nop			; (mov r8, r8)
 8001d2c:	40005c04 	.word	0x40005c04
 8001d30:	00000f0f 	.word	0x00000f0f
 8001d34:	000080c0 	.word	0x000080c0
 8001d38:	ffff8fbf 	.word	0xffff8fbf
 8001d3c:	00008080 	.word	0x00008080
 8001d40:	0000c080 	.word	0x0000c080
 8001d44:	ffffbf8f 	.word	0xffffbf8f
 8001d48:	ffff898f 	.word	0xffff898f
 8001d4c:	ffff8f8f 	.word	0xffff8f8f
 8001d50:	40006008 	.word	0x40006008
 8001d54:	ffff8f0f 	.word	0xffff8f0f
 8001d58:	00008001 	.word	0x00008001
 8001d5c:	00000f8f 	.word	0x00000f8f
 8001d60:	08003168 	.word	0x08003168
 8001d64:	080030d4 	.word	0x080030d4
 8001d68:	0800313c 	.word	0x0800313c
 8001d6c:	10001700 	.word	0x10001700
 8001d70:	00580040 	.word	0x00580040
 8001d74:	080031c8 	.word	0x080031c8
 8001d78:	0800317c 	.word	0x0800317c
 8001d7c:	08003188 	.word	0x08003188
 8001d80:	080031a8 	.word	0x080031a8
 8001d84:	080030ec 	.word	0x080030ec
 8001d88:	080031a0 	.word	0x080031a0

08001d8c <_ZnwjPv>:
 8001d8c:	0008      	movs	r0, r1
 8001d8e:	4770      	bx	lr

08001d90 <_sbrk>:
  caddr_t _sbrk ( int incr ) {

    static unsigned char *heap = NULL;
    unsigned char *prev_heap;

    if (heap == NULL) {
 8001d90:	4a04      	ldr	r2, [pc, #16]	; (8001da4 <_sbrk+0x14>)
 8001d92:	6813      	ldr	r3, [r2, #0]
 8001d94:	2b00      	cmp	r3, #0
 8001d96:	d003      	beq.n	8001da0 <_sbrk+0x10>
      heap = (unsigned char *)&_end;
    }
    prev_heap = heap;
    /* check removed to show basic approach */

    heap += incr;
 8001d98:	1818      	adds	r0, r3, r0
 8001d9a:	6010      	str	r0, [r2, #0]

    return (caddr_t) prev_heap;
  }
 8001d9c:	0018      	movs	r0, r3
 8001d9e:	4770      	bx	lr
 8001da0:	4b01      	ldr	r3, [pc, #4]	; (8001da8 <_sbrk+0x18>)
 8001da2:	e7f9      	b.n	8001d98 <_sbrk+0x8>
 8001da4:	20000870 	.word	0x20000870
 8001da8:	200008f0 	.word	0x200008f0

08001dac <__wrap_atexit>:

  int __wrap_atexit (void (*)(void)) {
         return 0;
  }
 8001dac:	2000      	movs	r0, #0
 8001dae:	4770      	bx	lr

08001db0 <Reset_Handler>:
 8001db0:	4813      	ldr	r0, [pc, #76]	; (8001e00 <LoopForever+0x2>)
 8001db2:	4685      	mov	sp, r0
 8001db4:	4813      	ldr	r0, [pc, #76]	; (8001e04 <LoopForever+0x6>)
 8001db6:	6801      	ldr	r1, [r0, #0]
 8001db8:	0e09      	lsrs	r1, r1, #24
 8001dba:	4a13      	ldr	r2, [pc, #76]	; (8001e08 <LoopForever+0xa>)
 8001dbc:	4291      	cmp	r1, r2
 8001dbe:	d105      	bne.n	8001dcc <ApplicationStart>
 8001dc0:	4812      	ldr	r0, [pc, #72]	; (8001e0c <LoopForever+0xe>)
 8001dc2:	4913      	ldr	r1, [pc, #76]	; (8001e10 <LoopForever+0x12>)
 8001dc4:	6001      	str	r1, [r0, #0]
 8001dc6:	4813      	ldr	r0, [pc, #76]	; (8001e14 <LoopForever+0x16>)
 8001dc8:	4913      	ldr	r1, [pc, #76]	; (8001e18 <LoopForever+0x1a>)
 8001dca:	6001      	str	r1, [r0, #0]

08001dcc <ApplicationStart>:
 8001dcc:	2100      	movs	r1, #0
 8001dce:	e003      	b.n	8001dd8 <LoopCopyDataInit>

08001dd0 <CopyDataInit>:
 8001dd0:	4b12      	ldr	r3, [pc, #72]	; (8001e1c <LoopForever+0x1e>)
 8001dd2:	585b      	ldr	r3, [r3, r1]
 8001dd4:	5043      	str	r3, [r0, r1]
 8001dd6:	3104      	adds	r1, #4

08001dd8 <LoopCopyDataInit>:
 8001dd8:	4811      	ldr	r0, [pc, #68]	; (8001e20 <LoopForever+0x22>)
 8001dda:	4b12      	ldr	r3, [pc, #72]	; (8001e24 <LoopForever+0x26>)
 8001ddc:	1842      	adds	r2, r0, r1
 8001dde:	429a      	cmp	r2, r3
 8001de0:	d3f6      	bcc.n	8001dd0 <CopyDataInit>
 8001de2:	4a11      	ldr	r2, [pc, #68]	; (8001e28 <LoopForever+0x2a>)
 8001de4:	e002      	b.n	8001dec <LoopFillZerobss>

08001de6 <FillZerobss>:
 8001de6:	2300      	movs	r3, #0
 8001de8:	6013      	str	r3, [r2, #0]
 8001dea:	3204      	adds	r2, #4

08001dec <LoopFillZerobss>:
 8001dec:	4b0f      	ldr	r3, [pc, #60]	; (8001e2c <LoopForever+0x2e>)
 8001dee:	429a      	cmp	r2, r3
 8001df0:	d3f9      	bcc.n	8001de6 <FillZerobss>
 8001df2:	f000 f81f 	bl	8001e34 <SystemInit>
 8001df6:	f000 fbf1 	bl	80025dc <__libc_init_array>
 8001dfa:	f7fe fe1b 	bl	8000a34 <main>

08001dfe <LoopForever>:
 8001dfe:	e7fe      	b.n	8001dfe <LoopForever>
 8001e00:	20001800 	.word	0x20001800
 8001e04:	00000004 	.word	0x00000004
 8001e08:	0000001f 	.word	0x0000001f
 8001e0c:	40021018 	.word	0x40021018
 8001e10:	00000001 	.word	0x00000001
 8001e14:	40010000 	.word	0x40010000
 8001e18:	00000000 	.word	0x00000000
 8001e1c:	0800320c 	.word	0x0800320c
 8001e20:	20000000 	.word	0x20000000
 8001e24:	2000084c 	.word	0x2000084c
 8001e28:	2000084c 	.word	0x2000084c
 8001e2c:	200008f0 	.word	0x200008f0

08001e30 <ADC1_IRQHandler>:
 8001e30:	e7fe      	b.n	8001e30 <ADC1_IRQHandler>
	...

08001e34 <SystemInit>:
  * @retval None
  */
void SystemInit (void)
{
  /* Set HSION bit */
  RCC->CR |= (uint32_t)0x00000001;
 8001e34:	2101      	movs	r1, #1
 8001e36:	4b4b      	ldr	r3, [pc, #300]	; (8001f64 <SystemInit+0x130>)
{
 8001e38:	b570      	push	{r4, r5, r6, lr}
  RCC->CR |= (uint32_t)0x00000001;
 8001e3a:	681a      	ldr	r2, [r3, #0]

  /* Reset SW[1:0], HPRE[3:0], PPRE[2:0], ADCPRE and MCOSEL[2:0] bits */
  RCC->CFGR &= (uint32_t)0xF8FFB80C;
 8001e3c:	484a      	ldr	r0, [pc, #296]	; (8001f68 <SystemInit+0x134>)
  RCC->CR |= (uint32_t)0x00000001;
 8001e3e:	430a      	orrs	r2, r1
 8001e40:	601a      	str	r2, [r3, #0]
  RCC->CFGR &= (uint32_t)0xF8FFB80C;
 8001e42:	685a      	ldr	r2, [r3, #4]
 8001e44:	4002      	ands	r2, r0
 8001e46:	605a      	str	r2, [r3, #4]

  /* Reset HSEON, CSSON and PLLON bits */
  RCC->CR &= (uint32_t)0xFEF6FFFF;
 8001e48:	681a      	ldr	r2, [r3, #0]
 8001e4a:	4848      	ldr	r0, [pc, #288]	; (8001f6c <SystemInit+0x138>)
 8001e4c:	4002      	ands	r2, r0
 8001e4e:	601a      	str	r2, [r3, #0]

  /* Reset HSEBYP bit */
  RCC->CR &= (uint32_t)0xFFFBFFFF;
 8001e50:	681a      	ldr	r2, [r3, #0]
 8001e52:	4847      	ldr	r0, [pc, #284]	; (8001f70 <SystemInit+0x13c>)
 8001e54:	4002      	ands	r2, r0
 8001e56:	601a      	str	r2, [r3, #0]

  /* Reset PLLSRC, PLLXTPRE and PLLMUL[3:0] bits */
  RCC->CFGR &= (uint32_t)0xFFC0FFFF;
 8001e58:	685a      	ldr	r2, [r3, #4]
 8001e5a:	4846      	ldr	r0, [pc, #280]	; (8001f74 <SystemInit+0x140>)
 8001e5c:	4002      	ands	r2, r0

  /* Reset PREDIV1[3:0] bits */
  RCC->CFGR2 &= (uint32_t)0xFFFFFFF0;
 8001e5e:	200f      	movs	r0, #15
  RCC->CFGR &= (uint32_t)0xFFC0FFFF;
 8001e60:	605a      	str	r2, [r3, #4]
  RCC->CFGR2 &= (uint32_t)0xFFFFFFF0;
 8001e62:	6ada      	ldr	r2, [r3, #44]	; 0x2c
 8001e64:	4382      	bics	r2, r0
 8001e66:	62da      	str	r2, [r3, #44]	; 0x2c

  /* Reset USARTSW[1:0], I2CSW, CECSW and ADCSW bits */
  RCC->CFGR3 &= (uint32_t)0xFFFFFEAC;
 8001e68:	6b1a      	ldr	r2, [r3, #48]	; 0x30
 8001e6a:	4843      	ldr	r0, [pc, #268]	; (8001f78 <SystemInit+0x144>)
 8001e6c:	4002      	ands	r2, r0
 8001e6e:	631a      	str	r2, [r3, #48]	; 0x30

  /* Reset HSI14 bit */
  RCC->CR2 &= (uint32_t)0xFFFFFFFE;
 8001e70:	6b5a      	ldr	r2, [r3, #52]	; 0x34
  */
static void SetSysClock(void)
{
  // enable flash prefetch buffer

  FLASH->ACR |= FLASH_ACR_PRFTBE;
 8001e72:	3065      	adds	r0, #101	; 0x65
  RCC->CR2 &= (uint32_t)0xFFFFFFFE;
 8001e74:	438a      	bics	r2, r1
 8001e76:	635a      	str	r2, [r3, #52]	; 0x34
  RCC->CIR = 0x00000000;
 8001e78:	2200      	movs	r2, #0
  FLASH->ACR |= FLASH_ACR_PRFTBE;
 8001e7a:	4940      	ldr	r1, [pc, #256]	; (8001f7c <SystemInit+0x148>)
  RCC->CIR = 0x00000000;
 8001e7c:	609a      	str	r2, [r3, #8]
  FLASH->ACR |= FLASH_ACR_PRFTBE;
 8001e7e:	680a      	ldr	r2, [r1, #0]
 8001e80:	30ff      	adds	r0, #255	; 0xff
 8001e82:	4302      	orrs	r2, r0
 8001e84:	600a      	str	r2, [r1, #0]

  // enable HSI48

  RCC->CR2 |= RCC_CR2_HSI48ON;
 8001e86:	2280      	movs	r2, #128	; 0x80
 8001e88:	6b59      	ldr	r1, [r3, #52]	; 0x34
 8001e8a:	0252      	lsls	r2, r2, #9
 8001e8c:	430a      	orrs	r2, r1
  while((RCC->CR2 & RCC_CR2_HSI48RDY)==0);
 8001e8e:	2180      	movs	r1, #128	; 0x80
  RCC->CR2 |= RCC_CR2_HSI48ON;
 8001e90:	635a      	str	r2, [r3, #52]	; 0x34
  while((RCC->CR2 & RCC_CR2_HSI48RDY)==0);
 8001e92:	0289      	lsls	r1, r1, #10
 8001e94:	6b5a      	ldr	r2, [r3, #52]	; 0x34
 8001e96:	420a      	tst	r2, r1
 8001e98:	d0fc      	beq.n	8001e94 <SystemInit+0x60>

  // disable the PLL

  RCC->CR &=~ RCC_CR_PLLON;
 8001e9a:	681a      	ldr	r2, [r3, #0]
 8001e9c:	4938      	ldr	r1, [pc, #224]	; (8001f80 <SystemInit+0x14c>)
 8001e9e:	400a      	ands	r2, r1
  while((RCC->CR & RCC_CR_PLLRDY)!=0);
 8001ea0:	2180      	movs	r1, #128	; 0x80
  RCC->CR &=~ RCC_CR_PLLON;
 8001ea2:	601a      	str	r2, [r3, #0]
  while((RCC->CR & RCC_CR_PLLRDY)!=0);
 8001ea4:	4a2f      	ldr	r2, [pc, #188]	; (8001f64 <SystemInit+0x130>)
 8001ea6:	0489      	lsls	r1, r1, #18
 8001ea8:	6813      	ldr	r3, [r2, #0]
 8001eaa:	420b      	tst	r3, r1
 8001eac:	d1fc      	bne.n	8001ea8 <SystemInit+0x74>

  // select HSI48 as the USB clock source

  RCC->CFGR3 = (RCC->CFGR3 &~ RCC_CFGR3_USBSW) | RCC_CFGR3_USBSW_HSI48;
 8001eae:	2180      	movs	r1, #128	; 0x80

  // set flash latency = 1

  FLASH->ACR = (FLASH->ACR &~FLASH_ACR_LATENCY) | FLASH_Latency_1;
 8001eb0:	2001      	movs	r0, #1
  RCC->CFGR3 = (RCC->CFGR3 &~ RCC_CFGR3_USBSW) | RCC_CFGR3_USBSW_HSI48;
 8001eb2:	6b13      	ldr	r3, [r2, #48]	; 0x30
  RCC->CFGR = (RCC->CFGR &~ RCC_CFGR_HPRE) | RCC_CFGR_HPRE_DIV1;

  // HCLK source = HSI48

  RCC->CFGR = (RCC->CFGR &~ RCC_CFGR_SW) | RCC_CFGR_SW_HSI48;
  while((RCC->CFGR & RCC_CFGR_SWS)!=RCC_CFGR_SWS_HSI48);
 8001eb4:	4c2b      	ldr	r4, [pc, #172]	; (8001f64 <SystemInit+0x130>)
  RCC->CFGR3 = (RCC->CFGR3 &~ RCC_CFGR3_USBSW) | RCC_CFGR3_USBSW_HSI48;
 8001eb6:	438b      	bics	r3, r1
  FLASH->ACR = (FLASH->ACR &~FLASH_ACR_LATENCY) | FLASH_Latency_1;
 8001eb8:	4930      	ldr	r1, [pc, #192]	; (8001f7c <SystemInit+0x148>)
  RCC->CFGR3 = (RCC->CFGR3 &~ RCC_CFGR3_USBSW) | RCC_CFGR3_USBSW_HSI48;
 8001eba:	6313      	str	r3, [r2, #48]	; 0x30
  FLASH->ACR = (FLASH->ACR &~FLASH_ACR_LATENCY) | FLASH_Latency_1;
 8001ebc:	680b      	ldr	r3, [r1, #0]
 8001ebe:	4303      	orrs	r3, r0
 8001ec0:	600b      	str	r3, [r1, #0]
  RCC->CFGR = (RCC->CFGR &~ RCC_CFGR_HPRE) | RCC_CFGR_HPRE_DIV1;
 8001ec2:	21f0      	movs	r1, #240	; 0xf0
 8001ec4:	6853      	ldr	r3, [r2, #4]
 8001ec6:	438b      	bics	r3, r1
 8001ec8:	6053      	str	r3, [r2, #4]
  RCC->CFGR = (RCC->CFGR &~ RCC_CFGR_SW) | RCC_CFGR_SW_HSI48;
 8001eca:	6853      	ldr	r3, [r2, #4]
 8001ecc:	39ed      	subs	r1, #237	; 0xed
 8001ece:	430b      	orrs	r3, r1
 8001ed0:	6053      	str	r3, [r2, #4]
  while((RCC->CFGR & RCC_CFGR_SWS)!=RCC_CFGR_SWS_HSI48);
 8001ed2:	220c      	movs	r2, #12
 8001ed4:	6863      	ldr	r3, [r4, #4]
 8001ed6:	4013      	ands	r3, r2
 8001ed8:	2b0c      	cmp	r3, #12
 8001eda:	d1fb      	bne.n	8001ed4 <SystemInit+0xa0>

  RCC->CFGR = (RCC->CFGR &~ RCC_CFGR_PPRE) | RCC_CFGR_PPRE_DIV1;

  // enable clock recovery system from USB SOF frames

  RCC_APB1PeriphClockCmd(RCC_APB1Periph_CRS,ENABLE);
 8001edc:	2580      	movs	r5, #128	; 0x80
  RCC->CFGR = (RCC->CFGR &~ RCC_CFGR_PPRE) | RCC_CFGR_PPRE_DIV1;
 8001ede:	6863      	ldr	r3, [r4, #4]
 8001ee0:	4a28      	ldr	r2, [pc, #160]	; (8001f84 <SystemInit+0x150>)
  RCC_APB1PeriphClockCmd(RCC_APB1Periph_CRS,ENABLE);
 8001ee2:	052d      	lsls	r5, r5, #20
  RCC->CFGR = (RCC->CFGR &~ RCC_CFGR_PPRE) | RCC_CFGR_PPRE_DIV1;
 8001ee4:	4013      	ands	r3, r2
 8001ee6:	6063      	str	r3, [r4, #4]
  RCC_APB1PeriphClockCmd(RCC_APB1Periph_CRS,ENABLE);
 8001ee8:	0028      	movs	r0, r5
 8001eea:	2101      	movs	r1, #1
 8001eec:	f000 fafe 	bl	80024ec <RCC_APB1PeriphClockCmd>

  // Before configuration, reset CRS registers to their default values

  RCC->APB1RSTR |= RCC_APB1RSTR_CRSRST;
 8001ef0:	6923      	ldr	r3, [r4, #16]
  RCC->APB1RSTR &=~ RCC_APB1RSTR_CRSRST;
 8001ef2:	4a25      	ldr	r2, [pc, #148]	; (8001f88 <SystemInit+0x154>)
  RCC->APB1RSTR |= RCC_APB1RSTR_CRSRST;
 8001ef4:	431d      	orrs	r5, r3
 8001ef6:	6125      	str	r5, [r4, #16]
  RCC->APB1RSTR &=~ RCC_APB1RSTR_CRSRST;
 8001ef8:	6923      	ldr	r3, [r4, #16]

  // Configure Synchronization input */
  // Clear SYNCDIV[2:0], SYNCSRC[1:0] & SYNCSPOL bits */

  CRS->CFGR &= ~(CRS_CFGR_SYNCDIV | CRS_CFGR_SYNCSRC | CRS_CFGR_SYNCPOL);
 8001efa:	4924      	ldr	r1, [pc, #144]	; (8001f8c <SystemInit+0x158>)
  RCC->APB1RSTR &=~ RCC_APB1RSTR_CRSRST;
 8001efc:	4013      	ands	r3, r2
 8001efe:	6123      	str	r3, [r4, #16]
  CRS->CFGR &= ~(CRS_CFGR_SYNCDIV | CRS_CFGR_SYNCSRC | CRS_CFGR_SYNCPOL);
 8001f00:	4b23      	ldr	r3, [pc, #140]	; (8001f90 <SystemInit+0x15c>)
 8001f02:	685a      	ldr	r2, [r3, #4]
 8001f04:	400a      	ands	r2, r1
 8001f06:	605a      	str	r2, [r3, #4]
  // Set the CRS_CFGR_SYNCDIV[2:0] bits according to Prescaler value
  // CRS->CFGR |= 0;

  // Set the SYNCSRC[1:0] bits according to Source value

  CRS->CFGR |= CRS_CFGR_SYNCSRC_1;
 8001f08:	2280      	movs	r2, #128	; 0x80
 8001f0a:	6859      	ldr	r1, [r3, #4]
 8001f0c:	0592      	lsls	r2, r2, #22
 8001f0e:	430a      	orrs	r2, r1
 8001f10:	605a      	str	r2, [r3, #4]
  // CRS->CFGR |= 0;

  // Configure Frequency Error Measurement
  // Clear RELOAD[15:0] & FELIM[7:0] bits

  CRS->CFGR &= ~(CRS_CFGR_RELOAD | CRS_CFGR_FELIM);
 8001f12:	685a      	ldr	r2, [r3, #4]
 8001f14:	0e12      	lsrs	r2, r2, #24
 8001f16:	0612      	lsls	r2, r2, #24
 8001f18:	605a      	str	r2, [r3, #4]

  // Set the RELOAD[15:0] bits according to ReloadValue value

  CRS->CFGR |= 47999;     // (48MHz/1000) -1
 8001f1a:	6859      	ldr	r1, [r3, #4]
 8001f1c:	4a1d      	ldr	r2, [pc, #116]	; (8001f94 <SystemInit+0x160>)
 8001f1e:	430a      	orrs	r2, r1
 8001f20:	605a      	str	r2, [r3, #4]

  // Set the FELIM[7:0] bits according to ErrorLimitValue value

  CRS->CFGR |= (0x22 << 16);
 8001f22:	2288      	movs	r2, #136	; 0x88
 8001f24:	6859      	ldr	r1, [r3, #4]
 8001f26:	0392      	lsls	r2, r2, #14
 8001f28:	430a      	orrs	r2, r1
 8001f2a:	605a      	str	r2, [r3, #4]

  // Adjust HSI48 oscillator smooth trimming
  // Clear TRIM[5:0] bits

  CRS->CR &= ~CRS_CR_TRIM;
 8001f2c:	681a      	ldr	r2, [r3, #0]
 8001f2e:	491a      	ldr	r1, [pc, #104]	; (8001f98 <SystemInit+0x164>)
 8001f30:	400a      	ands	r2, r1
 8001f32:	601a      	str	r2, [r3, #0]

  // Set the TRIM[5:0] bits according to RCC_CRS_HSI48CalibrationValue value

  CRS->CR |= (0x20 << 8);
 8001f34:	2280      	movs	r2, #128	; 0x80
 8001f36:	6819      	ldr	r1, [r3, #0]
 8001f38:	0192      	lsls	r2, r2, #6
 8001f3a:	430a      	orrs	r2, r1

  // Enable Automatic trimming

  CRS->CR |= CRS_CR_AUTOTRIMEN;
 8001f3c:	2140      	movs	r1, #64	; 0x40
  CRS->CR |= (0x20 << 8);
 8001f3e:	601a      	str	r2, [r3, #0]
  CRS->CR |= CRS_CR_AUTOTRIMEN;
 8001f40:	681a      	ldr	r2, [r3, #0]
 8001f42:	430a      	orrs	r2, r1
 8001f44:	601a      	str	r2, [r3, #0]

  // Enable Frequency error counter

  CRS->CR |= CRS_CR_CEN;
 8001f46:	681a      	ldr	r2, [r3, #0]
 8001f48:	3920      	subs	r1, #32
 8001f4a:	430a      	orrs	r2, r1
 8001f4c:	601a      	str	r2, [r3, #0]

  // Remap PA11-12 to PA9-10 for USB

  RCC->APB2ENR |= RCC_APB2ENR_SYSCFGCOMPEN;
 8001f4e:	2201      	movs	r2, #1
 8001f50:	69a3      	ldr	r3, [r4, #24]
  SYSCFG->CFGR1 |= SYSCFG_CFGR1_PA11_PA12_RMP;
 8001f52:	3910      	subs	r1, #16
  RCC->APB2ENR |= RCC_APB2ENR_SYSCFGCOMPEN;
 8001f54:	4313      	orrs	r3, r2
  SYSCFG->CFGR1 |= SYSCFG_CFGR1_PA11_PA12_RMP;
 8001f56:	4a11      	ldr	r2, [pc, #68]	; (8001f9c <SystemInit+0x168>)
  RCC->APB2ENR |= RCC_APB2ENR_SYSCFGCOMPEN;
 8001f58:	61a3      	str	r3, [r4, #24]
  SYSCFG->CFGR1 |= SYSCFG_CFGR1_PA11_PA12_RMP;
 8001f5a:	6813      	ldr	r3, [r2, #0]
 8001f5c:	430b      	orrs	r3, r1
 8001f5e:	6013      	str	r3, [r2, #0]
}
 8001f60:	bd70      	pop	{r4, r5, r6, pc}
 8001f62:	46c0      	nop			; (mov r8, r8)
 8001f64:	40021000 	.word	0x40021000
 8001f68:	f8ffb80c 	.word	0xf8ffb80c
 8001f6c:	fef6ffff 	.word	0xfef6ffff
 8001f70:	fffbffff 	.word	0xfffbffff
 8001f74:	ffc0ffff 	.word	0xffc0ffff
 8001f78:	fffffeac 	.word	0xfffffeac
 8001f7c:	40022000 	.word	0x40022000
 8001f80:	feffffff 	.word	0xfeffffff
 8001f84:	fffff8ff 	.word	0xfffff8ff
 8001f88:	f7ffffff 	.word	0xf7ffffff
 8001f8c:	48ffffff 	.word	0x48ffffff
 8001f90:	40006c00 	.word	0x40006c00
 8001f94:	0000bb7f 	.word	0x0000bb7f
 8001f98:	ffffc0ff 	.word	0xffffc0ff
 8001f9c:	40010000 	.word	0x40010000

08001fa0 <_ZN9stm32plus18GpioPinInitialiser10initialiseEP12GPIO_TypeDeftNS_4Gpio12GpioModeTypeE17GPIOSpeed_TypeDefNS3_18GpioPullUpDownTypeENS3_14GpioOutputTypeE>:
    void initialise(GPIO_TypeDef *port,
                    uint16_t pins,
                    Gpio::GpioModeType mode,
                    GPIOSpeed_TypeDef speed,
                    Gpio::GpioPullUpDownType pupdType,
                    Gpio::GpioOutputType outputType) {
 8001fa0:	b5f0      	push	{r4, r5, r6, r7, lr}
 8001fa2:	4647      	mov	r7, r8
 8001fa4:	46ce      	mov	lr, r9
 8001fa6:	b580      	push	{r7, lr}
 8001fa8:	b083      	sub	sp, #12
 8001faa:	4698      	mov	r8, r3
 8001fac:	ab0a      	add	r3, sp, #40	; 0x28
 8001fae:	781d      	ldrb	r5, [r3, #0]
 8001fb0:	ab0b      	add	r3, sp, #44	; 0x2c
 8001fb2:	781f      	ldrb	r7, [r3, #0]

      GPIO_InitTypeDef init;

      // clock on

      RCC_AHBPeriphClockCmd(port==GPIOA ? RCC_AHBPeriph_GPIOA :
 8001fb4:	2390      	movs	r3, #144	; 0x90
                    Gpio::GpioOutputType outputType) {
 8001fb6:	0004      	movs	r4, r0
 8001fb8:	4689      	mov	r9, r1
 8001fba:	0016      	movs	r6, r2
      RCC_AHBPeriphClockCmd(port==GPIOA ? RCC_AHBPeriph_GPIOA :
 8001fbc:	05db      	lsls	r3, r3, #23
 8001fbe:	4298      	cmp	r0, r3
 8001fc0:	d045      	beq.n	800204e <_ZN9stm32plus18GpioPinInitialiser10initialiseEP12GPIO_TypeDeftNS_4Gpio12GpioModeTypeE17GPIOSpeed_TypeDefNS3_18GpioPullUpDownTypeENS3_14GpioOutputTypeE+0xae>
                             port==GPIOB ? RCC_AHBPeriph_GPIOB :
 8001fc2:	4b28      	ldr	r3, [pc, #160]	; (8002064 <_ZN9stm32plus18GpioPinInitialiser10initialiseEP12GPIO_TypeDeftNS_4Gpio12GpioModeTypeE17GPIOSpeed_TypeDefNS3_18GpioPullUpDownTypeENS3_14GpioOutputTypeE+0xc4>)
 8001fc4:	4298      	cmp	r0, r3
 8001fc6:	d045      	beq.n	8002054 <_ZN9stm32plus18GpioPinInitialiser10initialiseEP12GPIO_TypeDeftNS_4Gpio12GpioModeTypeE17GPIOSpeed_TypeDefNS3_18GpioPullUpDownTypeENS3_14GpioOutputTypeE+0xb4>
                             port==GPIOC ? RCC_AHBPeriph_GPIOC :
 8001fc8:	4b27      	ldr	r3, [pc, #156]	; (8002068 <_ZN9stm32plus18GpioPinInitialiser10initialiseEP12GPIO_TypeDeftNS_4Gpio12GpioModeTypeE17GPIOSpeed_TypeDefNS3_18GpioPullUpDownTypeENS3_14GpioOutputTypeE+0xc8>)
 8001fca:	4298      	cmp	r0, r3
 8001fcc:	d045      	beq.n	800205a <_ZN9stm32plus18GpioPinInitialiser10initialiseEP12GPIO_TypeDeftNS_4Gpio12GpioModeTypeE17GPIOSpeed_TypeDefNS3_18GpioPullUpDownTypeENS3_14GpioOutputTypeE+0xba>
                             port==GPIOD ? RCC_AHBPeriph_GPIOD :
 8001fce:	4b27      	ldr	r3, [pc, #156]	; (800206c <_ZN9stm32plus18GpioPinInitialiser10initialiseEP12GPIO_TypeDeftNS_4Gpio12GpioModeTypeE17GPIOSpeed_TypeDefNS3_18GpioPullUpDownTypeENS3_14GpioOutputTypeE+0xcc>)
 8001fd0:	2080      	movs	r0, #128	; 0x80
 8001fd2:	429c      	cmp	r4, r3
 8001fd4:	d044      	beq.n	8002060 <_ZN9stm32plus18GpioPinInitialiser10initialiseEP12GPIO_TypeDeftNS_4Gpio12GpioModeTypeE17GPIOSpeed_TypeDefNS3_18GpioPullUpDownTypeENS3_14GpioOutputTypeE+0xc0>
 8001fd6:	03c0      	lsls	r0, r0, #15
                             RCC_AHBPeriph_GPIOF
                             ,ENABLE);
 8001fd8:	2101      	movs	r1, #1
 8001fda:	f000 fa6f 	bl	80024bc <RCC_AHBPeriphClockCmd>

      // initialise

      init.GPIO_Pin=pins;
 8001fde:	464b      	mov	r3, r9
      init.GPIO_Speed=speed;
 8001fe0:	4642      	mov	r2, r8
      init.GPIO_Pin=pins;
 8001fe2:	9300      	str	r3, [sp, #0]
      init.GPIO_Speed=speed;
 8001fe4:	466b      	mov	r3, sp
 8001fe6:	715a      	strb	r2, [r3, #5]

      switch(mode) {
 8001fe8:	2e01      	cmp	r6, #1
 8001fea:	d02c      	beq.n	8002046 <_ZN9stm32plus18GpioPinInitialiser10initialiseEP12GPIO_TypeDeftNS_4Gpio12GpioModeTypeE17GPIOSpeed_TypeDefNS3_18GpioPullUpDownTypeENS3_14GpioOutputTypeE+0xa6>
 8001fec:	2e00      	cmp	r6, #0
 8001fee:	d026      	beq.n	800203e <_ZN9stm32plus18GpioPinInitialiser10initialiseEP12GPIO_TypeDeftNS_4Gpio12GpioModeTypeE17GPIOSpeed_TypeDefNS3_18GpioPullUpDownTypeENS3_14GpioOutputTypeE+0x9e>
 8001ff0:	2e02      	cmp	r6, #2
 8001ff2:	d01c      	beq.n	800202e <_ZN9stm32plus18GpioPinInitialiser10initialiseEP12GPIO_TypeDeftNS_4Gpio12GpioModeTypeE17GPIOSpeed_TypeDefNS3_18GpioPullUpDownTypeENS3_14GpioOutputTypeE+0x8e>
 8001ff4:	2e03      	cmp	r6, #3
 8001ff6:	d102      	bne.n	8001ffe <_ZN9stm32plus18GpioPinInitialiser10initialiseEP12GPIO_TypeDeftNS_4Gpio12GpioModeTypeE17GPIOSpeed_TypeDefNS3_18GpioPullUpDownTypeENS3_14GpioOutputTypeE+0x5e>
        case Gpio::ANALOG:
          init.GPIO_Mode=GPIO_Mode_AN;
          break;

        case Gpio::ALTERNATE_FUNCTION:
          init.GPIO_Mode=GPIO_Mode_AF;
 8001ff8:	2302      	movs	r3, #2
 8001ffa:	466a      	mov	r2, sp
 8001ffc:	7113      	strb	r3, [r2, #4]
          break;
      }

      switch(pupdType) {
 8001ffe:	2d01      	cmp	r5, #1
 8002000:	d003      	beq.n	800200a <_ZN9stm32plus18GpioPinInitialiser10initialiseEP12GPIO_TypeDeftNS_4Gpio12GpioModeTypeE17GPIOSpeed_TypeDefNS3_18GpioPullUpDownTypeENS3_14GpioOutputTypeE+0x6a>
 8002002:	2d00      	cmp	r5, #0
 8002004:	d001      	beq.n	800200a <_ZN9stm32plus18GpioPinInitialiser10initialiseEP12GPIO_TypeDeftNS_4Gpio12GpioModeTypeE17GPIOSpeed_TypeDefNS3_18GpioPullUpDownTypeENS3_14GpioOutputTypeE+0x6a>
 8002006:	2d02      	cmp	r5, #2
 8002008:	d101      	bne.n	800200e <_ZN9stm32plus18GpioPinInitialiser10initialiseEP12GPIO_TypeDeftNS_4Gpio12GpioModeTypeE17GPIOSpeed_TypeDefNS3_18GpioPullUpDownTypeENS3_14GpioOutputTypeE+0x6e>
        case Gpio::PUPD_UP:
          init.GPIO_PuPd=GPIO_PuPd_UP;
          break;

        case Gpio::PUPD_DOWN:
          init.GPIO_PuPd=GPIO_PuPd_DOWN;
 800200a:	466b      	mov	r3, sp
 800200c:	71dd      	strb	r5, [r3, #7]
          break;
      }

      switch(outputType) {
 800200e:	2f00      	cmp	r7, #0
 8002010:	d011      	beq.n	8002036 <_ZN9stm32plus18GpioPinInitialiser10initialiseEP12GPIO_TypeDeftNS_4Gpio12GpioModeTypeE17GPIOSpeed_TypeDefNS3_18GpioPullUpDownTypeENS3_14GpioOutputTypeE+0x96>
 8002012:	2f01      	cmp	r7, #1
 8002014:	d102      	bne.n	800201c <_ZN9stm32plus18GpioPinInitialiser10initialiseEP12GPIO_TypeDeftNS_4Gpio12GpioModeTypeE17GPIOSpeed_TypeDefNS3_18GpioPullUpDownTypeENS3_14GpioOutputTypeE+0x7c>
        case Gpio::OPEN_DRAIN:
          init.GPIO_OType=GPIO_OType_OD;
          break;

        case Gpio::PUSH_PULL:
          init.GPIO_OType=GPIO_OType_PP;
 8002016:	2300      	movs	r3, #0
 8002018:	466a      	mov	r2, sp
 800201a:	7193      	strb	r3, [r2, #6]
          break;
      }

      GPIO_Init(port,&init);
 800201c:	4669      	mov	r1, sp
 800201e:	0020      	movs	r0, r4
 8002020:	f000 f99e 	bl	8002360 <GPIO_Init>
    }
 8002024:	b003      	add	sp, #12
 8002026:	bc0c      	pop	{r2, r3}
 8002028:	4690      	mov	r8, r2
 800202a:	4699      	mov	r9, r3
 800202c:	bdf0      	pop	{r4, r5, r6, r7, pc}
          init.GPIO_Mode=GPIO_Mode_AN;
 800202e:	2303      	movs	r3, #3
 8002030:	466a      	mov	r2, sp
 8002032:	7113      	strb	r3, [r2, #4]
          break;
 8002034:	e7e3      	b.n	8001ffe <_ZN9stm32plus18GpioPinInitialiser10initialiseEP12GPIO_TypeDeftNS_4Gpio12GpioModeTypeE17GPIOSpeed_TypeDefNS3_18GpioPullUpDownTypeENS3_14GpioOutputTypeE+0x5e>
          init.GPIO_OType=GPIO_OType_OD;
 8002036:	2301      	movs	r3, #1
 8002038:	466a      	mov	r2, sp
 800203a:	7193      	strb	r3, [r2, #6]
          break;
 800203c:	e7ee      	b.n	800201c <_ZN9stm32plus18GpioPinInitialiser10initialiseEP12GPIO_TypeDeftNS_4Gpio12GpioModeTypeE17GPIOSpeed_TypeDefNS3_18GpioPullUpDownTypeENS3_14GpioOutputTypeE+0x7c>
          init.GPIO_Mode=GPIO_Mode_OUT;
 800203e:	2301      	movs	r3, #1
 8002040:	466a      	mov	r2, sp
 8002042:	7113      	strb	r3, [r2, #4]
          break;
 8002044:	e7db      	b.n	8001ffe <_ZN9stm32plus18GpioPinInitialiser10initialiseEP12GPIO_TypeDeftNS_4Gpio12GpioModeTypeE17GPIOSpeed_TypeDefNS3_18GpioPullUpDownTypeENS3_14GpioOutputTypeE+0x5e>
          init.GPIO_Mode=GPIO_Mode_IN;
 8002046:	2300      	movs	r3, #0
 8002048:	466a      	mov	r2, sp
 800204a:	7113      	strb	r3, [r2, #4]
          break;
 800204c:	e7d7      	b.n	8001ffe <_ZN9stm32plus18GpioPinInitialiser10initialiseEP12GPIO_TypeDeftNS_4Gpio12GpioModeTypeE17GPIOSpeed_TypeDefNS3_18GpioPullUpDownTypeENS3_14GpioOutputTypeE+0x5e>
      RCC_AHBPeriphClockCmd(port==GPIOA ? RCC_AHBPeriph_GPIOA :
 800204e:	2080      	movs	r0, #128	; 0x80
 8002050:	0280      	lsls	r0, r0, #10
 8002052:	e7c1      	b.n	8001fd8 <_ZN9stm32plus18GpioPinInitialiser10initialiseEP12GPIO_TypeDeftNS_4Gpio12GpioModeTypeE17GPIOSpeed_TypeDefNS3_18GpioPullUpDownTypeENS3_14GpioOutputTypeE+0x38>
                             port==GPIOB ? RCC_AHBPeriph_GPIOB :
 8002054:	2080      	movs	r0, #128	; 0x80
 8002056:	02c0      	lsls	r0, r0, #11
 8002058:	e7be      	b.n	8001fd8 <_ZN9stm32plus18GpioPinInitialiser10initialiseEP12GPIO_TypeDeftNS_4Gpio12GpioModeTypeE17GPIOSpeed_TypeDefNS3_18GpioPullUpDownTypeENS3_14GpioOutputTypeE+0x38>
                             port==GPIOC ? RCC_AHBPeriph_GPIOC :
 800205a:	2080      	movs	r0, #128	; 0x80
 800205c:	0300      	lsls	r0, r0, #12
 800205e:	e7bb      	b.n	8001fd8 <_ZN9stm32plus18GpioPinInitialiser10initialiseEP12GPIO_TypeDeftNS_4Gpio12GpioModeTypeE17GPIOSpeed_TypeDefNS3_18GpioPullUpDownTypeENS3_14GpioOutputTypeE+0x38>
                             port==GPIOD ? RCC_AHBPeriph_GPIOD :
 8002060:	0340      	lsls	r0, r0, #13
 8002062:	e7b9      	b.n	8001fd8 <_ZN9stm32plus18GpioPinInitialiser10initialiseEP12GPIO_TypeDeftNS_4Gpio12GpioModeTypeE17GPIOSpeed_TypeDefNS3_18GpioPullUpDownTypeENS3_14GpioOutputTypeE+0x38>
 8002064:	48000400 	.word	0x48000400
 8002068:	48000800 	.word	0x48000800
 800206c:	48000c00 	.word	0x48000c00

08002070 <_ZN9stm32plus18GpioPinInitialiser10initialiseEP12GPIO_TypeDeftNS_4Gpio12GpioModeTypeE17GPIOSpeed_TypeDefNS3_18GpioPullUpDownTypeENS3_14GpioOutputTypeEh>:
                    uint8_t afSelection) {
 8002070:	b570      	push	{r4, r5, r6, lr}
 8002072:	000c      	movs	r4, r1
 8002074:	0005      	movs	r5, r0
 8002076:	b082      	sub	sp, #8
 8002078:	a906      	add	r1, sp, #24
 800207a:	a807      	add	r0, sp, #28
 800207c:	7809      	ldrb	r1, [r1, #0]
 800207e:	7800      	ldrb	r0, [r0, #0]
 8002080:	ae08      	add	r6, sp, #32
 8002082:	7836      	ldrb	r6, [r6, #0]
      initialise(port,pins,mode,speed,pupdType,outputType);
 8002084:	9001      	str	r0, [sp, #4]
 8002086:	9100      	str	r1, [sp, #0]
 8002088:	0028      	movs	r0, r5
 800208a:	0021      	movs	r1, r4
 800208c:	f7ff ff88 	bl	8001fa0 <_ZN9stm32plus18GpioPinInitialiser10initialiseEP12GPIO_TypeDeftNS_4Gpio12GpioModeTypeE17GPIOSpeed_TypeDefNS3_18GpioPullUpDownTypeENS3_14GpioOutputTypeE>
        if((pins & bit)!=0)
 8002090:	07e3      	lsls	r3, r4, #31
 8002092:	d421      	bmi.n	80020d8 <_ZN9stm32plus18GpioPinInitialiser10initialiseEP12GPIO_TypeDeftNS_4Gpio12GpioModeTypeE17GPIOSpeed_TypeDefNS3_18GpioPullUpDownTypeENS3_14GpioOutputTypeEh+0x68>
 8002094:	07a3      	lsls	r3, r4, #30
 8002096:	d426      	bmi.n	80020e6 <_ZN9stm32plus18GpioPinInitialiser10initialiseEP12GPIO_TypeDeftNS_4Gpio12GpioModeTypeE17GPIOSpeed_TypeDefNS3_18GpioPullUpDownTypeENS3_14GpioOutputTypeEh+0x76>
 8002098:	0763      	lsls	r3, r4, #29
 800209a:	d42b      	bmi.n	80020f4 <_ZN9stm32plus18GpioPinInitialiser10initialiseEP12GPIO_TypeDeftNS_4Gpio12GpioModeTypeE17GPIOSpeed_TypeDefNS3_18GpioPullUpDownTypeENS3_14GpioOutputTypeEh+0x84>
 800209c:	0723      	lsls	r3, r4, #28
 800209e:	d430      	bmi.n	8002102 <_ZN9stm32plus18GpioPinInitialiser10initialiseEP12GPIO_TypeDeftNS_4Gpio12GpioModeTypeE17GPIOSpeed_TypeDefNS3_18GpioPullUpDownTypeENS3_14GpioOutputTypeEh+0x92>
 80020a0:	06e3      	lsls	r3, r4, #27
 80020a2:	d435      	bmi.n	8002110 <_ZN9stm32plus18GpioPinInitialiser10initialiseEP12GPIO_TypeDeftNS_4Gpio12GpioModeTypeE17GPIOSpeed_TypeDefNS3_18GpioPullUpDownTypeENS3_14GpioOutputTypeEh+0xa0>
 80020a4:	06a3      	lsls	r3, r4, #26
 80020a6:	d43a      	bmi.n	800211e <_ZN9stm32plus18GpioPinInitialiser10initialiseEP12GPIO_TypeDeftNS_4Gpio12GpioModeTypeE17GPIOSpeed_TypeDefNS3_18GpioPullUpDownTypeENS3_14GpioOutputTypeEh+0xae>
 80020a8:	0663      	lsls	r3, r4, #25
 80020aa:	d43f      	bmi.n	800212c <_ZN9stm32plus18GpioPinInitialiser10initialiseEP12GPIO_TypeDeftNS_4Gpio12GpioModeTypeE17GPIOSpeed_TypeDefNS3_18GpioPullUpDownTypeENS3_14GpioOutputTypeEh+0xbc>
 80020ac:	0623      	lsls	r3, r4, #24
 80020ae:	d444      	bmi.n	800213a <_ZN9stm32plus18GpioPinInitialiser10initialiseEP12GPIO_TypeDeftNS_4Gpio12GpioModeTypeE17GPIOSpeed_TypeDefNS3_18GpioPullUpDownTypeENS3_14GpioOutputTypeEh+0xca>
 80020b0:	05e3      	lsls	r3, r4, #23
 80020b2:	d449      	bmi.n	8002148 <_ZN9stm32plus18GpioPinInitialiser10initialiseEP12GPIO_TypeDeftNS_4Gpio12GpioModeTypeE17GPIOSpeed_TypeDefNS3_18GpioPullUpDownTypeENS3_14GpioOutputTypeEh+0xd8>
 80020b4:	05a3      	lsls	r3, r4, #22
 80020b6:	d44e      	bmi.n	8002156 <_ZN9stm32plus18GpioPinInitialiser10initialiseEP12GPIO_TypeDeftNS_4Gpio12GpioModeTypeE17GPIOSpeed_TypeDefNS3_18GpioPullUpDownTypeENS3_14GpioOutputTypeEh+0xe6>
 80020b8:	0563      	lsls	r3, r4, #21
 80020ba:	d453      	bmi.n	8002164 <_ZN9stm32plus18GpioPinInitialiser10initialiseEP12GPIO_TypeDeftNS_4Gpio12GpioModeTypeE17GPIOSpeed_TypeDefNS3_18GpioPullUpDownTypeENS3_14GpioOutputTypeEh+0xf4>
 80020bc:	0523      	lsls	r3, r4, #20
 80020be:	d458      	bmi.n	8002172 <_ZN9stm32plus18GpioPinInitialiser10initialiseEP12GPIO_TypeDeftNS_4Gpio12GpioModeTypeE17GPIOSpeed_TypeDefNS3_18GpioPullUpDownTypeENS3_14GpioOutputTypeEh+0x102>
 80020c0:	04e3      	lsls	r3, r4, #19
 80020c2:	d45d      	bmi.n	8002180 <_ZN9stm32plus18GpioPinInitialiser10initialiseEP12GPIO_TypeDeftNS_4Gpio12GpioModeTypeE17GPIOSpeed_TypeDefNS3_18GpioPullUpDownTypeENS3_14GpioOutputTypeEh+0x110>
 80020c4:	04a3      	lsls	r3, r4, #18
 80020c6:	d462      	bmi.n	800218e <_ZN9stm32plus18GpioPinInitialiser10initialiseEP12GPIO_TypeDeftNS_4Gpio12GpioModeTypeE17GPIOSpeed_TypeDefNS3_18GpioPullUpDownTypeENS3_14GpioOutputTypeEh+0x11e>
 80020c8:	0463      	lsls	r3, r4, #17
 80020ca:	d467      	bmi.n	800219c <_ZN9stm32plus18GpioPinInitialiser10initialiseEP12GPIO_TypeDeftNS_4Gpio12GpioModeTypeE17GPIOSpeed_TypeDefNS3_18GpioPullUpDownTypeENS3_14GpioOutputTypeEh+0x12c>
 80020cc:	b224      	sxth	r4, r4
 80020ce:	2c00      	cmp	r4, #0
 80020d0:	da00      	bge.n	80020d4 <_ZN9stm32plus18GpioPinInitialiser10initialiseEP12GPIO_TypeDeftNS_4Gpio12GpioModeTypeE17GPIOSpeed_TypeDefNS3_18GpioPullUpDownTypeENS3_14GpioOutputTypeEh+0x64>
 80020d2:	e06c      	b.n	80021ae <_ZN9stm32plus18GpioPinInitialiser10initialiseEP12GPIO_TypeDeftNS_4Gpio12GpioModeTypeE17GPIOSpeed_TypeDefNS3_18GpioPullUpDownTypeENS3_14GpioOutputTypeEh+0x13e>
    }
 80020d4:	b002      	add	sp, #8
 80020d6:	bd70      	pop	{r4, r5, r6, pc}
          GPIO_PinAFConfig(port,source,afSelection);
 80020d8:	0032      	movs	r2, r6
 80020da:	2100      	movs	r1, #0
 80020dc:	0028      	movs	r0, r5
 80020de:	f000 f9af 	bl	8002440 <GPIO_PinAFConfig>
        if((pins & bit)!=0)
 80020e2:	07a3      	lsls	r3, r4, #30
 80020e4:	d5d8      	bpl.n	8002098 <_ZN9stm32plus18GpioPinInitialiser10initialiseEP12GPIO_TypeDeftNS_4Gpio12GpioModeTypeE17GPIOSpeed_TypeDefNS3_18GpioPullUpDownTypeENS3_14GpioOutputTypeEh+0x28>
          GPIO_PinAFConfig(port,source,afSelection);
 80020e6:	0032      	movs	r2, r6
 80020e8:	2101      	movs	r1, #1
 80020ea:	0028      	movs	r0, r5
 80020ec:	f000 f9a8 	bl	8002440 <GPIO_PinAFConfig>
        if((pins & bit)!=0)
 80020f0:	0763      	lsls	r3, r4, #29
 80020f2:	d5d3      	bpl.n	800209c <_ZN9stm32plus18GpioPinInitialiser10initialiseEP12GPIO_TypeDeftNS_4Gpio12GpioModeTypeE17GPIOSpeed_TypeDefNS3_18GpioPullUpDownTypeENS3_14GpioOutputTypeEh+0x2c>
          GPIO_PinAFConfig(port,source,afSelection);
 80020f4:	0032      	movs	r2, r6
 80020f6:	2102      	movs	r1, #2
 80020f8:	0028      	movs	r0, r5
 80020fa:	f000 f9a1 	bl	8002440 <GPIO_PinAFConfig>
        if((pins & bit)!=0)
 80020fe:	0723      	lsls	r3, r4, #28
 8002100:	d5ce      	bpl.n	80020a0 <_ZN9stm32plus18GpioPinInitialiser10initialiseEP12GPIO_TypeDeftNS_4Gpio12GpioModeTypeE17GPIOSpeed_TypeDefNS3_18GpioPullUpDownTypeENS3_14GpioOutputTypeEh+0x30>
          GPIO_PinAFConfig(port,source,afSelection);
 8002102:	0032      	movs	r2, r6
 8002104:	2103      	movs	r1, #3
 8002106:	0028      	movs	r0, r5
 8002108:	f000 f99a 	bl	8002440 <GPIO_PinAFConfig>
        if((pins & bit)!=0)
 800210c:	06e3      	lsls	r3, r4, #27
 800210e:	d5c9      	bpl.n	80020a4 <_ZN9stm32plus18GpioPinInitialiser10initialiseEP12GPIO_TypeDeftNS_4Gpio12GpioModeTypeE17GPIOSpeed_TypeDefNS3_18GpioPullUpDownTypeENS3_14GpioOutputTypeEh+0x34>
          GPIO_PinAFConfig(port,source,afSelection);
 8002110:	0032      	movs	r2, r6
 8002112:	2104      	movs	r1, #4
 8002114:	0028      	movs	r0, r5
 8002116:	f000 f993 	bl	8002440 <GPIO_PinAFConfig>
        if((pins & bit)!=0)
 800211a:	06a3      	lsls	r3, r4, #26
 800211c:	d5c4      	bpl.n	80020a8 <_ZN9stm32plus18GpioPinInitialiser10initialiseEP12GPIO_TypeDeftNS_4Gpio12GpioModeTypeE17GPIOSpeed_TypeDefNS3_18GpioPullUpDownTypeENS3_14GpioOutputTypeEh+0x38>
          GPIO_PinAFConfig(port,source,afSelection);
 800211e:	0032      	movs	r2, r6
 8002120:	2105      	movs	r1, #5
 8002122:	0028      	movs	r0, r5
 8002124:	f000 f98c 	bl	8002440 <GPIO_PinAFConfig>
        if((pins & bit)!=0)
 8002128:	0663      	lsls	r3, r4, #25
 800212a:	d5bf      	bpl.n	80020ac <_ZN9stm32plus18GpioPinInitialiser10initialiseEP12GPIO_TypeDeftNS_4Gpio12GpioModeTypeE17GPIOSpeed_TypeDefNS3_18GpioPullUpDownTypeENS3_14GpioOutputTypeEh+0x3c>
          GPIO_PinAFConfig(port,source,afSelection);
 800212c:	0032      	movs	r2, r6
 800212e:	2106      	movs	r1, #6
 8002130:	0028      	movs	r0, r5
 8002132:	f000 f985 	bl	8002440 <GPIO_PinAFConfig>
        if((pins & bit)!=0)
 8002136:	0623      	lsls	r3, r4, #24
 8002138:	d5ba      	bpl.n	80020b0 <_ZN9stm32plus18GpioPinInitialiser10initialiseEP12GPIO_TypeDeftNS_4Gpio12GpioModeTypeE17GPIOSpeed_TypeDefNS3_18GpioPullUpDownTypeENS3_14GpioOutputTypeEh+0x40>
          GPIO_PinAFConfig(port,source,afSelection);
 800213a:	0032      	movs	r2, r6
 800213c:	2107      	movs	r1, #7
 800213e:	0028      	movs	r0, r5
 8002140:	f000 f97e 	bl	8002440 <GPIO_PinAFConfig>
        if((pins & bit)!=0)
 8002144:	05e3      	lsls	r3, r4, #23
 8002146:	d5b5      	bpl.n	80020b4 <_ZN9stm32plus18GpioPinInitialiser10initialiseEP12GPIO_TypeDeftNS_4Gpio12GpioModeTypeE17GPIOSpeed_TypeDefNS3_18GpioPullUpDownTypeENS3_14GpioOutputTypeEh+0x44>
          GPIO_PinAFConfig(port,source,afSelection);
 8002148:	0032      	movs	r2, r6
 800214a:	2108      	movs	r1, #8
 800214c:	0028      	movs	r0, r5
 800214e:	f000 f977 	bl	8002440 <GPIO_PinAFConfig>
        if((pins & bit)!=0)
 8002152:	05a3      	lsls	r3, r4, #22
 8002154:	d5b0      	bpl.n	80020b8 <_ZN9stm32plus18GpioPinInitialiser10initialiseEP12GPIO_TypeDeftNS_4Gpio12GpioModeTypeE17GPIOSpeed_TypeDefNS3_18GpioPullUpDownTypeENS3_14GpioOutputTypeEh+0x48>
          GPIO_PinAFConfig(port,source,afSelection);
 8002156:	0032      	movs	r2, r6
 8002158:	2109      	movs	r1, #9
 800215a:	0028      	movs	r0, r5
 800215c:	f000 f970 	bl	8002440 <GPIO_PinAFConfig>
        if((pins & bit)!=0)
 8002160:	0563      	lsls	r3, r4, #21
 8002162:	d5ab      	bpl.n	80020bc <_ZN9stm32plus18GpioPinInitialiser10initialiseEP12GPIO_TypeDeftNS_4Gpio12GpioModeTypeE17GPIOSpeed_TypeDefNS3_18GpioPullUpDownTypeENS3_14GpioOutputTypeEh+0x4c>
          GPIO_PinAFConfig(port,source,afSelection);
 8002164:	0032      	movs	r2, r6
 8002166:	210a      	movs	r1, #10
 8002168:	0028      	movs	r0, r5
 800216a:	f000 f969 	bl	8002440 <GPIO_PinAFConfig>
        if((pins & bit)!=0)
 800216e:	0523      	lsls	r3, r4, #20
 8002170:	d5a6      	bpl.n	80020c0 <_ZN9stm32plus18GpioPinInitialiser10initialiseEP12GPIO_TypeDeftNS_4Gpio12GpioModeTypeE17GPIOSpeed_TypeDefNS3_18GpioPullUpDownTypeENS3_14GpioOutputTypeEh+0x50>
          GPIO_PinAFConfig(port,source,afSelection);
 8002172:	0032      	movs	r2, r6
 8002174:	210b      	movs	r1, #11
 8002176:	0028      	movs	r0, r5
 8002178:	f000 f962 	bl	8002440 <GPIO_PinAFConfig>
        if((pins & bit)!=0)
 800217c:	04e3      	lsls	r3, r4, #19
 800217e:	d5a1      	bpl.n	80020c4 <_ZN9stm32plus18GpioPinInitialiser10initialiseEP12GPIO_TypeDeftNS_4Gpio12GpioModeTypeE17GPIOSpeed_TypeDefNS3_18GpioPullUpDownTypeENS3_14GpioOutputTypeEh+0x54>
          GPIO_PinAFConfig(port,source,afSelection);
 8002180:	0032      	movs	r2, r6
 8002182:	210c      	movs	r1, #12
 8002184:	0028      	movs	r0, r5
 8002186:	f000 f95b 	bl	8002440 <GPIO_PinAFConfig>
        if((pins & bit)!=0)
 800218a:	04a3      	lsls	r3, r4, #18
 800218c:	d59c      	bpl.n	80020c8 <_ZN9stm32plus18GpioPinInitialiser10initialiseEP12GPIO_TypeDeftNS_4Gpio12GpioModeTypeE17GPIOSpeed_TypeDefNS3_18GpioPullUpDownTypeENS3_14GpioOutputTypeEh+0x58>
          GPIO_PinAFConfig(port,source,afSelection);
 800218e:	0032      	movs	r2, r6
 8002190:	210d      	movs	r1, #13
 8002192:	0028      	movs	r0, r5
 8002194:	f000 f954 	bl	8002440 <GPIO_PinAFConfig>
        if((pins & bit)!=0)
 8002198:	0463      	lsls	r3, r4, #17
 800219a:	d597      	bpl.n	80020cc <_ZN9stm32plus18GpioPinInitialiser10initialiseEP12GPIO_TypeDeftNS_4Gpio12GpioModeTypeE17GPIOSpeed_TypeDefNS3_18GpioPullUpDownTypeENS3_14GpioOutputTypeEh+0x5c>
          GPIO_PinAFConfig(port,source,afSelection);
 800219c:	0032      	movs	r2, r6
 800219e:	210e      	movs	r1, #14
 80021a0:	0028      	movs	r0, r5
        if((pins & bit)!=0)
 80021a2:	b224      	sxth	r4, r4
          GPIO_PinAFConfig(port,source,afSelection);
 80021a4:	f000 f94c 	bl	8002440 <GPIO_PinAFConfig>
        if((pins & bit)!=0)
 80021a8:	2c00      	cmp	r4, #0
 80021aa:	db00      	blt.n	80021ae <_ZN9stm32plus18GpioPinInitialiser10initialiseEP12GPIO_TypeDeftNS_4Gpio12GpioModeTypeE17GPIOSpeed_TypeDefNS3_18GpioPullUpDownTypeENS3_14GpioOutputTypeEh+0x13e>
 80021ac:	e792      	b.n	80020d4 <_ZN9stm32plus18GpioPinInitialiser10initialiseEP12GPIO_TypeDeftNS_4Gpio12GpioModeTypeE17GPIOSpeed_TypeDefNS3_18GpioPullUpDownTypeENS3_14GpioOutputTypeEh+0x64>
          GPIO_PinAFConfig(port,source,afSelection);
 80021ae:	0032      	movs	r2, r6
 80021b0:	210f      	movs	r1, #15
 80021b2:	0028      	movs	r0, r5
 80021b4:	f000 f944 	bl	8002440 <GPIO_PinAFConfig>
    }
 80021b8:	e78c      	b.n	80020d4 <_ZN9stm32plus18GpioPinInitialiser10initialiseEP12GPIO_TypeDeftNS_4Gpio12GpioModeTypeE17GPIOSpeed_TypeDefNS3_18GpioPullUpDownTypeENS3_14GpioOutputTypeEh+0x64>
 80021ba:	46c0      	nop			; (mov r8, r8)

080021bc <__aeabi_uidiv>:
 80021bc:	2900      	cmp	r1, #0
 80021be:	d100      	bne.n	80021c2 <L_no_div0>
 80021c0:	e014      	b.n	80021ec <__aeabi_idiv0>

080021c2 <L_no_div0>:
 80021c2:	2201      	movs	r2, #1
 80021c4:	2300      	movs	r3, #0
 80021c6:	4288      	cmp	r0, r1
 80021c8:	d906      	bls.n	80021d8 <L_sub_loop0>
 80021ca:	3100      	adds	r1, #0
 80021cc:	d404      	bmi.n	80021d8 <L_sub_loop0>

080021ce <L_denom_shift_loop>:
 80021ce:	0052      	lsls	r2, r2, #1
 80021d0:	0049      	lsls	r1, r1, #1
 80021d2:	d401      	bmi.n	80021d8 <L_sub_loop0>
 80021d4:	4288      	cmp	r0, r1
 80021d6:	d8fa      	bhi.n	80021ce <L_denom_shift_loop>

080021d8 <L_sub_loop0>:
 80021d8:	4288      	cmp	r0, r1
 80021da:	d301      	bcc.n	80021e0 <L_dont_sub0>
 80021dc:	1a40      	subs	r0, r0, r1
 80021de:	4313      	orrs	r3, r2

080021e0 <L_dont_sub0>:
 80021e0:	0849      	lsrs	r1, r1, #1
 80021e2:	0852      	lsrs	r2, r2, #1
 80021e4:	d1f8      	bne.n	80021d8 <L_sub_loop0>
 80021e6:	4601      	mov	r1, r0
 80021e8:	4618      	mov	r0, r3
 80021ea:	4770      	bx	lr

080021ec <__aeabi_idiv0>:
 80021ec:	f7ff fffe 	bl	80021ec <__aeabi_idiv0>

080021f0 <_ZN9stm32plus16MillisecondTimer10initialiseEv>:

  /**
   * Initialise SysTick to tick at 1ms by initialising it with SystemCoreClock/1000.
   */

  void MillisecondTimer::initialise() {
 80021f0:	b510      	push	{r4, lr}
    _counter=0;
 80021f2:	2400      	movs	r4, #0
    SysTick_Config(SystemCoreClock / 1000);
 80021f4:	21fa      	movs	r1, #250	; 0xfa
    _counter=0;
 80021f6:	4b0c      	ldr	r3, [pc, #48]	; (8002228 <_ZN9stm32plus16MillisecondTimer10initialiseEv+0x38>)
    SysTick_Config(SystemCoreClock / 1000);
 80021f8:	0089      	lsls	r1, r1, #2
    _counter=0;
 80021fa:	601c      	str	r4, [r3, #0]
    SysTick_Config(SystemCoreClock / 1000);
 80021fc:	4b0b      	ldr	r3, [pc, #44]	; (800222c <_ZN9stm32plus16MillisecondTimer10initialiseEv+0x3c>)
 80021fe:	6818      	ldr	r0, [r3, #0]
 8002200:	f7ff ffdc 	bl	80021bc <__aeabi_uidiv>
    must contain a vendor-specific implementation of this function.

 */
__STATIC_INLINE uint32_t SysTick_Config(uint32_t ticks)
{
  if ((ticks - 1) > SysTick_LOAD_RELOAD_Msk)  return (1);      /* Reload value impossible */
 8002204:	4b0a      	ldr	r3, [pc, #40]	; (8002230 <_ZN9stm32plus16MillisecondTimer10initialiseEv+0x40>)
 8002206:	3801      	subs	r0, #1
 8002208:	4298      	cmp	r0, r3
 800220a:	d80c      	bhi.n	8002226 <_ZN9stm32plus16MillisecondTimer10initialiseEv+0x36>
    SCB->SHP[_SHP_IDX(IRQn)] = (SCB->SHP[_SHP_IDX(IRQn)] & ~(0xFF << _BIT_SHIFT(IRQn))) |
 800220c:	21c0      	movs	r1, #192	; 0xc0

  SysTick->LOAD  = ticks - 1;                                  /* set reload register */
 800220e:	4a09      	ldr	r2, [pc, #36]	; (8002234 <_ZN9stm32plus16MillisecondTimer10initialiseEv+0x44>)
    SCB->SHP[_SHP_IDX(IRQn)] = (SCB->SHP[_SHP_IDX(IRQn)] & ~(0xFF << _BIT_SHIFT(IRQn))) |
 8002210:	0609      	lsls	r1, r1, #24
  SysTick->LOAD  = ticks - 1;                                  /* set reload register */
 8002212:	6050      	str	r0, [r2, #4]
    SCB->SHP[_SHP_IDX(IRQn)] = (SCB->SHP[_SHP_IDX(IRQn)] & ~(0xFF << _BIT_SHIFT(IRQn))) |
 8002214:	4808      	ldr	r0, [pc, #32]	; (8002238 <_ZN9stm32plus16MillisecondTimer10initialiseEv+0x48>)
 8002216:	6a03      	ldr	r3, [r0, #32]
 8002218:	021b      	lsls	r3, r3, #8
 800221a:	0a1b      	lsrs	r3, r3, #8
 800221c:	430b      	orrs	r3, r1
 800221e:	6203      	str	r3, [r0, #32]
  NVIC_SetPriority (SysTick_IRQn, (1<<__NVIC_PRIO_BITS) - 1);  /* set Priority for Systick Interrupt */
  SysTick->VAL   = 0;                                          /* Load the SysTick Counter Value */
  SysTick->CTRL  = SysTick_CTRL_CLKSOURCE_Msk |
 8002220:	2307      	movs	r3, #7
  SysTick->VAL   = 0;                                          /* Load the SysTick Counter Value */
 8002222:	6094      	str	r4, [r2, #8]
  SysTick->CTRL  = SysTick_CTRL_CLKSOURCE_Msk |
 8002224:	6013      	str	r3, [r2, #0]
  }
 8002226:	bd10      	pop	{r4, pc}
 8002228:	20000880 	.word	0x20000880
 800222c:	20000004 	.word	0x20000004
 8002230:	00ffffff 	.word	0x00ffffff
 8002234:	e000e010 	.word	0xe000e010
 8002238:	e000ed00 	.word	0xe000ed00

0800223c <_ZN9stm32plus16MillisecondTimer5delayEm>:

  void MillisecondTimer::delay(uint32_t millis) {

    uint32_t target;

    target=_counter+millis;
 800223c:	4a03      	ldr	r2, [pc, #12]	; (800224c <_ZN9stm32plus16MillisecondTimer5delayEm+0x10>)
 800223e:	6813      	ldr	r3, [r2, #0]
 8002240:	1818      	adds	r0, r3, r0
    while(_counter<target);
 8002242:	6813      	ldr	r3, [r2, #0]
 8002244:	4298      	cmp	r0, r3
 8002246:	d8fc      	bhi.n	8002242 <_ZN9stm32plus16MillisecondTimer5delayEm+0x6>
  }
 8002248:	4770      	bx	lr
 800224a:	46c0      	nop			; (mov r8, r8)
 800224c:	20000880 	.word	0x20000880

08002250 <SysTick_Handler>:
 * SysTick interrupt handler
 */

extern "C" {
  void __attribute__ ((weak,interrupt("IRQ"))) SysTick_Handler(void) {
    stm32plus::MillisecondTimer::_counter++;
 8002250:	4a02      	ldr	r2, [pc, #8]	; (800225c <SysTick_Handler+0xc>)
 8002252:	6813      	ldr	r3, [r2, #0]
 8002254:	3301      	adds	r3, #1
 8002256:	6013      	str	r3, [r2, #0]
  }
 8002258:	4770      	bx	lr
 800225a:	46c0      	nop			; (mov r8, r8)
 800225c:	20000880 	.word	0x20000880

08002260 <_ZN9stm32plus19UsbInterruptHandlerD1Ev>:
   * USB interrupt event handling
   */

  DECLARE_EVENT_SIGNATURE(UsbInterrupt,void());

  struct UsbInterruptHandler {
 8002260:	b570      	push	{r4, r5, r6, lr}
 8002262:	0005      	movs	r5, r0
  _Slist_node<_Tp>* __cur = (_Slist_node<_Tp>*) (__before_first->_M_next);
 8002264:	68c0      	ldr	r0, [r0, #12]
  while (__cur != __last_node) {
 8002266:	2800      	cmp	r0, #0
 8002268:	d004      	beq.n	8002274 <_ZN9stm32plus19UsbInterruptHandlerD1Ev+0x14>
    __cur = (_Slist_node<_Tp>*) __cur->_M_next;
 800226a:	6804      	ldr	r4, [r0, #0]
    stm32_free(__p);
 800226c:	f000 f9e4 	bl	8002638 <free>
 8002270:	1e20      	subs	r0, r4, #0
  while (__cur != __last_node) {
 8002272:	d1fa      	bne.n	800226a <_ZN9stm32plus19UsbInterruptHandlerD1Ev+0xa>
 8002274:	0028      	movs	r0, r5
 8002276:	bd70      	pop	{r4, r5, r6, pc}

08002278 <USB_IRQHandler>:
  size_type size() const { return __slist_size(this->_M_head._M_next); }
 8002278:	4919      	ldr	r1, [pc, #100]	; (80022e0 <USB_IRQHandler+0x68>)

  /*
   * USB interrupt handler
   */

  void __attribute__ ((interrupt("IRQ"))) USB_IRQHandler(void) {
 800227a:	b570      	push	{r4, r5, r6, lr}
 800227c:	68cc      	ldr	r4, [r1, #12]
  for ( ; __node != 0; __node = __node->_M_next)
 800227e:	2c00      	cmp	r4, #0
 8002280:	d013      	beq.n	80022aa <USB_IRQHandler+0x32>
 8002282:	0023      	movs	r3, r4
 8002284:	2200      	movs	r2, #0
 8002286:	681b      	ldr	r3, [r3, #0]
    ++__result;
 8002288:	3201      	adds	r2, #1
  for ( ; __node != 0; __node = __node->_M_next)
 800228a:	2b00      	cmp	r3, #0
 800228c:	d1fb      	bne.n	8002286 <USB_IRQHandler+0xe>
        if(_slots.size()==1)
 800228e:	2a01      	cmp	r2, #1
 8002290:	d017      	beq.n	80022c2 <USB_IRQHandler+0x4a>
  return (m_Closure.GetClosureThis()->*(m_Closure.GetClosureMemPtr()))(); }
 8002292:	2501      	movs	r5, #1
  inline GenericMemFunc GetClosureMemPtr() const { return reinterpret_cast<GenericMemFunc>(m_pFunction); }
 8002294:	68e3      	ldr	r3, [r4, #12]
 8002296:	6860      	ldr	r0, [r4, #4]
 8002298:	68a2      	ldr	r2, [r4, #8]
  return (m_Closure.GetClosureThis()->*(m_Closure.GetClosureMemPtr()))(); }
 800229a:	421d      	tst	r5, r3
 800229c:	d108      	bne.n	80022b0 <USB_IRQHandler+0x38>
 800229e:	105b      	asrs	r3, r3, #1
 80022a0:	18c0      	adds	r0, r0, r3
 80022a2:	4790      	blx	r2
  void _M_incr() { _M_node = _M_node->_M_next; }
 80022a4:	6824      	ldr	r4, [r4, #0]
          for(auto it=_slots.begin();it!=_slots.end();it++)
 80022a6:	2c00      	cmp	r4, #0
 80022a8:	d1f4      	bne.n	8002294 <USB_IRQHandler+0x1c>
    This function acts as a special kind of Data Memory Barrier.
    It completes when all explicit memory accesses before this instruction complete.
 */
__attribute__( ( always_inline ) ) __STATIC_INLINE void __DSB(void)
{
  __ASM volatile ("dsb");
 80022aa:	f3bf 8f4f 	dsb	sy
    stm32plus::usbInterrupt.UsbInterruptEventSender.raiseEvent();
    __DSB();
  }
 80022ae:	bd70      	pop	{r4, r5, r6, pc}
 80022b0:	105b      	asrs	r3, r3, #1
 80022b2:	18c0      	adds	r0, r0, r3
 80022b4:	6803      	ldr	r3, [r0, #0]
 80022b6:	589b      	ldr	r3, [r3, r2]
 80022b8:	4798      	blx	r3
 80022ba:	6824      	ldr	r4, [r4, #0]
 80022bc:	2c00      	cmp	r4, #0
 80022be:	d1e9      	bne.n	8002294 <USB_IRQHandler+0x1c>
 80022c0:	e7f3      	b.n	80022aa <USB_IRQHandler+0x32>
  inline GenericMemFunc GetClosureMemPtr() const { return reinterpret_cast<GenericMemFunc>(m_pFunction); }
 80022c2:	688b      	ldr	r3, [r1, #8]
 80022c4:	6808      	ldr	r0, [r1, #0]
 80022c6:	684c      	ldr	r4, [r1, #4]
  return (m_Closure.GetClosureThis()->*(m_Closure.GetClosureMemPtr()))(); }
 80022c8:	421a      	tst	r2, r3
 80022ca:	d005      	beq.n	80022d8 <USB_IRQHandler+0x60>
 80022cc:	105b      	asrs	r3, r3, #1
 80022ce:	18c0      	adds	r0, r0, r3
 80022d0:	6803      	ldr	r3, [r0, #0]
 80022d2:	591c      	ldr	r4, [r3, r4]
 80022d4:	47a0      	blx	r4
 80022d6:	e7e8      	b.n	80022aa <USB_IRQHandler+0x32>
 80022d8:	105b      	asrs	r3, r3, #1
 80022da:	18c0      	adds	r0, r0, r3
 80022dc:	47a0      	blx	r4
 80022de:	e7e4      	b.n	80022aa <USB_IRQHandler+0x32>
 80022e0:	20000884 	.word	0x20000884

080022e4 <_GLOBAL__sub_I__ZN9stm32plus12usbInterruptE>:
  DelegateMemento() : m_pthis(0), m_pFunction(0) {};
 80022e4:	2300      	movs	r3, #0
}
 80022e6:	b510      	push	{r4, lr}
 80022e8:	4804      	ldr	r0, [pc, #16]	; (80022fc <_GLOBAL__sub_I__ZN9stm32plus12usbInterruptE+0x18>)
  UsbInterruptHandler usbInterrupt;
 80022ea:	4a05      	ldr	r2, [pc, #20]	; (8002300 <_GLOBAL__sub_I__ZN9stm32plus12usbInterruptE+0x1c>)
 80022ec:	6003      	str	r3, [r0, #0]
 80022ee:	6043      	str	r3, [r0, #4]
 80022f0:	6083      	str	r3, [r0, #8]
    : _Base(__a) { this->_M_head._M_next = 0; }
 80022f2:	60c3      	str	r3, [r0, #12]
 80022f4:	4903      	ldr	r1, [pc, #12]	; (8002304 <_GLOBAL__sub_I__ZN9stm32plus12usbInterruptE+0x20>)
 80022f6:	f000 f961 	bl	80025bc <__aeabi_atexit>
}
 80022fa:	bd10      	pop	{r4, pc}
 80022fc:	20000884 	.word	0x20000884
 8002300:	20000000 	.word	0x20000000
 8002304:	08002261 	.word	0x08002261

08002308 <DMA_Init>:
  assert_param(IS_DMA_PRIORITY(DMA_InitStruct->DMA_Priority));
  assert_param(IS_DMA_M2M_STATE(DMA_InitStruct->DMA_M2M));

/*--------------------------- DMAy Channelx CCR Configuration ----------------*/
  /* Get the DMAy_Channelx CCR value */
  tmpreg = DMAy_Channelx->CCR;
 8002308:	6803      	ldr	r3, [r0, #0]

  /* Clear MEM2MEM, PL, MSIZE, PSIZE, MINC, PINC, CIRC and DIR bits */
  tmpreg &= CCR_CLEAR_MASK;
 800230a:	4a0d      	ldr	r2, [pc, #52]	; (8002340 <DMA_Init+0x38>)
{
 800230c:	b510      	push	{r4, lr}
  tmpreg &= CCR_CLEAR_MASK;
 800230e:	401a      	ands	r2, r3
  /* Set MINC bit according to DMA_MemoryInc value */
  /* Set PSIZE bits according to DMA_PeripheralDataSize value */
  /* Set MSIZE bits according to DMA_MemoryDataSize value */
  /* Set PL bits according to DMA_Priority value */
  /* Set the MEM2MEM bit according to DMA_M2M value */
  tmpreg |= DMA_InitStruct->DMA_DIR | DMA_InitStruct->DMA_Mode |
 8002310:	6a0c      	ldr	r4, [r1, #32]
 8002312:	688b      	ldr	r3, [r1, #8]
 8002314:	4323      	orrs	r3, r4
 8002316:	690c      	ldr	r4, [r1, #16]
 8002318:	4323      	orrs	r3, r4
            DMA_InitStruct->DMA_PeripheralInc | DMA_InitStruct->DMA_MemoryInc |
 800231a:	694c      	ldr	r4, [r1, #20]
 800231c:	4323      	orrs	r3, r4
 800231e:	698c      	ldr	r4, [r1, #24]
 8002320:	4323      	orrs	r3, r4
            DMA_InitStruct->DMA_PeripheralDataSize | DMA_InitStruct->DMA_MemoryDataSize |
 8002322:	69cc      	ldr	r4, [r1, #28]
 8002324:	4323      	orrs	r3, r4
 8002326:	6a4c      	ldr	r4, [r1, #36]	; 0x24
 8002328:	4323      	orrs	r3, r4
            DMA_InitStruct->DMA_Priority | DMA_InitStruct->DMA_M2M;
 800232a:	6a8c      	ldr	r4, [r1, #40]	; 0x28
 800232c:	4323      	orrs	r3, r4
  tmpreg |= DMA_InitStruct->DMA_DIR | DMA_InitStruct->DMA_Mode |
 800232e:	4313      	orrs	r3, r2

  /* Write to DMAy Channelx CCR */
  DMAy_Channelx->CCR = tmpreg;
 8002330:	6003      	str	r3, [r0, #0]

/*--------------------------- DMAy Channelx CNDTR Configuration --------------*/
  /* Write to DMAy Channelx CNDTR */
  DMAy_Channelx->CNDTR = DMA_InitStruct->DMA_BufferSize;
 8002332:	68cb      	ldr	r3, [r1, #12]
 8002334:	6043      	str	r3, [r0, #4]

/*--------------------------- DMAy Channelx CPAR Configuration ---------------*/
  /* Write to DMAy Channelx CPAR */
  DMAy_Channelx->CPAR = DMA_InitStruct->DMA_PeripheralBaseAddr;
 8002336:	680b      	ldr	r3, [r1, #0]
 8002338:	6083      	str	r3, [r0, #8]

/*--------------------------- DMAy Channelx CMAR Configuration ---------------*/
  /* Write to DMAy Channelx CMAR */
  DMAy_Channelx->CMAR = DMA_InitStruct->DMA_MemoryBaseAddr;
 800233a:	684b      	ldr	r3, [r1, #4]
 800233c:	60c3      	str	r3, [r0, #12]
}
 800233e:	bd10      	pop	{r4, pc}
 8002340:	ffff800f 	.word	0xffff800f

08002344 <DMA_Cmd>:
  assert_param(IS_FUNCTIONAL_STATE(NewState));

  if (NewState != DISABLE)
  {
    /* Enable the selected DMAy Channelx */
    DMAy_Channelx->CCR |= DMA_CCR_EN;
 8002344:	6803      	ldr	r3, [r0, #0]
  if (NewState != DISABLE)
 8002346:	2900      	cmp	r1, #0
 8002348:	d103      	bne.n	8002352 <DMA_Cmd+0xe>
  }
  else
  {
    /* Disable the selected DMAy Channelx */
    DMAy_Channelx->CCR &= (uint16_t)(~DMA_CCR_EN);
 800234a:	4a04      	ldr	r2, [pc, #16]	; (800235c <DMA_Cmd+0x18>)
 800234c:	4013      	ands	r3, r2
 800234e:	6003      	str	r3, [r0, #0]
  }
}
 8002350:	4770      	bx	lr
    DMAy_Channelx->CCR |= DMA_CCR_EN;
 8002352:	2201      	movs	r2, #1
 8002354:	4313      	orrs	r3, r2
 8002356:	6003      	str	r3, [r0, #0]
 8002358:	e7fa      	b.n	8002350 <DMA_Cmd+0xc>
 800235a:	46c0      	nop			; (mov r8, r8)
 800235c:	0000fffe 	.word	0x0000fffe

08002360 <GPIO_Init>:
  * @param  GPIO_InitStruct: pointer to a GPIO_InitTypeDef structure that contains
  *         the configuration information for the specified GPIO peripheral.
  * @retval None
  */
void GPIO_Init(GPIO_TypeDef* GPIOx, GPIO_InitTypeDef* GPIO_InitStruct)
{
 8002360:	b5f0      	push	{r4, r5, r6, r7, lr}
 8002362:	4657      	mov	r7, sl
 8002364:	4645      	mov	r5, r8
 8002366:	46de      	mov	lr, fp
 8002368:	464e      	mov	r6, r9
      GPIOx->MODER  &= ~(GPIO_MODER_MODER0 << (pinpos * 2));

      GPIOx->MODER |= (((uint32_t)GPIO_InitStruct->GPIO_Mode) << (pinpos * 2));

      /* Pull-up Pull down resistor configuration */
      GPIOx->PUPDR &= ~(GPIO_PUPDR_PUPDR0 << ((uint16_t)pinpos * 2));
 800236a:	2403      	movs	r4, #3
{
 800236c:	b5e0      	push	{r5, r6, r7, lr}
 800236e:	468c      	mov	ip, r1
 8002370:	b083      	sub	sp, #12
 8002372:	6809      	ldr	r1, [r1, #0]
 8002374:	2200      	movs	r2, #0
  for (pinpos = 0x00; pinpos < 0x10; pinpos++)
 8002376:	2300      	movs	r3, #0
    pos = ((uint32_t)0x01) << pinpos;
 8002378:	2701      	movs	r7, #1
      GPIOx->PUPDR &= ~(GPIO_PUPDR_PUPDR0 << ((uint16_t)pinpos * 2));
 800237a:	46a0      	mov	r8, r4
 800237c:	e003      	b.n	8002386 <GPIO_Init+0x26>
  for (pinpos = 0x00; pinpos < 0x10; pinpos++)
 800237e:	3301      	adds	r3, #1
 8002380:	3202      	adds	r2, #2
 8002382:	2b10      	cmp	r3, #16
 8002384:	d027      	beq.n	80023d6 <GPIO_Init+0x76>
    pos = ((uint32_t)0x01) << pinpos;
 8002386:	003c      	movs	r4, r7
 8002388:	409c      	lsls	r4, r3
    currentpin = (GPIO_InitStruct->GPIO_Pin) & pos;
 800238a:	0025      	movs	r5, r4
 800238c:	400d      	ands	r5, r1
    if (currentpin == pos)
 800238e:	42ac      	cmp	r4, r5
 8002390:	d1f5      	bne.n	800237e <GPIO_Init+0x1e>
      if ((GPIO_InitStruct->GPIO_Mode == GPIO_Mode_OUT) || (GPIO_InitStruct->GPIO_Mode == GPIO_Mode_AF))
 8002392:	4665      	mov	r5, ip
 8002394:	792d      	ldrb	r5, [r5, #4]
 8002396:	1e6e      	subs	r6, r5, #1
 8002398:	46ab      	mov	fp, r5
 800239a:	2e01      	cmp	r6, #1
 800239c:	d922      	bls.n	80023e4 <GPIO_Init+0x84>
 800239e:	4646      	mov	r6, r8
 80023a0:	4096      	lsls	r6, r2
 80023a2:	43f4      	mvns	r4, r6
 80023a4:	0026      	movs	r6, r4
 80023a6:	9401      	str	r4, [sp, #4]
      GPIOx->MODER |= (((uint32_t)GPIO_InitStruct->GPIO_Mode) << (pinpos * 2));
 80023a8:	465d      	mov	r5, fp
 80023aa:	4095      	lsls	r5, r2
      GPIOx->MODER  &= ~(GPIO_MODER_MODER0 << (pinpos * 2));
 80023ac:	6804      	ldr	r4, [r0, #0]
  for (pinpos = 0x00; pinpos < 0x10; pinpos++)
 80023ae:	3301      	adds	r3, #1
      GPIOx->MODER  &= ~(GPIO_MODER_MODER0 << (pinpos * 2));
 80023b0:	4026      	ands	r6, r4
 80023b2:	6006      	str	r6, [r0, #0]
      GPIOx->MODER |= (((uint32_t)GPIO_InitStruct->GPIO_Mode) << (pinpos * 2));
 80023b4:	6804      	ldr	r4, [r0, #0]
 80023b6:	4325      	orrs	r5, r4
 80023b8:	6005      	str	r5, [r0, #0]
      GPIOx->PUPDR &= ~(GPIO_PUPDR_PUPDR0 << ((uint16_t)pinpos * 2));
 80023ba:	4645      	mov	r5, r8
 80023bc:	4095      	lsls	r5, r2
 80023be:	68c4      	ldr	r4, [r0, #12]
 80023c0:	43ac      	bics	r4, r5
 80023c2:	60c4      	str	r4, [r0, #12]
      GPIOx->PUPDR |= (((uint32_t)GPIO_InitStruct->GPIO_PuPd) << (pinpos * 2));
 80023c4:	4664      	mov	r4, ip
 80023c6:	79e4      	ldrb	r4, [r4, #7]
 80023c8:	68c5      	ldr	r5, [r0, #12]
 80023ca:	4094      	lsls	r4, r2
 80023cc:	432c      	orrs	r4, r5
 80023ce:	60c4      	str	r4, [r0, #12]
 80023d0:	3202      	adds	r2, #2
  for (pinpos = 0x00; pinpos < 0x10; pinpos++)
 80023d2:	2b10      	cmp	r3, #16
 80023d4:	d1d7      	bne.n	8002386 <GPIO_Init+0x26>
    }
  }
}
 80023d6:	b003      	add	sp, #12
 80023d8:	bc3c      	pop	{r2, r3, r4, r5}
 80023da:	4690      	mov	r8, r2
 80023dc:	4699      	mov	r9, r3
 80023de:	46a2      	mov	sl, r4
 80023e0:	46ab      	mov	fp, r5
 80023e2:	bdf0      	pop	{r4, r5, r6, r7, pc}
        GPIOx->OSPEEDR &= ~(GPIO_OSPEEDER_OSPEEDR0 << (pinpos * 2));
 80023e4:	4646      	mov	r6, r8
 80023e6:	4096      	lsls	r6, r2
 80023e8:	43f6      	mvns	r6, r6
 80023ea:	6885      	ldr	r5, [r0, #8]
 80023ec:	9601      	str	r6, [sp, #4]
 80023ee:	4035      	ands	r5, r6
 80023f0:	6085      	str	r5, [r0, #8]
        GPIOx->OSPEEDR |= ((uint32_t)(GPIO_InitStruct->GPIO_Speed) << (pinpos * 2));
 80023f2:	6885      	ldr	r5, [r0, #8]
 80023f4:	46aa      	mov	sl, r5
 80023f6:	4665      	mov	r5, ip
 80023f8:	796d      	ldrb	r5, [r5, #5]
 80023fa:	4095      	lsls	r5, r2
 80023fc:	46a9      	mov	r9, r5
 80023fe:	4655      	mov	r5, sl
 8002400:	464e      	mov	r6, r9
 8002402:	4335      	orrs	r5, r6
 8002404:	6085      	str	r5, [r0, #8]
        GPIOx->OTYPER &= ~((GPIO_OTYPER_OT_0) << ((uint16_t)pinpos));
 8002406:	8885      	ldrh	r5, [r0, #4]
 8002408:	9e01      	ldr	r6, [sp, #4]
 800240a:	43a5      	bics	r5, r4
 800240c:	8085      	strh	r5, [r0, #4]
        GPIOx->OTYPER |= (uint16_t)(((uint16_t)GPIO_InitStruct->GPIO_OType) << ((uint16_t)pinpos));
 800240e:	4665      	mov	r5, ip
 8002410:	79ad      	ldrb	r5, [r5, #6]
 8002412:	8884      	ldrh	r4, [r0, #4]
 8002414:	409d      	lsls	r5, r3
 8002416:	432c      	orrs	r4, r5
 8002418:	b2a4      	uxth	r4, r4
 800241a:	8084      	strh	r4, [r0, #4]
 800241c:	e7c4      	b.n	80023a8 <GPIO_Init+0x48>
 800241e:	46c0      	nop			; (mov r8, r8)

08002420 <GPIO_ReadInputDataBit>:

  /* Check the parameters */
  assert_param(IS_GPIO_ALL_PERIPH(GPIOx));
  assert_param(IS_GET_GPIO_PIN(GPIO_Pin));

  if ((GPIOx->IDR & GPIO_Pin) != (uint32_t)Bit_RESET)
 8002420:	8a00      	ldrh	r0, [r0, #16]
 8002422:	4008      	ands	r0, r1
 8002424:	1e41      	subs	r1, r0, #1
 8002426:	4188      	sbcs	r0, r1
  }
  else
  {
    bitstatus = (uint8_t)Bit_RESET;
  }
  return bitstatus;
 8002428:	b2c0      	uxtb	r0, r0
}
 800242a:	4770      	bx	lr

0800242c <GPIO_SetBits>:
{
  /* Check the parameters */
  assert_param(IS_GPIO_ALL_PERIPH(GPIOx));
  assert_param(IS_GPIO_PIN(GPIO_Pin));

  GPIOx->BSRR = GPIO_Pin;
 800242c:	6181      	str	r1, [r0, #24]
}
 800242e:	4770      	bx	lr

08002430 <GPIO_ResetBits>:
{
  /* Check the parameters */
  assert_param(IS_GPIO_ALL_PERIPH(GPIOx));
  assert_param(IS_GPIO_PIN(GPIO_Pin));

  GPIOx->BRR = GPIO_Pin;
 8002430:	8501      	strh	r1, [r0, #40]	; 0x28
}
 8002432:	4770      	bx	lr

08002434 <GPIO_WriteBit>:
  /* Check the parameters */
  assert_param(IS_GPIO_ALL_PERIPH(GPIOx));
  assert_param(IS_GET_GPIO_PIN(GPIO_Pin));
  assert_param(IS_GPIO_BIT_ACTION(BitVal));

  if (BitVal != Bit_RESET)
 8002434:	2a00      	cmp	r2, #0
 8002436:	d101      	bne.n	800243c <GPIO_WriteBit+0x8>
  {
    GPIOx->BSRR = GPIO_Pin;
  }
  else
  {
    GPIOx->BRR = GPIO_Pin ;
 8002438:	8501      	strh	r1, [r0, #40]	; 0x28
  }
}
 800243a:	4770      	bx	lr
    GPIOx->BSRR = GPIO_Pin;
 800243c:	6181      	str	r1, [r0, #24]
 800243e:	e7fc      	b.n	800243a <GPIO_WriteBit+0x6>

08002440 <GPIO_PinAFConfig>:
  /* Check the parameters */
  assert_param(IS_GPIO_ALL_PERIPH(GPIOx));
  assert_param(IS_GPIO_PIN_SOURCE(GPIO_PinSource));
  assert_param(IS_GPIO_AF(GPIO_AF));

  temp = ((uint32_t)(GPIO_AF) << ((uint32_t)((uint32_t)GPIO_PinSource & (uint32_t)0x07) * 4));
 8002440:	2307      	movs	r3, #7
{
 8002442:	b510      	push	{r4, lr}
  GPIOx->AFR[GPIO_PinSource >> 0x03] &= ~((uint32_t)0xF << ((uint32_t)((uint32_t)GPIO_PinSource & (uint32_t)0x07) * 4));
 8002444:	240f      	movs	r4, #15
  temp = ((uint32_t)(GPIO_AF) << ((uint32_t)((uint32_t)GPIO_PinSource & (uint32_t)0x07) * 4));
 8002446:	400b      	ands	r3, r1
 8002448:	009b      	lsls	r3, r3, #2
  GPIOx->AFR[GPIO_PinSource >> 0x03] &= ~((uint32_t)0xF << ((uint32_t)((uint32_t)GPIO_PinSource & (uint32_t)0x07) * 4));
 800244a:	409c      	lsls	r4, r3
  temp = ((uint32_t)(GPIO_AF) << ((uint32_t)((uint32_t)GPIO_PinSource & (uint32_t)0x07) * 4));
 800244c:	409a      	lsls	r2, r3
 800244e:	08c9      	lsrs	r1, r1, #3
 8002450:	0089      	lsls	r1, r1, #2
 8002452:	1840      	adds	r0, r0, r1
  GPIOx->AFR[GPIO_PinSource >> 0x03] &= ~((uint32_t)0xF << ((uint32_t)((uint32_t)GPIO_PinSource & (uint32_t)0x07) * 4));
 8002454:	6a01      	ldr	r1, [r0, #32]
 8002456:	43a1      	bics	r1, r4
 8002458:	6201      	str	r1, [r0, #32]
  temp_2 = GPIOx->AFR[GPIO_PinSource >> 0x03] | temp;
 800245a:	6a01      	ldr	r1, [r0, #32]
 800245c:	430a      	orrs	r2, r1
  GPIOx->AFR[GPIO_PinSource >> 0x03] = temp_2;
 800245e:	6202      	str	r2, [r0, #32]
}
 8002460:	bd10      	pop	{r4, pc}
 8002462:	46c0      	nop			; (mov r8, r8)

08002464 <NVIC_Init>:
  * @param  NVIC_InitStruct: pointer to a NVIC_InitTypeDef structure that contains
  *         the configuration information for the specified NVIC peripheral.
  * @retval None
  */
void NVIC_Init(NVIC_InitTypeDef* NVIC_InitStruct)
{
 8002464:	b5f0      	push	{r4, r5, r6, r7, lr}
  
  /* Check the parameters */
  assert_param(IS_FUNCTIONAL_STATE(NVIC_InitStruct->NVIC_IRQChannelCmd));
  assert_param(IS_NVIC_PRIORITY(NVIC_InitStruct->NVIC_IRQChannelPriority));  
    
  if (NVIC_InitStruct->NVIC_IRQChannelCmd != DISABLE)
 8002466:	7883      	ldrb	r3, [r0, #2]
 8002468:	2b00      	cmp	r3, #0
 800246a:	d108      	bne.n	800247e <NVIC_Init+0x1a>
    NVIC->ISER[0] = (uint32_t)0x01 << (NVIC_InitStruct->NVIC_IRQChannel & (uint8_t)0x1F);
  }
  else
  {
    /* Disable the Selected IRQ Channels -------------------------------------*/
    NVIC->ICER[0] = (uint32_t)0x01 << (NVIC_InitStruct->NVIC_IRQChannel & (uint8_t)0x1F);
 800246c:	221f      	movs	r2, #31
 800246e:	7803      	ldrb	r3, [r0, #0]
 8002470:	4911      	ldr	r1, [pc, #68]	; (80024b8 <NVIC_Init+0x54>)
 8002472:	401a      	ands	r2, r3
 8002474:	2301      	movs	r3, #1
 8002476:	4093      	lsls	r3, r2
 8002478:	2280      	movs	r2, #128	; 0x80
 800247a:	508b      	str	r3, [r1, r2]
  }
}
 800247c:	bdf0      	pop	{r4, r5, r6, r7, pc}
 800247e:	4b0e      	ldr	r3, [pc, #56]	; (80024b8 <NVIC_Init+0x54>)
    tmppriority &= (uint32_t)(~(((uint32_t)0xFF) << ((NVIC_InitStruct->NVIC_IRQChannel & 0x03) * 8)));
 8002480:	2103      	movs	r1, #3
 8002482:	469c      	mov	ip, r3
 8002484:	23ff      	movs	r3, #255	; 0xff
 8002486:	001f      	movs	r7, r3
    tmppriority = NVIC->IP[NVIC_InitStruct->NVIC_IRQChannel >> 0x02];
 8002488:	7804      	ldrb	r4, [r0, #0]
 800248a:	26c0      	movs	r6, #192	; 0xc0
    tmppriority |= (uint32_t)((((uint32_t)NVIC_InitStruct->NVIC_IRQChannelPriority << 6) & 0xFF) << ((NVIC_InitStruct->NVIC_IRQChannel & 0x03) * 8));    
 800248c:	7840      	ldrb	r0, [r0, #1]
    tmppriority &= (uint32_t)(~(((uint32_t)0xFF) << ((NVIC_InitStruct->NVIC_IRQChannel & 0x03) * 8)));
 800248e:	4021      	ands	r1, r4
 8002490:	00c9      	lsls	r1, r1, #3
    tmppriority |= (uint32_t)((((uint32_t)NVIC_InitStruct->NVIC_IRQChannelPriority << 6) & 0xFF) << ((NVIC_InitStruct->NVIC_IRQChannel & 0x03) * 8));    
 8002492:	0180      	lsls	r0, r0, #6
    tmppriority &= (uint32_t)(~(((uint32_t)0xFF) << ((NVIC_InitStruct->NVIC_IRQChannel & 0x03) * 8)));
 8002494:	408f      	lsls	r7, r1
    tmppriority |= (uint32_t)((((uint32_t)NVIC_InitStruct->NVIC_IRQChannelPriority << 6) & 0xFF) << ((NVIC_InitStruct->NVIC_IRQChannel & 0x03) * 8));    
 8002496:	4003      	ands	r3, r0
 8002498:	408b      	lsls	r3, r1
 800249a:	08a2      	lsrs	r2, r4, #2
 800249c:	0092      	lsls	r2, r2, #2
 800249e:	4462      	add	r2, ip
    tmppriority = NVIC->IP[NVIC_InitStruct->NVIC_IRQChannel >> 0x02];
 80024a0:	00b6      	lsls	r6, r6, #2
 80024a2:	5995      	ldr	r5, [r2, r6]
    tmppriority &= (uint32_t)(~(((uint32_t)0xFF) << ((NVIC_InitStruct->NVIC_IRQChannel & 0x03) * 8)));
 80024a4:	43bd      	bics	r5, r7
    tmppriority |= (uint32_t)((((uint32_t)NVIC_InitStruct->NVIC_IRQChannelPriority << 6) & 0xFF) << ((NVIC_InitStruct->NVIC_IRQChannel & 0x03) * 8));    
 80024a6:	432b      	orrs	r3, r5
    NVIC->IP[NVIC_InitStruct->NVIC_IRQChannel >> 0x02] = tmppriority;
 80024a8:	5193      	str	r3, [r2, r6]
    NVIC->ISER[0] = (uint32_t)0x01 << (NVIC_InitStruct->NVIC_IRQChannel & (uint8_t)0x1F);
 80024aa:	221f      	movs	r2, #31
 80024ac:	2301      	movs	r3, #1
 80024ae:	4022      	ands	r2, r4
 80024b0:	4093      	lsls	r3, r2
 80024b2:	4662      	mov	r2, ip
 80024b4:	6013      	str	r3, [r2, #0]
 80024b6:	e7e1      	b.n	800247c <NVIC_Init+0x18>
 80024b8:	e000e100 	.word	0xe000e100

080024bc <RCC_AHBPeriphClockCmd>:
  assert_param(IS_RCC_AHB_PERIPH(RCC_AHBPeriph));
  assert_param(IS_FUNCTIONAL_STATE(NewState));
  
  if (NewState != DISABLE)
  {
    RCC->AHBENR |= RCC_AHBPeriph;
 80024bc:	4a04      	ldr	r2, [pc, #16]	; (80024d0 <RCC_AHBPeriphClockCmd+0x14>)
 80024be:	6953      	ldr	r3, [r2, #20]
  if (NewState != DISABLE)
 80024c0:	2900      	cmp	r1, #0
 80024c2:	d102      	bne.n	80024ca <RCC_AHBPeriphClockCmd+0xe>
  }
  else
  {
    RCC->AHBENR &= ~RCC_AHBPeriph;
 80024c4:	4383      	bics	r3, r0
 80024c6:	6153      	str	r3, [r2, #20]
  }
}
 80024c8:	4770      	bx	lr
    RCC->AHBENR |= RCC_AHBPeriph;
 80024ca:	4318      	orrs	r0, r3
 80024cc:	6150      	str	r0, [r2, #20]
 80024ce:	e7fb      	b.n	80024c8 <RCC_AHBPeriphClockCmd+0xc>
 80024d0:	40021000 	.word	0x40021000

080024d4 <RCC_APB2PeriphClockCmd>:
  assert_param(IS_RCC_APB2_PERIPH(RCC_APB2Periph));
  assert_param(IS_FUNCTIONAL_STATE(NewState));

  if (NewState != DISABLE)
  {
    RCC->APB2ENR |= RCC_APB2Periph;
 80024d4:	4a04      	ldr	r2, [pc, #16]	; (80024e8 <RCC_APB2PeriphClockCmd+0x14>)
 80024d6:	6993      	ldr	r3, [r2, #24]
  if (NewState != DISABLE)
 80024d8:	2900      	cmp	r1, #0
 80024da:	d102      	bne.n	80024e2 <RCC_APB2PeriphClockCmd+0xe>
  }
  else
  {
    RCC->APB2ENR &= ~RCC_APB2Periph;
 80024dc:	4383      	bics	r3, r0
 80024de:	6193      	str	r3, [r2, #24]
  }
}
 80024e0:	4770      	bx	lr
    RCC->APB2ENR |= RCC_APB2Periph;
 80024e2:	4318      	orrs	r0, r3
 80024e4:	6190      	str	r0, [r2, #24]
 80024e6:	e7fb      	b.n	80024e0 <RCC_APB2PeriphClockCmd+0xc>
 80024e8:	40021000 	.word	0x40021000

080024ec <RCC_APB1PeriphClockCmd>:
  assert_param(IS_RCC_APB1_PERIPH(RCC_APB1Periph));
  assert_param(IS_FUNCTIONAL_STATE(NewState));

  if (NewState != DISABLE)
  {
    RCC->APB1ENR |= RCC_APB1Periph;
 80024ec:	4a04      	ldr	r2, [pc, #16]	; (8002500 <RCC_APB1PeriphClockCmd+0x14>)
 80024ee:	69d3      	ldr	r3, [r2, #28]
  if (NewState != DISABLE)
 80024f0:	2900      	cmp	r1, #0
 80024f2:	d102      	bne.n	80024fa <RCC_APB1PeriphClockCmd+0xe>
  }
  else
  {
    RCC->APB1ENR &= ~RCC_APB1Periph;
 80024f4:	4383      	bics	r3, r0
 80024f6:	61d3      	str	r3, [r2, #28]
  }
}
 80024f8:	4770      	bx	lr
    RCC->APB1ENR |= RCC_APB1Periph;
 80024fa:	4318      	orrs	r0, r3
 80024fc:	61d0      	str	r0, [r2, #28]
 80024fe:	e7fb      	b.n	80024f8 <RCC_APB1PeriphClockCmd+0xc>
 8002500:	40021000 	.word	0x40021000

08002504 <SPI_StructInit>:
  */
void SPI_StructInit(SPI_InitTypeDef* SPI_InitStruct)
{
/*--------------- Reset SPI init structure parameters values -----------------*/
  /* Initialize the SPI_Direction member */
  SPI_InitStruct->SPI_Direction = SPI_Direction_2Lines_FullDuplex;
 8002504:	2300      	movs	r3, #0
  /* Initialize the SPI_Mode member */
  SPI_InitStruct->SPI_Mode = SPI_Mode_Slave;
  /* Initialize the SPI_DataSize member */
  SPI_InitStruct->SPI_DataSize = SPI_DataSize_8b;
 8002506:	22e0      	movs	r2, #224	; 0xe0
  SPI_InitStruct->SPI_Direction = SPI_Direction_2Lines_FullDuplex;
 8002508:	8003      	strh	r3, [r0, #0]
  SPI_InitStruct->SPI_Mode = SPI_Mode_Slave;
 800250a:	8043      	strh	r3, [r0, #2]
  SPI_InitStruct->SPI_DataSize = SPI_DataSize_8b;
 800250c:	00d2      	lsls	r2, r2, #3
  /* Initialize the SPI_CPOL member */
  SPI_InitStruct->SPI_CPOL = SPI_CPOL_Low;
 800250e:	80c3      	strh	r3, [r0, #6]
  /* Initialize the SPI_CPHA member */
  SPI_InitStruct->SPI_CPHA = SPI_CPHA_1Edge;
 8002510:	8103      	strh	r3, [r0, #8]
  /* Initialize the SPI_NSS member */
  SPI_InitStruct->SPI_NSS = SPI_NSS_Hard;
 8002512:	8143      	strh	r3, [r0, #10]
  /* Initialize the SPI_BaudRatePrescaler member */
  SPI_InitStruct->SPI_BaudRatePrescaler = SPI_BaudRatePrescaler_2;
 8002514:	8183      	strh	r3, [r0, #12]
  /* Initialize the SPI_FirstBit member */
  SPI_InitStruct->SPI_FirstBit = SPI_FirstBit_MSB;
 8002516:	81c3      	strh	r3, [r0, #14]
  /* Initialize the SPI_CRCPolynomial member */
  SPI_InitStruct->SPI_CRCPolynomial = 7;
 8002518:	3307      	adds	r3, #7
  SPI_InitStruct->SPI_DataSize = SPI_DataSize_8b;
 800251a:	8082      	strh	r2, [r0, #4]
  SPI_InitStruct->SPI_CRCPolynomial = 7;
 800251c:	8203      	strh	r3, [r0, #16]
}
 800251e:	4770      	bx	lr

08002520 <SPI_Init>:

  /*---------------------------- SPIx CR1 Configuration ------------------------*/
  /* Get the SPIx CR1 value */
  tmpreg = SPIx->CR1;
  /* Clear BIDIMode, BIDIOE, RxONLY, SSM, SSI, LSBFirst, BR, CPOL and CPHA bits */
  tmpreg &= CR1_CLEAR_MASK;
 8002520:	23c1      	movs	r3, #193	; 0xc1
  tmpreg = SPIx->CR1;
 8002522:	8802      	ldrh	r2, [r0, #0]
  tmpreg &= CR1_CLEAR_MASK;
 8002524:	019b      	lsls	r3, r3, #6
{
 8002526:	b510      	push	{r4, lr}
  tmpreg &= CR1_CLEAR_MASK;
 8002528:	401a      	ands	r2, r3
  /* Set SSM, SSI bit according to SPI_NSS values */
  /* Set LSBFirst bit according to SPI_FirstBit value */
  /* Set BR bits according to SPI_BaudRatePrescaler value */
  /* Set CPOL bit according to SPI_CPOL value */
  /* Set CPHA bit according to SPI_CPHA value */
  tmpreg |= (uint16_t)((uint32_t)SPI_InitStruct->SPI_Direction | SPI_InitStruct->SPI_FirstBit |
 800252a:	89cc      	ldrh	r4, [r1, #14]
 800252c:	880b      	ldrh	r3, [r1, #0]
 800252e:	4323      	orrs	r3, r4
 8002530:	88cc      	ldrh	r4, [r1, #6]
 8002532:	4323      	orrs	r3, r4
 8002534:	890c      	ldrh	r4, [r1, #8]
 8002536:	4323      	orrs	r3, r4
 8002538:	894c      	ldrh	r4, [r1, #10]
 800253a:	4323      	orrs	r3, r4
 800253c:	898c      	ldrh	r4, [r1, #12]
 800253e:	4323      	orrs	r3, r4
 8002540:	4313      	orrs	r3, r2
                      SPI_InitStruct->SPI_CPOL | SPI_InitStruct->SPI_CPHA |
                      SPI_InitStruct->SPI_NSS | SPI_InitStruct->SPI_BaudRatePrescaler);  
  /* Write to SPIx CR1 */
  SPIx->CR1 = tmpreg;
 8002542:	8003      	strh	r3, [r0, #0]
  /*-------------------------Data Size Configuration -----------------------*/
  /* Get the SPIx CR2 value */
  tmpreg = SPIx->CR2;
 8002544:	8883      	ldrh	r3, [r0, #4]
  /* Clear DS[3:0] bits */
  tmpreg &=(uint16_t)~SPI_CR2_DS;
 8002546:	4a09      	ldr	r2, [pc, #36]	; (800256c <SPI_Init+0x4c>)
 8002548:	4013      	ands	r3, r2
  /* Configure SPIx: Data Size */
  tmpreg |= (uint16_t)(SPI_InitStruct->SPI_DataSize);
 800254a:	888a      	ldrh	r2, [r1, #4]
 800254c:	4313      	orrs	r3, r2
  
  /*---------------------------- SPIx CR1 Configuration ------------------------*/
  /* Get the SPIx CR1 value */
  tmpreg = SPIx->CR1;
  /* Clear MSTR bit */
  tmpreg &= CR1_CLEAR_MASK2;
 800254e:	2204      	movs	r2, #4
  SPIx->CR2 = tmpreg;
 8002550:	8083      	strh	r3, [r0, #4]
  SPIx->CRCPR = SPI_InitStruct->SPI_CRCPolynomial;
 8002552:	8a0b      	ldrh	r3, [r1, #16]
 8002554:	8203      	strh	r3, [r0, #16]
  tmpreg = SPIx->CR1;
 8002556:	8803      	ldrh	r3, [r0, #0]
  tmpreg &= CR1_CLEAR_MASK2;
 8002558:	4393      	bics	r3, r2
  /* Configure SPIx: master/slave mode */  
  /* Set MSTR bit according to SPI_Mode */
  tmpreg |= (uint16_t)((uint32_t)SPI_InitStruct->SPI_Mode);  
 800255a:	884a      	ldrh	r2, [r1, #2]
 800255c:	4313      	orrs	r3, r2
  /* Write to SPIx CR1 */
  SPIx->CR1 = tmpreg;  
 800255e:	8003      	strh	r3, [r0, #0]
  
  /* Activate the SPI mode (Reset I2SMOD bit in I2SCFGR register) */
  SPIx->I2SCFGR &= (uint16_t)~((uint16_t)SPI_I2SCFGR_I2SMOD);
 8002560:	8b83      	ldrh	r3, [r0, #28]
 8002562:	4a03      	ldr	r2, [pc, #12]	; (8002570 <SPI_Init+0x50>)
 8002564:	4013      	ands	r3, r2
 8002566:	8383      	strh	r3, [r0, #28]
}
 8002568:	bd10      	pop	{r4, pc}
 800256a:	46c0      	nop			; (mov r8, r8)
 800256c:	fffff0ff 	.word	0xfffff0ff
 8002570:	fffff7ff 	.word	0xfffff7ff

08002574 <SPI_Cmd>:
  assert_param(IS_FUNCTIONAL_STATE(NewState));

  if (NewState != DISABLE)
  {
    /* Enable the selected SPI peripheral */
    SPIx->CR1 |= SPI_CR1_SPE;
 8002574:	8803      	ldrh	r3, [r0, #0]
 8002576:	2240      	movs	r2, #64	; 0x40
  if (NewState != DISABLE)
 8002578:	2900      	cmp	r1, #0
 800257a:	d102      	bne.n	8002582 <SPI_Cmd+0xe>
  }
  else
  {
    /* Disable the selected SPI peripheral */
    SPIx->CR1 &= (uint16_t)~((uint16_t)SPI_CR1_SPE);
 800257c:	4393      	bics	r3, r2
 800257e:	8003      	strh	r3, [r0, #0]
  }
}
 8002580:	4770      	bx	lr
    SPIx->CR1 |= SPI_CR1_SPE;
 8002582:	4313      	orrs	r3, r2
 8002584:	8003      	strh	r3, [r0, #0]
 8002586:	e7fb      	b.n	8002580 <SPI_Cmd+0xc>

08002588 <SPI_RxFIFOThresholdConfig>:
  /* Check the parameters */
  assert_param(IS_SPI_ALL_PERIPH(SPIx));
  assert_param(IS_SPI_RX_FIFO_THRESHOLD(SPI_RxFIFOThreshold));

  /* Clear FRXTH bit */
  SPIx->CR2 &= (uint16_t)~((uint16_t)SPI_CR2_FRXTH);
 8002588:	8883      	ldrh	r3, [r0, #4]
 800258a:	4a03      	ldr	r2, [pc, #12]	; (8002598 <SPI_RxFIFOThresholdConfig+0x10>)
 800258c:	4013      	ands	r3, r2
 800258e:	8083      	strh	r3, [r0, #4]

  /* Set new FRXTH bit value */
  SPIx->CR2 |= SPI_RxFIFOThreshold;
 8002590:	8883      	ldrh	r3, [r0, #4]
 8002592:	4319      	orrs	r1, r3
 8002594:	8081      	strh	r1, [r0, #4]
}
 8002596:	4770      	bx	lr
 8002598:	ffffefff 	.word	0xffffefff

0800259c <SPI_I2S_DMACmd>:
  assert_param(IS_SPI_I2S_DMA_REQ(SPI_I2S_DMAReq));

  if (NewState != DISABLE)
  {
    /* Enable the selected SPI DMA requests */
    SPIx->CR2 |= SPI_I2S_DMAReq;
 800259c:	8883      	ldrh	r3, [r0, #4]
  if (NewState != DISABLE)
 800259e:	2a00      	cmp	r2, #0
 80025a0:	d102      	bne.n	80025a8 <SPI_I2S_DMACmd+0xc>
  }
  else
  {
    /* Disable the selected SPI DMA requests */
    SPIx->CR2 &= (uint16_t)~SPI_I2S_DMAReq;
 80025a2:	438b      	bics	r3, r1
 80025a4:	8083      	strh	r3, [r0, #4]
  }
}
 80025a6:	4770      	bx	lr
    SPIx->CR2 |= SPI_I2S_DMAReq;
 80025a8:	4319      	orrs	r1, r3
 80025aa:	8081      	strh	r1, [r0, #4]
 80025ac:	e7fb      	b.n	80025a6 <SPI_I2S_DMACmd+0xa>
 80025ae:	46c0      	nop			; (mov r8, r8)

080025b0 <SPI_I2S_GetFlagStatus>:
  /* Check the parameters */
  assert_param(IS_SPI_ALL_PERIPH(SPIx));
  assert_param(IS_SPI_I2S_GET_FLAG(SPI_I2S_FLAG));

  /* Check the status of the specified SPI flag */
  if ((SPIx->SR & SPI_I2S_FLAG) != (uint16_t)RESET)
 80025b0:	8900      	ldrh	r0, [r0, #8]
 80025b2:	4008      	ands	r0, r1
 80025b4:	1e41      	subs	r1, r0, #1
 80025b6:	4188      	sbcs	r0, r1
  {
    /* SPI_I2S_FLAG is reset */
    bitstatus = RESET;
  }
  /* Return the SPI_I2S_FLAG status */
  return  bitstatus;
 80025b8:	b2c0      	uxtb	r0, r0
}
 80025ba:	4770      	bx	lr

080025bc <__aeabi_atexit>:
 80025bc:	000b      	movs	r3, r1
 80025be:	b510      	push	{r4, lr}
 80025c0:	0001      	movs	r1, r0
 80025c2:	0018      	movs	r0, r3
 80025c4:	f000 f802 	bl	80025cc <__cxa_atexit>
 80025c8:	bd10      	pop	{r4, pc}
 80025ca:	46c0      	nop			; (mov r8, r8)

080025cc <__cxa_atexit>:
 80025cc:	b510      	push	{r4, lr}
 80025ce:	0013      	movs	r3, r2
 80025d0:	000a      	movs	r2, r1
 80025d2:	0001      	movs	r1, r0
 80025d4:	2002      	movs	r0, #2
 80025d6:	f000 fb7f 	bl	8002cd8 <__register_exitproc>
 80025da:	bd10      	pop	{r4, pc}

080025dc <__libc_init_array>:
 80025dc:	b570      	push	{r4, r5, r6, lr}
 80025de:	4e0d      	ldr	r6, [pc, #52]	; (8002614 <__libc_init_array+0x38>)
 80025e0:	4d0d      	ldr	r5, [pc, #52]	; (8002618 <__libc_init_array+0x3c>)
 80025e2:	2400      	movs	r4, #0
 80025e4:	1bad      	subs	r5, r5, r6
 80025e6:	10ad      	asrs	r5, r5, #2
 80025e8:	d005      	beq.n	80025f6 <__libc_init_array+0x1a>
 80025ea:	00a3      	lsls	r3, r4, #2
 80025ec:	58f3      	ldr	r3, [r6, r3]
 80025ee:	3401      	adds	r4, #1
 80025f0:	4798      	blx	r3
 80025f2:	42a5      	cmp	r5, r4
 80025f4:	d1f9      	bne.n	80025ea <__libc_init_array+0xe>
 80025f6:	f000 fdf1 	bl	80031dc <_init>
 80025fa:	4e08      	ldr	r6, [pc, #32]	; (800261c <__libc_init_array+0x40>)
 80025fc:	4d08      	ldr	r5, [pc, #32]	; (8002620 <__libc_init_array+0x44>)
 80025fe:	2400      	movs	r4, #0
 8002600:	1bad      	subs	r5, r5, r6
 8002602:	10ad      	asrs	r5, r5, #2
 8002604:	d005      	beq.n	8002612 <__libc_init_array+0x36>
 8002606:	00a3      	lsls	r3, r4, #2
 8002608:	58f3      	ldr	r3, [r6, r3]
 800260a:	3401      	adds	r4, #1
 800260c:	4798      	blx	r3
 800260e:	42a5      	cmp	r5, r4
 8002610:	d1f9      	bne.n	8002606 <__libc_init_array+0x2a>
 8002612:	bd70      	pop	{r4, r5, r6, pc}
 8002614:	080031fc 	.word	0x080031fc
 8002618:	080031fc 	.word	0x080031fc
 800261c:	080031fc 	.word	0x080031fc
 8002620:	08003208 	.word	0x08003208

08002624 <malloc>:
 8002624:	b510      	push	{r4, lr}
 8002626:	4b03      	ldr	r3, [pc, #12]	; (8002634 <malloc+0x10>)
 8002628:	0001      	movs	r1, r0
 800262a:	6818      	ldr	r0, [r3, #0]
 800262c:	f000 f80e 	bl	800264c <_malloc_r>
 8002630:	bd10      	pop	{r4, pc}
 8002632:	46c0      	nop			; (mov r8, r8)
 8002634:	20000008 	.word	0x20000008

08002638 <free>:
 8002638:	b510      	push	{r4, lr}
 800263a:	4b03      	ldr	r3, [pc, #12]	; (8002648 <free+0x10>)
 800263c:	0001      	movs	r1, r0
 800263e:	6818      	ldr	r0, [r3, #0]
 8002640:	f000 fc3a 	bl	8002eb8 <_free_r>
 8002644:	bd10      	pop	{r4, pc}
 8002646:	46c0      	nop			; (mov r8, r8)
 8002648:	20000008 	.word	0x20000008

0800264c <_malloc_r>:
 800264c:	b5f0      	push	{r4, r5, r6, r7, lr}
 800264e:	4657      	mov	r7, sl
 8002650:	4645      	mov	r5, r8
 8002652:	46de      	mov	lr, fp
 8002654:	464e      	mov	r6, r9
 8002656:	b5e0      	push	{r5, r6, r7, lr}
 8002658:	000d      	movs	r5, r1
 800265a:	350b      	adds	r5, #11
 800265c:	b083      	sub	sp, #12
 800265e:	0007      	movs	r7, r0
 8002660:	2d16      	cmp	r5, #22
 8002662:	d800      	bhi.n	8002666 <_malloc_r+0x1a>
 8002664:	e09f      	b.n	80027a6 <_malloc_r+0x15a>
 8002666:	2307      	movs	r3, #7
 8002668:	439d      	bics	r5, r3
 800266a:	d500      	bpl.n	800266e <_malloc_r+0x22>
 800266c:	e0c4      	b.n	80027f8 <_malloc_r+0x1ac>
 800266e:	42a9      	cmp	r1, r5
 8002670:	d900      	bls.n	8002674 <_malloc_r+0x28>
 8002672:	e0c1      	b.n	80027f8 <_malloc_r+0x1ac>
 8002674:	f000 fb0e 	bl	8002c94 <__malloc_lock>
 8002678:	23f8      	movs	r3, #248	; 0xf8
 800267a:	33ff      	adds	r3, #255	; 0xff
 800267c:	429d      	cmp	r5, r3
 800267e:	d800      	bhi.n	8002682 <_malloc_r+0x36>
 8002680:	e28f      	b.n	8002ba2 <_malloc_r+0x556>
 8002682:	0a68      	lsrs	r0, r5, #9
 8002684:	d100      	bne.n	8002688 <_malloc_r+0x3c>
 8002686:	e0bb      	b.n	8002800 <_malloc_r+0x1b4>
 8002688:	2804      	cmp	r0, #4
 800268a:	d900      	bls.n	800268e <_malloc_r+0x42>
 800268c:	e162      	b.n	8002954 <_malloc_r+0x308>
 800268e:	2338      	movs	r3, #56	; 0x38
 8002690:	4698      	mov	r8, r3
 8002692:	09a8      	lsrs	r0, r5, #6
 8002694:	4480      	add	r8, r0
 8002696:	3039      	adds	r0, #57	; 0x39
 8002698:	00c1      	lsls	r1, r0, #3
 800269a:	4ed2      	ldr	r6, [pc, #840]	; (80029e4 <_malloc_r+0x398>)
 800269c:	1871      	adds	r1, r6, r1
 800269e:	3908      	subs	r1, #8
 80026a0:	68cc      	ldr	r4, [r1, #12]
 80026a2:	42a1      	cmp	r1, r4
 80026a4:	d019      	beq.n	80026da <_malloc_r+0x8e>
 80026a6:	2303      	movs	r3, #3
 80026a8:	6862      	ldr	r2, [r4, #4]
 80026aa:	439a      	bics	r2, r3
 80026ac:	0013      	movs	r3, r2
 80026ae:	1b52      	subs	r2, r2, r5
 80026b0:	2a0f      	cmp	r2, #15
 80026b2:	dd00      	ble.n	80026b6 <_malloc_r+0x6a>
 80026b4:	e0aa      	b.n	800280c <_malloc_r+0x1c0>
 80026b6:	2a00      	cmp	r2, #0
 80026b8:	db00      	blt.n	80026bc <_malloc_r+0x70>
 80026ba:	e088      	b.n	80027ce <_malloc_r+0x182>
 80026bc:	2303      	movs	r3, #3
 80026be:	469c      	mov	ip, r3
 80026c0:	e008      	b.n	80026d4 <_malloc_r+0x88>
 80026c2:	4662      	mov	r2, ip
 80026c4:	6863      	ldr	r3, [r4, #4]
 80026c6:	4393      	bics	r3, r2
 80026c8:	1b5a      	subs	r2, r3, r5
 80026ca:	2a0f      	cmp	r2, #15
 80026cc:	dd00      	ble.n	80026d0 <_malloc_r+0x84>
 80026ce:	e09d      	b.n	800280c <_malloc_r+0x1c0>
 80026d0:	2a00      	cmp	r2, #0
 80026d2:	da7c      	bge.n	80027ce <_malloc_r+0x182>
 80026d4:	68e4      	ldr	r4, [r4, #12]
 80026d6:	42a1      	cmp	r1, r4
 80026d8:	d1f3      	bne.n	80026c2 <_malloc_r+0x76>
 80026da:	0032      	movs	r2, r6
 80026dc:	6934      	ldr	r4, [r6, #16]
 80026de:	3208      	adds	r2, #8
 80026e0:	4294      	cmp	r4, r2
 80026e2:	d100      	bne.n	80026e6 <_malloc_r+0x9a>
 80026e4:	e190      	b.n	8002a08 <_malloc_r+0x3bc>
 80026e6:	2303      	movs	r3, #3
 80026e8:	6861      	ldr	r1, [r4, #4]
 80026ea:	4399      	bics	r1, r3
 80026ec:	4689      	mov	r9, r1
 80026ee:	1b49      	subs	r1, r1, r5
 80026f0:	290f      	cmp	r1, #15
 80026f2:	dd00      	ble.n	80026f6 <_malloc_r+0xaa>
 80026f4:	e162      	b.n	80029bc <_malloc_r+0x370>
 80026f6:	6172      	str	r2, [r6, #20]
 80026f8:	6132      	str	r2, [r6, #16]
 80026fa:	2900      	cmp	r1, #0
 80026fc:	db00      	blt.n	8002700 <_malloc_r+0xb4>
 80026fe:	e087      	b.n	8002810 <_malloc_r+0x1c4>
 8002700:	4ab9      	ldr	r2, [pc, #740]	; (80029e8 <_malloc_r+0x39c>)
 8002702:	464b      	mov	r3, r9
 8002704:	4591      	cmp	r9, r2
 8002706:	d900      	bls.n	800270a <_malloc_r+0xbe>
 8002708:	e130      	b.n	800296c <_malloc_r+0x320>
 800270a:	08db      	lsrs	r3, r3, #3
 800270c:	3aff      	subs	r2, #255	; 0xff
 800270e:	1099      	asrs	r1, r3, #2
 8002710:	3aff      	subs	r2, #255	; 0xff
 8002712:	408a      	lsls	r2, r1
 8002714:	00db      	lsls	r3, r3, #3
 8002716:	6871      	ldr	r1, [r6, #4]
 8002718:	199b      	adds	r3, r3, r6
 800271a:	430a      	orrs	r2, r1
 800271c:	6899      	ldr	r1, [r3, #8]
 800271e:	6072      	str	r2, [r6, #4]
 8002720:	60e3      	str	r3, [r4, #12]
 8002722:	60a1      	str	r1, [r4, #8]
 8002724:	609c      	str	r4, [r3, #8]
 8002726:	0013      	movs	r3, r2
 8002728:	60cc      	str	r4, [r1, #12]
 800272a:	2101      	movs	r1, #1
 800272c:	1082      	asrs	r2, r0, #2
 800272e:	4091      	lsls	r1, r2
 8002730:	4299      	cmp	r1, r3
 8002732:	d86f      	bhi.n	8002814 <_malloc_r+0x1c8>
 8002734:	420b      	tst	r3, r1
 8002736:	d105      	bne.n	8002744 <_malloc_r+0xf8>
 8002738:	2203      	movs	r2, #3
 800273a:	4390      	bics	r0, r2
 800273c:	0049      	lsls	r1, r1, #1
 800273e:	3004      	adds	r0, #4
 8002740:	420b      	tst	r3, r1
 8002742:	d0fb      	beq.n	800273c <_malloc_r+0xf0>
 8002744:	2303      	movs	r3, #3
 8002746:	4698      	mov	r8, r3
 8002748:	00c3      	lsls	r3, r0, #3
 800274a:	4699      	mov	r9, r3
 800274c:	44b1      	add	r9, r6
 800274e:	46cc      	mov	ip, r9
 8002750:	4682      	mov	sl, r0
 8002752:	4663      	mov	r3, ip
 8002754:	68dc      	ldr	r4, [r3, #12]
 8002756:	45a4      	cmp	ip, r4
 8002758:	d107      	bne.n	800276a <_malloc_r+0x11e>
 800275a:	e157      	b.n	8002a0c <_malloc_r+0x3c0>
 800275c:	2a00      	cmp	r2, #0
 800275e:	db00      	blt.n	8002762 <_malloc_r+0x116>
 8002760:	e166      	b.n	8002a30 <_malloc_r+0x3e4>
 8002762:	68e4      	ldr	r4, [r4, #12]
 8002764:	45a4      	cmp	ip, r4
 8002766:	d100      	bne.n	800276a <_malloc_r+0x11e>
 8002768:	e150      	b.n	8002a0c <_malloc_r+0x3c0>
 800276a:	4642      	mov	r2, r8
 800276c:	6863      	ldr	r3, [r4, #4]
 800276e:	4393      	bics	r3, r2
 8002770:	1b5a      	subs	r2, r3, r5
 8002772:	2a0f      	cmp	r2, #15
 8002774:	ddf2      	ble.n	800275c <_malloc_r+0x110>
 8002776:	2001      	movs	r0, #1
 8002778:	4680      	mov	r8, r0
 800277a:	1961      	adds	r1, r4, r5
 800277c:	4305      	orrs	r5, r0
 800277e:	6065      	str	r5, [r4, #4]
 8002780:	68a0      	ldr	r0, [r4, #8]
 8002782:	68e5      	ldr	r5, [r4, #12]
 8002784:	3608      	adds	r6, #8
 8002786:	60c5      	str	r5, [r0, #12]
 8002788:	60a8      	str	r0, [r5, #8]
 800278a:	4640      	mov	r0, r8
 800278c:	60f1      	str	r1, [r6, #12]
 800278e:	60b1      	str	r1, [r6, #8]
 8002790:	4310      	orrs	r0, r2
 8002792:	6048      	str	r0, [r1, #4]
 8002794:	60ce      	str	r6, [r1, #12]
 8002796:	608e      	str	r6, [r1, #8]
 8002798:	0038      	movs	r0, r7
 800279a:	50e2      	str	r2, [r4, r3]
 800279c:	f000 fa82 	bl	8002ca4 <__malloc_unlock>
 80027a0:	0020      	movs	r0, r4
 80027a2:	3008      	adds	r0, #8
 80027a4:	e021      	b.n	80027ea <_malloc_r+0x19e>
 80027a6:	2910      	cmp	r1, #16
 80027a8:	d826      	bhi.n	80027f8 <_malloc_r+0x1ac>
 80027aa:	0038      	movs	r0, r7
 80027ac:	f000 fa72 	bl	8002c94 <__malloc_lock>
 80027b0:	2510      	movs	r5, #16
 80027b2:	2318      	movs	r3, #24
 80027b4:	2002      	movs	r0, #2
 80027b6:	4e8b      	ldr	r6, [pc, #556]	; (80029e4 <_malloc_r+0x398>)
 80027b8:	18f3      	adds	r3, r6, r3
 80027ba:	001a      	movs	r2, r3
 80027bc:	685c      	ldr	r4, [r3, #4]
 80027be:	3a08      	subs	r2, #8
 80027c0:	4294      	cmp	r4, r2
 80027c2:	d100      	bne.n	80027c6 <_malloc_r+0x17a>
 80027c4:	e12e      	b.n	8002a24 <_malloc_r+0x3d8>
 80027c6:	2303      	movs	r3, #3
 80027c8:	6862      	ldr	r2, [r4, #4]
 80027ca:	439a      	bics	r2, r3
 80027cc:	0013      	movs	r3, r2
 80027ce:	68e2      	ldr	r2, [r4, #12]
 80027d0:	68a1      	ldr	r1, [r4, #8]
 80027d2:	60ca      	str	r2, [r1, #12]
 80027d4:	6091      	str	r1, [r2, #8]
 80027d6:	2201      	movs	r2, #1
 80027d8:	18e3      	adds	r3, r4, r3
 80027da:	6859      	ldr	r1, [r3, #4]
 80027dc:	0038      	movs	r0, r7
 80027de:	430a      	orrs	r2, r1
 80027e0:	605a      	str	r2, [r3, #4]
 80027e2:	f000 fa5f 	bl	8002ca4 <__malloc_unlock>
 80027e6:	0020      	movs	r0, r4
 80027e8:	3008      	adds	r0, #8
 80027ea:	b003      	add	sp, #12
 80027ec:	bc3c      	pop	{r2, r3, r4, r5}
 80027ee:	4690      	mov	r8, r2
 80027f0:	4699      	mov	r9, r3
 80027f2:	46a2      	mov	sl, r4
 80027f4:	46ab      	mov	fp, r5
 80027f6:	bdf0      	pop	{r4, r5, r6, r7, pc}
 80027f8:	230c      	movs	r3, #12
 80027fa:	2000      	movs	r0, #0
 80027fc:	603b      	str	r3, [r7, #0]
 80027fe:	e7f4      	b.n	80027ea <_malloc_r+0x19e>
 8002800:	2180      	movs	r1, #128	; 0x80
 8002802:	233f      	movs	r3, #63	; 0x3f
 8002804:	2040      	movs	r0, #64	; 0x40
 8002806:	0089      	lsls	r1, r1, #2
 8002808:	4698      	mov	r8, r3
 800280a:	e746      	b.n	800269a <_malloc_r+0x4e>
 800280c:	4640      	mov	r0, r8
 800280e:	e764      	b.n	80026da <_malloc_r+0x8e>
 8002810:	464b      	mov	r3, r9
 8002812:	e7e0      	b.n	80027d6 <_malloc_r+0x18a>
 8002814:	2303      	movs	r3, #3
 8002816:	68b4      	ldr	r4, [r6, #8]
 8002818:	6862      	ldr	r2, [r4, #4]
 800281a:	439a      	bics	r2, r3
 800281c:	4690      	mov	r8, r2
 800281e:	42aa      	cmp	r2, r5
 8002820:	d303      	bcc.n	800282a <_malloc_r+0x1de>
 8002822:	1b53      	subs	r3, r2, r5
 8002824:	2b0f      	cmp	r3, #15
 8002826:	dd00      	ble.n	800282a <_malloc_r+0x1de>
 8002828:	e086      	b.n	8002938 <_malloc_r+0x2ec>
 800282a:	0023      	movs	r3, r4
 800282c:	4443      	add	r3, r8
 800282e:	4a6f      	ldr	r2, [pc, #444]	; (80029ec <_malloc_r+0x3a0>)
 8002830:	9301      	str	r3, [sp, #4]
 8002832:	4b6f      	ldr	r3, [pc, #444]	; (80029f0 <_malloc_r+0x3a4>)
 8002834:	4693      	mov	fp, r2
 8002836:	681b      	ldr	r3, [r3, #0]
 8002838:	6812      	ldr	r2, [r2, #0]
 800283a:	18eb      	adds	r3, r5, r3
 800283c:	3201      	adds	r2, #1
 800283e:	d100      	bne.n	8002842 <_malloc_r+0x1f6>
 8002840:	e168      	b.n	8002b14 <_malloc_r+0x4c8>
 8002842:	4a6c      	ldr	r2, [pc, #432]	; (80029f4 <_malloc_r+0x3a8>)
 8002844:	4694      	mov	ip, r2
 8002846:	4463      	add	r3, ip
 8002848:	0b1b      	lsrs	r3, r3, #12
 800284a:	031b      	lsls	r3, r3, #12
 800284c:	9300      	str	r3, [sp, #0]
 800284e:	9900      	ldr	r1, [sp, #0]
 8002850:	0038      	movs	r0, r7
 8002852:	f000 fa2f 	bl	8002cb4 <_sbrk_r>
 8002856:	0003      	movs	r3, r0
 8002858:	4681      	mov	r9, r0
 800285a:	3301      	adds	r3, #1
 800285c:	d061      	beq.n	8002922 <_malloc_r+0x2d6>
 800285e:	9b01      	ldr	r3, [sp, #4]
 8002860:	4283      	cmp	r3, r0
 8002862:	d900      	bls.n	8002866 <_malloc_r+0x21a>
 8002864:	e0ff      	b.n	8002a66 <_malloc_r+0x41a>
 8002866:	4b64      	ldr	r3, [pc, #400]	; (80029f8 <_malloc_r+0x3ac>)
 8002868:	9a00      	ldr	r2, [sp, #0]
 800286a:	469a      	mov	sl, r3
 800286c:	681b      	ldr	r3, [r3, #0]
 800286e:	469c      	mov	ip, r3
 8002870:	4653      	mov	r3, sl
 8002872:	4462      	add	r2, ip
 8002874:	601a      	str	r2, [r3, #0]
 8002876:	9b01      	ldr	r3, [sp, #4]
 8002878:	0011      	movs	r1, r2
 800287a:	4283      	cmp	r3, r0
 800287c:	d100      	bne.n	8002880 <_malloc_r+0x234>
 800287e:	e155      	b.n	8002b2c <_malloc_r+0x4e0>
 8002880:	465b      	mov	r3, fp
 8002882:	681b      	ldr	r3, [r3, #0]
 8002884:	3301      	adds	r3, #1
 8002886:	d100      	bne.n	800288a <_malloc_r+0x23e>
 8002888:	e16c      	b.n	8002b64 <_malloc_r+0x518>
 800288a:	464b      	mov	r3, r9
 800288c:	9a01      	ldr	r2, [sp, #4]
 800288e:	1a9b      	subs	r3, r3, r2
 8002890:	1859      	adds	r1, r3, r1
 8002892:	4653      	mov	r3, sl
 8002894:	6019      	str	r1, [r3, #0]
 8002896:	2307      	movs	r3, #7
 8002898:	464a      	mov	r2, r9
 800289a:	4013      	ands	r3, r2
 800289c:	d100      	bne.n	80028a0 <_malloc_r+0x254>
 800289e:	e124      	b.n	8002aea <_malloc_r+0x49e>
 80028a0:	2108      	movs	r1, #8
 80028a2:	4689      	mov	r9, r1
 80028a4:	4955      	ldr	r1, [pc, #340]	; (80029fc <_malloc_r+0x3b0>)
 80028a6:	1ad2      	subs	r2, r2, r3
 80028a8:	4491      	add	r9, r2
 80028aa:	1acb      	subs	r3, r1, r3
 80028ac:	9a00      	ldr	r2, [sp, #0]
 80028ae:	0038      	movs	r0, r7
 80028b0:	444a      	add	r2, r9
 80028b2:	0511      	lsls	r1, r2, #20
 80028b4:	0d09      	lsrs	r1, r1, #20
 80028b6:	1a5b      	subs	r3, r3, r1
 80028b8:	0019      	movs	r1, r3
 80028ba:	469b      	mov	fp, r3
 80028bc:	f000 f9fa 	bl	8002cb4 <_sbrk_r>
 80028c0:	1c43      	adds	r3, r0, #1
 80028c2:	d100      	bne.n	80028c6 <_malloc_r+0x27a>
 80028c4:	e142      	b.n	8002b4c <_malloc_r+0x500>
 80028c6:	464b      	mov	r3, r9
 80028c8:	1ac0      	subs	r0, r0, r3
 80028ca:	2301      	movs	r3, #1
 80028cc:	4458      	add	r0, fp
 80028ce:	4318      	orrs	r0, r3
 80028d0:	4653      	mov	r3, sl
 80028d2:	681b      	ldr	r3, [r3, #0]
 80028d4:	445b      	add	r3, fp
 80028d6:	0019      	movs	r1, r3
 80028d8:	4653      	mov	r3, sl
 80028da:	6019      	str	r1, [r3, #0]
 80028dc:	464b      	mov	r3, r9
 80028de:	60b3      	str	r3, [r6, #8]
 80028e0:	6058      	str	r0, [r3, #4]
 80028e2:	42b4      	cmp	r4, r6
 80028e4:	d013      	beq.n	800290e <_malloc_r+0x2c2>
 80028e6:	4643      	mov	r3, r8
 80028e8:	2b0f      	cmp	r3, #15
 80028ea:	d800      	bhi.n	80028ee <_malloc_r+0x2a2>
 80028ec:	e0e8      	b.n	8002ac0 <_malloc_r+0x474>
 80028ee:	4643      	mov	r3, r8
 80028f0:	2207      	movs	r2, #7
 80028f2:	6860      	ldr	r0, [r4, #4]
 80028f4:	3b0c      	subs	r3, #12
 80028f6:	4393      	bics	r3, r2
 80028f8:	3a06      	subs	r2, #6
 80028fa:	4002      	ands	r2, r0
 80028fc:	2005      	movs	r0, #5
 80028fe:	431a      	orrs	r2, r3
 8002900:	6062      	str	r2, [r4, #4]
 8002902:	18e2      	adds	r2, r4, r3
 8002904:	6050      	str	r0, [r2, #4]
 8002906:	6090      	str	r0, [r2, #8]
 8002908:	2b0f      	cmp	r3, #15
 800290a:	d900      	bls.n	800290e <_malloc_r+0x2c2>
 800290c:	e122      	b.n	8002b54 <_malloc_r+0x508>
 800290e:	4b3c      	ldr	r3, [pc, #240]	; (8002a00 <_malloc_r+0x3b4>)
 8002910:	681a      	ldr	r2, [r3, #0]
 8002912:	4291      	cmp	r1, r2
 8002914:	d900      	bls.n	8002918 <_malloc_r+0x2cc>
 8002916:	6019      	str	r1, [r3, #0]
 8002918:	4b3a      	ldr	r3, [pc, #232]	; (8002a04 <_malloc_r+0x3b8>)
 800291a:	681a      	ldr	r2, [r3, #0]
 800291c:	4291      	cmp	r1, r2
 800291e:	d900      	bls.n	8002922 <_malloc_r+0x2d6>
 8002920:	6019      	str	r1, [r3, #0]
 8002922:	2303      	movs	r3, #3
 8002924:	68b4      	ldr	r4, [r6, #8]
 8002926:	6862      	ldr	r2, [r4, #4]
 8002928:	439a      	bics	r2, r3
 800292a:	1b53      	subs	r3, r2, r5
 800292c:	4295      	cmp	r5, r2
 800292e:	d900      	bls.n	8002932 <_malloc_r+0x2e6>
 8002930:	e0c9      	b.n	8002ac6 <_malloc_r+0x47a>
 8002932:	2b0f      	cmp	r3, #15
 8002934:	dc00      	bgt.n	8002938 <_malloc_r+0x2ec>
 8002936:	e0c6      	b.n	8002ac6 <_malloc_r+0x47a>
 8002938:	2201      	movs	r2, #1
 800293a:	0029      	movs	r1, r5
 800293c:	4313      	orrs	r3, r2
 800293e:	4311      	orrs	r1, r2
 8002940:	1965      	adds	r5, r4, r5
 8002942:	6061      	str	r1, [r4, #4]
 8002944:	0038      	movs	r0, r7
 8002946:	60b5      	str	r5, [r6, #8]
 8002948:	606b      	str	r3, [r5, #4]
 800294a:	f000 f9ab 	bl	8002ca4 <__malloc_unlock>
 800294e:	0020      	movs	r0, r4
 8002950:	3008      	adds	r0, #8
 8002952:	e74a      	b.n	80027ea <_malloc_r+0x19e>
 8002954:	2814      	cmp	r0, #20
 8002956:	d97a      	bls.n	8002a4e <_malloc_r+0x402>
 8002958:	2854      	cmp	r0, #84	; 0x54
 800295a:	d900      	bls.n	800295e <_malloc_r+0x312>
 800295c:	e0ba      	b.n	8002ad4 <_malloc_r+0x488>
 800295e:	236e      	movs	r3, #110	; 0x6e
 8002960:	4698      	mov	r8, r3
 8002962:	0b28      	lsrs	r0, r5, #12
 8002964:	4480      	add	r8, r0
 8002966:	306f      	adds	r0, #111	; 0x6f
 8002968:	00c1      	lsls	r1, r0, #3
 800296a:	e696      	b.n	800269a <_malloc_r+0x4e>
 800296c:	0a5a      	lsrs	r2, r3, #9
 800296e:	2a04      	cmp	r2, #4
 8002970:	d973      	bls.n	8002a5a <_malloc_r+0x40e>
 8002972:	2a14      	cmp	r2, #20
 8002974:	d900      	bls.n	8002978 <_malloc_r+0x32c>
 8002976:	e0d0      	b.n	8002b1a <_malloc_r+0x4ce>
 8002978:	0011      	movs	r1, r2
 800297a:	325c      	adds	r2, #92	; 0x5c
 800297c:	315b      	adds	r1, #91	; 0x5b
 800297e:	00d2      	lsls	r2, r2, #3
 8002980:	2308      	movs	r3, #8
 8002982:	425b      	negs	r3, r3
 8002984:	469c      	mov	ip, r3
 8002986:	18b2      	adds	r2, r6, r2
 8002988:	4494      	add	ip, r2
 800298a:	4663      	mov	r3, ip
 800298c:	689a      	ldr	r2, [r3, #8]
 800298e:	2303      	movs	r3, #3
 8002990:	4698      	mov	r8, r3
 8002992:	4594      	cmp	ip, r2
 8002994:	d100      	bne.n	8002998 <_malloc_r+0x34c>
 8002996:	e0ab      	b.n	8002af0 <_malloc_r+0x4a4>
 8002998:	4643      	mov	r3, r8
 800299a:	6851      	ldr	r1, [r2, #4]
 800299c:	4399      	bics	r1, r3
 800299e:	4589      	cmp	r9, r1
 80029a0:	d300      	bcc.n	80029a4 <_malloc_r+0x358>
 80029a2:	e095      	b.n	8002ad0 <_malloc_r+0x484>
 80029a4:	6892      	ldr	r2, [r2, #8]
 80029a6:	4594      	cmp	ip, r2
 80029a8:	d1f6      	bne.n	8002998 <_malloc_r+0x34c>
 80029aa:	4663      	mov	r3, ip
 80029ac:	68da      	ldr	r2, [r3, #12]
 80029ae:	6873      	ldr	r3, [r6, #4]
 80029b0:	4661      	mov	r1, ip
 80029b2:	60e2      	str	r2, [r4, #12]
 80029b4:	60a1      	str	r1, [r4, #8]
 80029b6:	6094      	str	r4, [r2, #8]
 80029b8:	60cc      	str	r4, [r1, #12]
 80029ba:	e6b6      	b.n	800272a <_malloc_r+0xde>
 80029bc:	2301      	movs	r3, #1
 80029be:	1960      	adds	r0, r4, r5
 80029c0:	431d      	orrs	r5, r3
 80029c2:	6065      	str	r5, [r4, #4]
 80029c4:	6170      	str	r0, [r6, #20]
 80029c6:	6130      	str	r0, [r6, #16]
 80029c8:	60c2      	str	r2, [r0, #12]
 80029ca:	6082      	str	r2, [r0, #8]
 80029cc:	001a      	movs	r2, r3
 80029ce:	464b      	mov	r3, r9
 80029d0:	430a      	orrs	r2, r1
 80029d2:	6042      	str	r2, [r0, #4]
 80029d4:	0038      	movs	r0, r7
 80029d6:	50e1      	str	r1, [r4, r3]
 80029d8:	f000 f964 	bl	8002ca4 <__malloc_unlock>
 80029dc:	0020      	movs	r0, r4
 80029de:	3008      	adds	r0, #8
 80029e0:	e703      	b.n	80027ea <_malloc_r+0x19e>
 80029e2:	46c0      	nop			; (mov r8, r8)
 80029e4:	20000438 	.word	0x20000438
 80029e8:	000001ff 	.word	0x000001ff
 80029ec:	20000840 	.word	0x20000840
 80029f0:	200008c4 	.word	0x200008c4
 80029f4:	0000100f 	.word	0x0000100f
 80029f8:	20000894 	.word	0x20000894
 80029fc:	00001008 	.word	0x00001008
 8002a00:	200008bc 	.word	0x200008bc
 8002a04:	200008c0 	.word	0x200008c0
 8002a08:	6873      	ldr	r3, [r6, #4]
 8002a0a:	e68e      	b.n	800272a <_malloc_r+0xde>
 8002a0c:	2308      	movs	r3, #8
 8002a0e:	469b      	mov	fp, r3
 8002a10:	3b07      	subs	r3, #7
 8002a12:	44dc      	add	ip, fp
 8002a14:	469b      	mov	fp, r3
 8002a16:	44da      	add	sl, fp
 8002a18:	4643      	mov	r3, r8
 8002a1a:	4652      	mov	r2, sl
 8002a1c:	4213      	tst	r3, r2
 8002a1e:	d000      	beq.n	8002a22 <_malloc_r+0x3d6>
 8002a20:	e697      	b.n	8002752 <_malloc_r+0x106>
 8002a22:	e037      	b.n	8002a94 <_malloc_r+0x448>
 8002a24:	68dc      	ldr	r4, [r3, #12]
 8002a26:	3002      	adds	r0, #2
 8002a28:	42a3      	cmp	r3, r4
 8002a2a:	d100      	bne.n	8002a2e <_malloc_r+0x3e2>
 8002a2c:	e655      	b.n	80026da <_malloc_r+0x8e>
 8002a2e:	e6ca      	b.n	80027c6 <_malloc_r+0x17a>
 8002a30:	2201      	movs	r2, #1
 8002a32:	18e3      	adds	r3, r4, r3
 8002a34:	6859      	ldr	r1, [r3, #4]
 8002a36:	0038      	movs	r0, r7
 8002a38:	430a      	orrs	r2, r1
 8002a3a:	605a      	str	r2, [r3, #4]
 8002a3c:	68e3      	ldr	r3, [r4, #12]
 8002a3e:	68a2      	ldr	r2, [r4, #8]
 8002a40:	60d3      	str	r3, [r2, #12]
 8002a42:	609a      	str	r2, [r3, #8]
 8002a44:	f000 f92e 	bl	8002ca4 <__malloc_unlock>
 8002a48:	0020      	movs	r0, r4
 8002a4a:	3008      	adds	r0, #8
 8002a4c:	e6cd      	b.n	80027ea <_malloc_r+0x19e>
 8002a4e:	235b      	movs	r3, #91	; 0x5b
 8002a50:	4698      	mov	r8, r3
 8002a52:	4480      	add	r8, r0
 8002a54:	305c      	adds	r0, #92	; 0x5c
 8002a56:	00c1      	lsls	r1, r0, #3
 8002a58:	e61f      	b.n	800269a <_malloc_r+0x4e>
 8002a5a:	099a      	lsrs	r2, r3, #6
 8002a5c:	0011      	movs	r1, r2
 8002a5e:	3239      	adds	r2, #57	; 0x39
 8002a60:	3138      	adds	r1, #56	; 0x38
 8002a62:	00d2      	lsls	r2, r2, #3
 8002a64:	e78c      	b.n	8002980 <_malloc_r+0x334>
 8002a66:	42b4      	cmp	r4, r6
 8002a68:	d000      	beq.n	8002a6c <_malloc_r+0x420>
 8002a6a:	e75a      	b.n	8002922 <_malloc_r+0x2d6>
 8002a6c:	4b4f      	ldr	r3, [pc, #316]	; (8002bac <_malloc_r+0x560>)
 8002a6e:	9a00      	ldr	r2, [sp, #0]
 8002a70:	469a      	mov	sl, r3
 8002a72:	681b      	ldr	r3, [r3, #0]
 8002a74:	469c      	mov	ip, r3
 8002a76:	4653      	mov	r3, sl
 8002a78:	4462      	add	r2, ip
 8002a7a:	0011      	movs	r1, r2
 8002a7c:	601a      	str	r2, [r3, #0]
 8002a7e:	e6ff      	b.n	8002880 <_malloc_r+0x234>
 8002a80:	2308      	movs	r3, #8
 8002a82:	425b      	negs	r3, r3
 8002a84:	469c      	mov	ip, r3
 8002a86:	44e1      	add	r9, ip
 8002a88:	464b      	mov	r3, r9
 8002a8a:	689b      	ldr	r3, [r3, #8]
 8002a8c:	3801      	subs	r0, #1
 8002a8e:	4599      	cmp	r9, r3
 8002a90:	d000      	beq.n	8002a94 <_malloc_r+0x448>
 8002a92:	e084      	b.n	8002b9e <_malloc_r+0x552>
 8002a94:	4643      	mov	r3, r8
 8002a96:	4203      	tst	r3, r0
 8002a98:	d1f2      	bne.n	8002a80 <_malloc_r+0x434>
 8002a9a:	6873      	ldr	r3, [r6, #4]
 8002a9c:	438b      	bics	r3, r1
 8002a9e:	6073      	str	r3, [r6, #4]
 8002aa0:	0049      	lsls	r1, r1, #1
 8002aa2:	4299      	cmp	r1, r3
 8002aa4:	d900      	bls.n	8002aa8 <_malloc_r+0x45c>
 8002aa6:	e6b5      	b.n	8002814 <_malloc_r+0x1c8>
 8002aa8:	2900      	cmp	r1, #0
 8002aaa:	d100      	bne.n	8002aae <_malloc_r+0x462>
 8002aac:	e6b2      	b.n	8002814 <_malloc_r+0x1c8>
 8002aae:	4650      	mov	r0, sl
 8002ab0:	420b      	tst	r3, r1
 8002ab2:	d000      	beq.n	8002ab6 <_malloc_r+0x46a>
 8002ab4:	e648      	b.n	8002748 <_malloc_r+0xfc>
 8002ab6:	0049      	lsls	r1, r1, #1
 8002ab8:	3004      	adds	r0, #4
 8002aba:	420b      	tst	r3, r1
 8002abc:	d0fb      	beq.n	8002ab6 <_malloc_r+0x46a>
 8002abe:	e643      	b.n	8002748 <_malloc_r+0xfc>
 8002ac0:	2301      	movs	r3, #1
 8002ac2:	464a      	mov	r2, r9
 8002ac4:	6053      	str	r3, [r2, #4]
 8002ac6:	0038      	movs	r0, r7
 8002ac8:	f000 f8ec 	bl	8002ca4 <__malloc_unlock>
 8002acc:	2000      	movs	r0, #0
 8002ace:	e68c      	b.n	80027ea <_malloc_r+0x19e>
 8002ad0:	4694      	mov	ip, r2
 8002ad2:	e76a      	b.n	80029aa <_malloc_r+0x35e>
 8002ad4:	23aa      	movs	r3, #170	; 0xaa
 8002ad6:	005b      	lsls	r3, r3, #1
 8002ad8:	4298      	cmp	r0, r3
 8002ada:	d811      	bhi.n	8002b00 <_malloc_r+0x4b4>
 8002adc:	3bdd      	subs	r3, #221	; 0xdd
 8002ade:	4698      	mov	r8, r3
 8002ae0:	0be8      	lsrs	r0, r5, #15
 8002ae2:	4480      	add	r8, r0
 8002ae4:	3078      	adds	r0, #120	; 0x78
 8002ae6:	00c1      	lsls	r1, r0, #3
 8002ae8:	e5d7      	b.n	800269a <_malloc_r+0x4e>
 8002aea:	2380      	movs	r3, #128	; 0x80
 8002aec:	015b      	lsls	r3, r3, #5
 8002aee:	e6dd      	b.n	80028ac <_malloc_r+0x260>
 8002af0:	1089      	asrs	r1, r1, #2
 8002af2:	3b02      	subs	r3, #2
 8002af4:	408b      	lsls	r3, r1
 8002af6:	6872      	ldr	r2, [r6, #4]
 8002af8:	4313      	orrs	r3, r2
 8002afa:	6073      	str	r3, [r6, #4]
 8002afc:	4662      	mov	r2, ip
 8002afe:	e757      	b.n	80029b0 <_malloc_r+0x364>
 8002b00:	4b2b      	ldr	r3, [pc, #172]	; (8002bb0 <_malloc_r+0x564>)
 8002b02:	4298      	cmp	r0, r3
 8002b04:	d81c      	bhi.n	8002b40 <_malloc_r+0x4f4>
 8002b06:	237c      	movs	r3, #124	; 0x7c
 8002b08:	4698      	mov	r8, r3
 8002b0a:	0ca8      	lsrs	r0, r5, #18
 8002b0c:	4480      	add	r8, r0
 8002b0e:	307d      	adds	r0, #125	; 0x7d
 8002b10:	00c1      	lsls	r1, r0, #3
 8002b12:	e5c2      	b.n	800269a <_malloc_r+0x4e>
 8002b14:	3310      	adds	r3, #16
 8002b16:	9300      	str	r3, [sp, #0]
 8002b18:	e699      	b.n	800284e <_malloc_r+0x202>
 8002b1a:	2a54      	cmp	r2, #84	; 0x54
 8002b1c:	d826      	bhi.n	8002b6c <_malloc_r+0x520>
 8002b1e:	464b      	mov	r3, r9
 8002b20:	0b1a      	lsrs	r2, r3, #12
 8002b22:	0011      	movs	r1, r2
 8002b24:	326f      	adds	r2, #111	; 0x6f
 8002b26:	316e      	adds	r1, #110	; 0x6e
 8002b28:	00d2      	lsls	r2, r2, #3
 8002b2a:	e729      	b.n	8002980 <_malloc_r+0x334>
 8002b2c:	051b      	lsls	r3, r3, #20
 8002b2e:	d000      	beq.n	8002b32 <_malloc_r+0x4e6>
 8002b30:	e6a6      	b.n	8002880 <_malloc_r+0x234>
 8002b32:	2001      	movs	r0, #1
 8002b34:	9b00      	ldr	r3, [sp, #0]
 8002b36:	68b2      	ldr	r2, [r6, #8]
 8002b38:	4443      	add	r3, r8
 8002b3a:	4303      	orrs	r3, r0
 8002b3c:	6053      	str	r3, [r2, #4]
 8002b3e:	e6e6      	b.n	800290e <_malloc_r+0x2c2>
 8002b40:	21fe      	movs	r1, #254	; 0xfe
 8002b42:	237e      	movs	r3, #126	; 0x7e
 8002b44:	207f      	movs	r0, #127	; 0x7f
 8002b46:	0089      	lsls	r1, r1, #2
 8002b48:	4698      	mov	r8, r3
 8002b4a:	e5a6      	b.n	800269a <_malloc_r+0x4e>
 8002b4c:	2300      	movs	r3, #0
 8002b4e:	2001      	movs	r0, #1
 8002b50:	469b      	mov	fp, r3
 8002b52:	e6bd      	b.n	80028d0 <_malloc_r+0x284>
 8002b54:	0021      	movs	r1, r4
 8002b56:	0038      	movs	r0, r7
 8002b58:	3108      	adds	r1, #8
 8002b5a:	f000 f9ad 	bl	8002eb8 <_free_r>
 8002b5e:	4653      	mov	r3, sl
 8002b60:	6819      	ldr	r1, [r3, #0]
 8002b62:	e6d4      	b.n	800290e <_malloc_r+0x2c2>
 8002b64:	465b      	mov	r3, fp
 8002b66:	464a      	mov	r2, r9
 8002b68:	601a      	str	r2, [r3, #0]
 8002b6a:	e694      	b.n	8002896 <_malloc_r+0x24a>
 8002b6c:	21aa      	movs	r1, #170	; 0xaa
 8002b6e:	0049      	lsls	r1, r1, #1
 8002b70:	428a      	cmp	r2, r1
 8002b72:	d806      	bhi.n	8002b82 <_malloc_r+0x536>
 8002b74:	464b      	mov	r3, r9
 8002b76:	0bda      	lsrs	r2, r3, #15
 8002b78:	0011      	movs	r1, r2
 8002b7a:	3278      	adds	r2, #120	; 0x78
 8002b7c:	3177      	adds	r1, #119	; 0x77
 8002b7e:	00d2      	lsls	r2, r2, #3
 8002b80:	e6fe      	b.n	8002980 <_malloc_r+0x334>
 8002b82:	490b      	ldr	r1, [pc, #44]	; (8002bb0 <_malloc_r+0x564>)
 8002b84:	428a      	cmp	r2, r1
 8002b86:	d806      	bhi.n	8002b96 <_malloc_r+0x54a>
 8002b88:	464b      	mov	r3, r9
 8002b8a:	0c9a      	lsrs	r2, r3, #18
 8002b8c:	0011      	movs	r1, r2
 8002b8e:	327d      	adds	r2, #125	; 0x7d
 8002b90:	317c      	adds	r1, #124	; 0x7c
 8002b92:	00d2      	lsls	r2, r2, #3
 8002b94:	e6f4      	b.n	8002980 <_malloc_r+0x334>
 8002b96:	22fe      	movs	r2, #254	; 0xfe
 8002b98:	217e      	movs	r1, #126	; 0x7e
 8002b9a:	0092      	lsls	r2, r2, #2
 8002b9c:	e6f0      	b.n	8002980 <_malloc_r+0x334>
 8002b9e:	6873      	ldr	r3, [r6, #4]
 8002ba0:	e77e      	b.n	8002aa0 <_malloc_r+0x454>
 8002ba2:	002b      	movs	r3, r5
 8002ba4:	08e8      	lsrs	r0, r5, #3
 8002ba6:	3308      	adds	r3, #8
 8002ba8:	e605      	b.n	80027b6 <_malloc_r+0x16a>
 8002baa:	46c0      	nop			; (mov r8, r8)
 8002bac:	20000894 	.word	0x20000894
 8002bb0:	00000554 	.word	0x00000554

08002bb4 <memcmp>:
 8002bb4:	b510      	push	{r4, lr}
 8002bb6:	2a03      	cmp	r2, #3
 8002bb8:	d91c      	bls.n	8002bf4 <memcmp+0x40>
 8002bba:	0003      	movs	r3, r0
 8002bbc:	430b      	orrs	r3, r1
 8002bbe:	079b      	lsls	r3, r3, #30
 8002bc0:	d00f      	beq.n	8002be2 <memcmp+0x2e>
 8002bc2:	7803      	ldrb	r3, [r0, #0]
 8002bc4:	780c      	ldrb	r4, [r1, #0]
 8002bc6:	1882      	adds	r2, r0, r2
 8002bc8:	42a3      	cmp	r3, r4
 8002bca:	d004      	beq.n	8002bd6 <memcmp+0x22>
 8002bcc:	e015      	b.n	8002bfa <memcmp+0x46>
 8002bce:	7803      	ldrb	r3, [r0, #0]
 8002bd0:	780c      	ldrb	r4, [r1, #0]
 8002bd2:	42a3      	cmp	r3, r4
 8002bd4:	d111      	bne.n	8002bfa <memcmp+0x46>
 8002bd6:	3001      	adds	r0, #1
 8002bd8:	3101      	adds	r1, #1
 8002bda:	4282      	cmp	r2, r0
 8002bdc:	d1f7      	bne.n	8002bce <memcmp+0x1a>
 8002bde:	2000      	movs	r0, #0
 8002be0:	bd10      	pop	{r4, pc}
 8002be2:	6803      	ldr	r3, [r0, #0]
 8002be4:	680c      	ldr	r4, [r1, #0]
 8002be6:	42a3      	cmp	r3, r4
 8002be8:	d1eb      	bne.n	8002bc2 <memcmp+0xe>
 8002bea:	3a04      	subs	r2, #4
 8002bec:	3004      	adds	r0, #4
 8002bee:	3104      	adds	r1, #4
 8002bf0:	2a03      	cmp	r2, #3
 8002bf2:	d8f6      	bhi.n	8002be2 <memcmp+0x2e>
 8002bf4:	2a00      	cmp	r2, #0
 8002bf6:	d1e4      	bne.n	8002bc2 <memcmp+0xe>
 8002bf8:	e7f1      	b.n	8002bde <memcmp+0x2a>
 8002bfa:	1b18      	subs	r0, r3, r4
 8002bfc:	e7f0      	b.n	8002be0 <memcmp+0x2c>
 8002bfe:	46c0      	nop			; (mov r8, r8)

08002c00 <memset>:
 8002c00:	b5f0      	push	{r4, r5, r6, r7, lr}
 8002c02:	0783      	lsls	r3, r0, #30
 8002c04:	d043      	beq.n	8002c8e <memset+0x8e>
 8002c06:	1e54      	subs	r4, r2, #1
 8002c08:	2a00      	cmp	r2, #0
 8002c0a:	d03f      	beq.n	8002c8c <memset+0x8c>
 8002c0c:	b2ce      	uxtb	r6, r1
 8002c0e:	0002      	movs	r2, r0
 8002c10:	2503      	movs	r5, #3
 8002c12:	e002      	b.n	8002c1a <memset+0x1a>
 8002c14:	001a      	movs	r2, r3
 8002c16:	3c01      	subs	r4, #1
 8002c18:	d338      	bcc.n	8002c8c <memset+0x8c>
 8002c1a:	1c53      	adds	r3, r2, #1
 8002c1c:	7016      	strb	r6, [r2, #0]
 8002c1e:	422b      	tst	r3, r5
 8002c20:	d1f8      	bne.n	8002c14 <memset+0x14>
 8002c22:	2c03      	cmp	r4, #3
 8002c24:	d92a      	bls.n	8002c7c <memset+0x7c>
 8002c26:	22ff      	movs	r2, #255	; 0xff
 8002c28:	400a      	ands	r2, r1
 8002c2a:	0215      	lsls	r5, r2, #8
 8002c2c:	4315      	orrs	r5, r2
 8002c2e:	042a      	lsls	r2, r5, #16
 8002c30:	4315      	orrs	r5, r2
 8002c32:	2c0f      	cmp	r4, #15
 8002c34:	d914      	bls.n	8002c60 <memset+0x60>
 8002c36:	0027      	movs	r7, r4
 8002c38:	001a      	movs	r2, r3
 8002c3a:	3f10      	subs	r7, #16
 8002c3c:	093e      	lsrs	r6, r7, #4
 8002c3e:	3601      	adds	r6, #1
 8002c40:	0136      	lsls	r6, r6, #4
 8002c42:	199e      	adds	r6, r3, r6
 8002c44:	6015      	str	r5, [r2, #0]
 8002c46:	6055      	str	r5, [r2, #4]
 8002c48:	6095      	str	r5, [r2, #8]
 8002c4a:	60d5      	str	r5, [r2, #12]
 8002c4c:	3210      	adds	r2, #16
 8002c4e:	4296      	cmp	r6, r2
 8002c50:	d1f8      	bne.n	8002c44 <memset+0x44>
 8002c52:	220f      	movs	r2, #15
 8002c54:	4397      	bics	r7, r2
 8002c56:	3710      	adds	r7, #16
 8002c58:	19db      	adds	r3, r3, r7
 8002c5a:	4014      	ands	r4, r2
 8002c5c:	2c03      	cmp	r4, #3
 8002c5e:	d90d      	bls.n	8002c7c <memset+0x7c>
 8002c60:	001a      	movs	r2, r3
 8002c62:	1f27      	subs	r7, r4, #4
 8002c64:	08be      	lsrs	r6, r7, #2
 8002c66:	3601      	adds	r6, #1
 8002c68:	00b6      	lsls	r6, r6, #2
 8002c6a:	199e      	adds	r6, r3, r6
 8002c6c:	c220      	stmia	r2!, {r5}
 8002c6e:	42b2      	cmp	r2, r6
 8002c70:	d1fc      	bne.n	8002c6c <memset+0x6c>
 8002c72:	2203      	movs	r2, #3
 8002c74:	4397      	bics	r7, r2
 8002c76:	3704      	adds	r7, #4
 8002c78:	19db      	adds	r3, r3, r7
 8002c7a:	4014      	ands	r4, r2
 8002c7c:	2c00      	cmp	r4, #0
 8002c7e:	d005      	beq.n	8002c8c <memset+0x8c>
 8002c80:	b2c9      	uxtb	r1, r1
 8002c82:	191c      	adds	r4, r3, r4
 8002c84:	7019      	strb	r1, [r3, #0]
 8002c86:	3301      	adds	r3, #1
 8002c88:	429c      	cmp	r4, r3
 8002c8a:	d1fb      	bne.n	8002c84 <memset+0x84>
 8002c8c:	bdf0      	pop	{r4, r5, r6, r7, pc}
 8002c8e:	0014      	movs	r4, r2
 8002c90:	0003      	movs	r3, r0
 8002c92:	e7c6      	b.n	8002c22 <memset+0x22>

08002c94 <__malloc_lock>:
 8002c94:	b510      	push	{r4, lr}
 8002c96:	4802      	ldr	r0, [pc, #8]	; (8002ca0 <__malloc_lock+0xc>)
 8002c98:	f000 f9ec 	bl	8003074 <__retarget_lock_acquire_recursive>
 8002c9c:	bd10      	pop	{r4, pc}
 8002c9e:	46c0      	nop			; (mov r8, r8)
 8002ca0:	200008d8 	.word	0x200008d8

08002ca4 <__malloc_unlock>:
 8002ca4:	b510      	push	{r4, lr}
 8002ca6:	4802      	ldr	r0, [pc, #8]	; (8002cb0 <__malloc_unlock+0xc>)
 8002ca8:	f000 f9e6 	bl	8003078 <__retarget_lock_release_recursive>
 8002cac:	bd10      	pop	{r4, pc}
 8002cae:	46c0      	nop			; (mov r8, r8)
 8002cb0:	200008d8 	.word	0x200008d8

08002cb4 <_sbrk_r>:
 8002cb4:	2300      	movs	r3, #0
 8002cb6:	b570      	push	{r4, r5, r6, lr}
 8002cb8:	4c06      	ldr	r4, [pc, #24]	; (8002cd4 <_sbrk_r+0x20>)
 8002cba:	0005      	movs	r5, r0
 8002cbc:	0008      	movs	r0, r1
 8002cbe:	6023      	str	r3, [r4, #0]
 8002cc0:	f7ff f866 	bl	8001d90 <_sbrk>
 8002cc4:	1c43      	adds	r3, r0, #1
 8002cc6:	d000      	beq.n	8002cca <_sbrk_r+0x16>
 8002cc8:	bd70      	pop	{r4, r5, r6, pc}
 8002cca:	6823      	ldr	r3, [r4, #0]
 8002ccc:	2b00      	cmp	r3, #0
 8002cce:	d0fb      	beq.n	8002cc8 <_sbrk_r+0x14>
 8002cd0:	602b      	str	r3, [r5, #0]
 8002cd2:	e7f9      	b.n	8002cc8 <_sbrk_r+0x14>
 8002cd4:	200008ec 	.word	0x200008ec

08002cd8 <__register_exitproc>:
 8002cd8:	b5f0      	push	{r4, r5, r6, r7, lr}
 8002cda:	464e      	mov	r6, r9
 8002cdc:	4645      	mov	r5, r8
 8002cde:	46de      	mov	lr, fp
 8002ce0:	4657      	mov	r7, sl
 8002ce2:	b5e0      	push	{r5, r6, r7, lr}
 8002ce4:	4d36      	ldr	r5, [pc, #216]	; (8002dc0 <__register_exitproc+0xe8>)
 8002ce6:	b083      	sub	sp, #12
 8002ce8:	0006      	movs	r6, r0
 8002cea:	6828      	ldr	r0, [r5, #0]
 8002cec:	4698      	mov	r8, r3
 8002cee:	000f      	movs	r7, r1
 8002cf0:	4691      	mov	r9, r2
 8002cf2:	f000 f9bf 	bl	8003074 <__retarget_lock_acquire_recursive>
 8002cf6:	4b33      	ldr	r3, [pc, #204]	; (8002dc4 <__register_exitproc+0xec>)
 8002cf8:	681c      	ldr	r4, [r3, #0]
 8002cfa:	23a4      	movs	r3, #164	; 0xa4
 8002cfc:	005b      	lsls	r3, r3, #1
 8002cfe:	58e0      	ldr	r0, [r4, r3]
 8002d00:	2800      	cmp	r0, #0
 8002d02:	d052      	beq.n	8002daa <__register_exitproc+0xd2>
 8002d04:	6843      	ldr	r3, [r0, #4]
 8002d06:	2b1f      	cmp	r3, #31
 8002d08:	dc13      	bgt.n	8002d32 <__register_exitproc+0x5a>
 8002d0a:	1c5a      	adds	r2, r3, #1
 8002d0c:	9201      	str	r2, [sp, #4]
 8002d0e:	2e00      	cmp	r6, #0
 8002d10:	d128      	bne.n	8002d64 <__register_exitproc+0x8c>
 8002d12:	9a01      	ldr	r2, [sp, #4]
 8002d14:	3302      	adds	r3, #2
 8002d16:	009b      	lsls	r3, r3, #2
 8002d18:	6042      	str	r2, [r0, #4]
 8002d1a:	501f      	str	r7, [r3, r0]
 8002d1c:	6828      	ldr	r0, [r5, #0]
 8002d1e:	f000 f9ab 	bl	8003078 <__retarget_lock_release_recursive>
 8002d22:	2000      	movs	r0, #0
 8002d24:	b003      	add	sp, #12
 8002d26:	bc3c      	pop	{r2, r3, r4, r5}
 8002d28:	4690      	mov	r8, r2
 8002d2a:	4699      	mov	r9, r3
 8002d2c:	46a2      	mov	sl, r4
 8002d2e:	46ab      	mov	fp, r5
 8002d30:	bdf0      	pop	{r4, r5, r6, r7, pc}
 8002d32:	4b25      	ldr	r3, [pc, #148]	; (8002dc8 <__register_exitproc+0xf0>)
 8002d34:	2b00      	cmp	r3, #0
 8002d36:	d03d      	beq.n	8002db4 <__register_exitproc+0xdc>
 8002d38:	20c8      	movs	r0, #200	; 0xc8
 8002d3a:	0040      	lsls	r0, r0, #1
 8002d3c:	f7ff fc72 	bl	8002624 <malloc>
 8002d40:	2800      	cmp	r0, #0
 8002d42:	d037      	beq.n	8002db4 <__register_exitproc+0xdc>
 8002d44:	22a4      	movs	r2, #164	; 0xa4
 8002d46:	2300      	movs	r3, #0
 8002d48:	0052      	lsls	r2, r2, #1
 8002d4a:	58a1      	ldr	r1, [r4, r2]
 8002d4c:	6043      	str	r3, [r0, #4]
 8002d4e:	6001      	str	r1, [r0, #0]
 8002d50:	50a0      	str	r0, [r4, r2]
 8002d52:	3240      	adds	r2, #64	; 0x40
 8002d54:	5083      	str	r3, [r0, r2]
 8002d56:	3204      	adds	r2, #4
 8002d58:	5083      	str	r3, [r0, r2]
 8002d5a:	3301      	adds	r3, #1
 8002d5c:	9301      	str	r3, [sp, #4]
 8002d5e:	2300      	movs	r3, #0
 8002d60:	2e00      	cmp	r6, #0
 8002d62:	d0d6      	beq.n	8002d12 <__register_exitproc+0x3a>
 8002d64:	009a      	lsls	r2, r3, #2
 8002d66:	4692      	mov	sl, r2
 8002d68:	4482      	add	sl, r0
 8002d6a:	464a      	mov	r2, r9
 8002d6c:	2188      	movs	r1, #136	; 0x88
 8002d6e:	4654      	mov	r4, sl
 8002d70:	5062      	str	r2, [r4, r1]
 8002d72:	22c4      	movs	r2, #196	; 0xc4
 8002d74:	0052      	lsls	r2, r2, #1
 8002d76:	4691      	mov	r9, r2
 8002d78:	4481      	add	r9, r0
 8002d7a:	464a      	mov	r2, r9
 8002d7c:	3987      	subs	r1, #135	; 0x87
 8002d7e:	4099      	lsls	r1, r3
 8002d80:	6812      	ldr	r2, [r2, #0]
 8002d82:	468b      	mov	fp, r1
 8002d84:	430a      	orrs	r2, r1
 8002d86:	4694      	mov	ip, r2
 8002d88:	464a      	mov	r2, r9
 8002d8a:	4661      	mov	r1, ip
 8002d8c:	6011      	str	r1, [r2, #0]
 8002d8e:	2284      	movs	r2, #132	; 0x84
 8002d90:	4641      	mov	r1, r8
 8002d92:	0052      	lsls	r2, r2, #1
 8002d94:	50a1      	str	r1, [r4, r2]
 8002d96:	2e02      	cmp	r6, #2
 8002d98:	d1bb      	bne.n	8002d12 <__register_exitproc+0x3a>
 8002d9a:	0002      	movs	r2, r0
 8002d9c:	465c      	mov	r4, fp
 8002d9e:	328d      	adds	r2, #141	; 0x8d
 8002da0:	32ff      	adds	r2, #255	; 0xff
 8002da2:	6811      	ldr	r1, [r2, #0]
 8002da4:	430c      	orrs	r4, r1
 8002da6:	6014      	str	r4, [r2, #0]
 8002da8:	e7b3      	b.n	8002d12 <__register_exitproc+0x3a>
 8002daa:	0020      	movs	r0, r4
 8002dac:	304d      	adds	r0, #77	; 0x4d
 8002dae:	30ff      	adds	r0, #255	; 0xff
 8002db0:	50e0      	str	r0, [r4, r3]
 8002db2:	e7a7      	b.n	8002d04 <__register_exitproc+0x2c>
 8002db4:	6828      	ldr	r0, [r5, #0]
 8002db6:	f000 f95f 	bl	8003078 <__retarget_lock_release_recursive>
 8002dba:	2001      	movs	r0, #1
 8002dbc:	4240      	negs	r0, r0
 8002dbe:	e7b1      	b.n	8002d24 <__register_exitproc+0x4c>
 8002dc0:	20000848 	.word	0x20000848
 8002dc4:	080031d8 	.word	0x080031d8
 8002dc8:	08002625 	.word	0x08002625

08002dcc <register_fini>:
 8002dcc:	4b03      	ldr	r3, [pc, #12]	; (8002ddc <register_fini+0x10>)
 8002dce:	b510      	push	{r4, lr}
 8002dd0:	2b00      	cmp	r3, #0
 8002dd2:	d002      	beq.n	8002dda <register_fini+0xe>
 8002dd4:	4802      	ldr	r0, [pc, #8]	; (8002de0 <register_fini+0x14>)
 8002dd6:	f7fe ffe9 	bl	8001dac <__wrap_atexit>
 8002dda:	bd10      	pop	{r4, pc}
 8002ddc:	00000000 	.word	0x00000000
 8002de0:	08002de5 	.word	0x08002de5

08002de4 <__libc_fini_array>:
 8002de4:	b570      	push	{r4, r5, r6, lr}
 8002de6:	4b09      	ldr	r3, [pc, #36]	; (8002e0c <__libc_fini_array+0x28>)
 8002de8:	4c09      	ldr	r4, [pc, #36]	; (8002e10 <__libc_fini_array+0x2c>)
 8002dea:	1ae4      	subs	r4, r4, r3
 8002dec:	10a4      	asrs	r4, r4, #2
 8002dee:	d009      	beq.n	8002e04 <__libc_fini_array+0x20>
 8002df0:	4a08      	ldr	r2, [pc, #32]	; (8002e14 <__libc_fini_array+0x30>)
 8002df2:	18a5      	adds	r5, r4, r2
 8002df4:	00ad      	lsls	r5, r5, #2
 8002df6:	18ed      	adds	r5, r5, r3
 8002df8:	682b      	ldr	r3, [r5, #0]
 8002dfa:	3c01      	subs	r4, #1
 8002dfc:	4798      	blx	r3
 8002dfe:	3d04      	subs	r5, #4
 8002e00:	2c00      	cmp	r4, #0
 8002e02:	d1f9      	bne.n	8002df8 <__libc_fini_array+0x14>
 8002e04:	f000 f9f0 	bl	80031e8 <_fini>
 8002e08:	bd70      	pop	{r4, r5, r6, pc}
 8002e0a:	46c0      	nop			; (mov r8, r8)
 8002e0c:	08003208 	.word	0x08003208
 8002e10:	0800320c 	.word	0x0800320c
 8002e14:	3fffffff 	.word	0x3fffffff

08002e18 <_malloc_trim_r>:
 8002e18:	b5f8      	push	{r3, r4, r5, r6, r7, lr}
 8002e1a:	000c      	movs	r4, r1
 8002e1c:	0006      	movs	r6, r0
 8002e1e:	f7ff ff39 	bl	8002c94 <__malloc_lock>
 8002e22:	4f20      	ldr	r7, [pc, #128]	; (8002ea4 <_malloc_trim_r+0x8c>)
 8002e24:	68bb      	ldr	r3, [r7, #8]
 8002e26:	685d      	ldr	r5, [r3, #4]
 8002e28:	2303      	movs	r3, #3
 8002e2a:	439d      	bics	r5, r3
 8002e2c:	4b1e      	ldr	r3, [pc, #120]	; (8002ea8 <_malloc_trim_r+0x90>)
 8002e2e:	1b2c      	subs	r4, r5, r4
 8002e30:	469c      	mov	ip, r3
 8002e32:	4464      	add	r4, ip
 8002e34:	0b24      	lsrs	r4, r4, #12
 8002e36:	4b1d      	ldr	r3, [pc, #116]	; (8002eac <_malloc_trim_r+0x94>)
 8002e38:	3c01      	subs	r4, #1
 8002e3a:	0324      	lsls	r4, r4, #12
 8002e3c:	429c      	cmp	r4, r3
 8002e3e:	dd07      	ble.n	8002e50 <_malloc_trim_r+0x38>
 8002e40:	2100      	movs	r1, #0
 8002e42:	0030      	movs	r0, r6
 8002e44:	f7ff ff36 	bl	8002cb4 <_sbrk_r>
 8002e48:	68bb      	ldr	r3, [r7, #8]
 8002e4a:	195b      	adds	r3, r3, r5
 8002e4c:	4298      	cmp	r0, r3
 8002e4e:	d004      	beq.n	8002e5a <_malloc_trim_r+0x42>
 8002e50:	0030      	movs	r0, r6
 8002e52:	f7ff ff27 	bl	8002ca4 <__malloc_unlock>
 8002e56:	2000      	movs	r0, #0
 8002e58:	bdf8      	pop	{r3, r4, r5, r6, r7, pc}
 8002e5a:	4261      	negs	r1, r4
 8002e5c:	0030      	movs	r0, r6
 8002e5e:	f7ff ff29 	bl	8002cb4 <_sbrk_r>
 8002e62:	1c43      	adds	r3, r0, #1
 8002e64:	d00d      	beq.n	8002e82 <_malloc_trim_r+0x6a>
 8002e66:	2201      	movs	r2, #1
 8002e68:	68bb      	ldr	r3, [r7, #8]
 8002e6a:	1b2d      	subs	r5, r5, r4
 8002e6c:	4315      	orrs	r5, r2
 8002e6e:	605d      	str	r5, [r3, #4]
 8002e70:	4b0f      	ldr	r3, [pc, #60]	; (8002eb0 <_malloc_trim_r+0x98>)
 8002e72:	0030      	movs	r0, r6
 8002e74:	681a      	ldr	r2, [r3, #0]
 8002e76:	1b14      	subs	r4, r2, r4
 8002e78:	601c      	str	r4, [r3, #0]
 8002e7a:	f7ff ff13 	bl	8002ca4 <__malloc_unlock>
 8002e7e:	2001      	movs	r0, #1
 8002e80:	e7ea      	b.n	8002e58 <_malloc_trim_r+0x40>
 8002e82:	2100      	movs	r1, #0
 8002e84:	0030      	movs	r0, r6
 8002e86:	f7ff ff15 	bl	8002cb4 <_sbrk_r>
 8002e8a:	68ba      	ldr	r2, [r7, #8]
 8002e8c:	1a83      	subs	r3, r0, r2
 8002e8e:	2b0f      	cmp	r3, #15
 8002e90:	ddde      	ble.n	8002e50 <_malloc_trim_r+0x38>
 8002e92:	4908      	ldr	r1, [pc, #32]	; (8002eb4 <_malloc_trim_r+0x9c>)
 8002e94:	6809      	ldr	r1, [r1, #0]
 8002e96:	1a40      	subs	r0, r0, r1
 8002e98:	4905      	ldr	r1, [pc, #20]	; (8002eb0 <_malloc_trim_r+0x98>)
 8002e9a:	6008      	str	r0, [r1, #0]
 8002e9c:	2101      	movs	r1, #1
 8002e9e:	430b      	orrs	r3, r1
 8002ea0:	6053      	str	r3, [r2, #4]
 8002ea2:	e7d5      	b.n	8002e50 <_malloc_trim_r+0x38>
 8002ea4:	20000438 	.word	0x20000438
 8002ea8:	00000fef 	.word	0x00000fef
 8002eac:	00000fff 	.word	0x00000fff
 8002eb0:	20000894 	.word	0x20000894
 8002eb4:	20000840 	.word	0x20000840

08002eb8 <_free_r>:
 8002eb8:	b5f8      	push	{r3, r4, r5, r6, r7, lr}
 8002eba:	0004      	movs	r4, r0
 8002ebc:	1e0d      	subs	r5, r1, #0
 8002ebe:	d03c      	beq.n	8002f3a <_free_r+0x82>
 8002ec0:	f7ff fee8 	bl	8002c94 <__malloc_lock>
 8002ec4:	0029      	movs	r1, r5
 8002ec6:	3908      	subs	r1, #8
 8002ec8:	6848      	ldr	r0, [r1, #4]
 8002eca:	2301      	movs	r3, #1
 8002ecc:	0005      	movs	r5, r0
 8002ece:	2603      	movs	r6, #3
 8002ed0:	439d      	bics	r5, r3
 8002ed2:	194a      	adds	r2, r1, r5
 8002ed4:	469c      	mov	ip, r3
 8002ed6:	4f61      	ldr	r7, [pc, #388]	; (800305c <_free_r+0x1a4>)
 8002ed8:	6853      	ldr	r3, [r2, #4]
 8002eda:	43b3      	bics	r3, r6
 8002edc:	68be      	ldr	r6, [r7, #8]
 8002ede:	42b2      	cmp	r2, r6
 8002ee0:	d056      	beq.n	8002f90 <_free_r+0xd8>
 8002ee2:	4666      	mov	r6, ip
 8002ee4:	6053      	str	r3, [r2, #4]
 8002ee6:	4206      	tst	r6, r0
 8002ee8:	d10a      	bne.n	8002f00 <_free_r+0x48>
 8002eea:	003e      	movs	r6, r7
 8002eec:	6808      	ldr	r0, [r1, #0]
 8002eee:	3608      	adds	r6, #8
 8002ef0:	1a09      	subs	r1, r1, r0
 8002ef2:	182d      	adds	r5, r5, r0
 8002ef4:	6888      	ldr	r0, [r1, #8]
 8002ef6:	42b0      	cmp	r0, r6
 8002ef8:	d065      	beq.n	8002fc6 <_free_r+0x10e>
 8002efa:	68ce      	ldr	r6, [r1, #12]
 8002efc:	60c6      	str	r6, [r0, #12]
 8002efe:	60b0      	str	r0, [r6, #8]
 8002f00:	2001      	movs	r0, #1
 8002f02:	18d6      	adds	r6, r2, r3
 8002f04:	6876      	ldr	r6, [r6, #4]
 8002f06:	4206      	tst	r6, r0
 8002f08:	d033      	beq.n	8002f72 <_free_r+0xba>
 8002f0a:	4b55      	ldr	r3, [pc, #340]	; (8003060 <_free_r+0x1a8>)
 8002f0c:	4328      	orrs	r0, r5
 8002f0e:	6048      	str	r0, [r1, #4]
 8002f10:	514d      	str	r5, [r1, r5]
 8002f12:	429d      	cmp	r5, r3
 8002f14:	d812      	bhi.n	8002f3c <_free_r+0x84>
 8002f16:	08ed      	lsrs	r5, r5, #3
 8002f18:	3bff      	subs	r3, #255	; 0xff
 8002f1a:	10aa      	asrs	r2, r5, #2
 8002f1c:	3bff      	subs	r3, #255	; 0xff
 8002f1e:	4093      	lsls	r3, r2
 8002f20:	687a      	ldr	r2, [r7, #4]
 8002f22:	00ed      	lsls	r5, r5, #3
 8002f24:	4313      	orrs	r3, r2
 8002f26:	607b      	str	r3, [r7, #4]
 8002f28:	19ef      	adds	r7, r5, r7
 8002f2a:	68bb      	ldr	r3, [r7, #8]
 8002f2c:	60cf      	str	r7, [r1, #12]
 8002f2e:	608b      	str	r3, [r1, #8]
 8002f30:	60b9      	str	r1, [r7, #8]
 8002f32:	60d9      	str	r1, [r3, #12]
 8002f34:	0020      	movs	r0, r4
 8002f36:	f7ff feb5 	bl	8002ca4 <__malloc_unlock>
 8002f3a:	bdf8      	pop	{r3, r4, r5, r6, r7, pc}
 8002f3c:	0a68      	lsrs	r0, r5, #9
 8002f3e:	2804      	cmp	r0, #4
 8002f40:	d850      	bhi.n	8002fe4 <_free_r+0x12c>
 8002f42:	09a8      	lsrs	r0, r5, #6
 8002f44:	0002      	movs	r2, r0
 8002f46:	3039      	adds	r0, #57	; 0x39
 8002f48:	3238      	adds	r2, #56	; 0x38
 8002f4a:	00c0      	lsls	r0, r0, #3
 8002f4c:	1838      	adds	r0, r7, r0
 8002f4e:	3808      	subs	r0, #8
 8002f50:	6883      	ldr	r3, [r0, #8]
 8002f52:	2603      	movs	r6, #3
 8002f54:	4298      	cmp	r0, r3
 8002f56:	d04c      	beq.n	8002ff2 <_free_r+0x13a>
 8002f58:	685a      	ldr	r2, [r3, #4]
 8002f5a:	43b2      	bics	r2, r6
 8002f5c:	4295      	cmp	r5, r2
 8002f5e:	d230      	bcs.n	8002fc2 <_free_r+0x10a>
 8002f60:	689b      	ldr	r3, [r3, #8]
 8002f62:	4298      	cmp	r0, r3
 8002f64:	d1f8      	bne.n	8002f58 <_free_r+0xa0>
 8002f66:	68c3      	ldr	r3, [r0, #12]
 8002f68:	60cb      	str	r3, [r1, #12]
 8002f6a:	6088      	str	r0, [r1, #8]
 8002f6c:	6099      	str	r1, [r3, #8]
 8002f6e:	60c1      	str	r1, [r0, #12]
 8002f70:	e7e0      	b.n	8002f34 <_free_r+0x7c>
 8002f72:	18ed      	adds	r5, r5, r3
 8002f74:	4e3b      	ldr	r6, [pc, #236]	; (8003064 <_free_r+0x1ac>)
 8002f76:	6893      	ldr	r3, [r2, #8]
 8002f78:	42b3      	cmp	r3, r6
 8002f7a:	d042      	beq.n	8003002 <_free_r+0x14a>
 8002f7c:	68d2      	ldr	r2, [r2, #12]
 8002f7e:	4328      	orrs	r0, r5
 8002f80:	60da      	str	r2, [r3, #12]
 8002f82:	6093      	str	r3, [r2, #8]
 8002f84:	4b36      	ldr	r3, [pc, #216]	; (8003060 <_free_r+0x1a8>)
 8002f86:	6048      	str	r0, [r1, #4]
 8002f88:	514d      	str	r5, [r1, r5]
 8002f8a:	429d      	cmp	r5, r3
 8002f8c:	d8d6      	bhi.n	8002f3c <_free_r+0x84>
 8002f8e:	e7c2      	b.n	8002f16 <_free_r+0x5e>
 8002f90:	4662      	mov	r2, ip
 8002f92:	18eb      	adds	r3, r5, r3
 8002f94:	4202      	tst	r2, r0
 8002f96:	d106      	bne.n	8002fa6 <_free_r+0xee>
 8002f98:	680a      	ldr	r2, [r1, #0]
 8002f9a:	1a89      	subs	r1, r1, r2
 8002f9c:	6888      	ldr	r0, [r1, #8]
 8002f9e:	189b      	adds	r3, r3, r2
 8002fa0:	68ca      	ldr	r2, [r1, #12]
 8002fa2:	60c2      	str	r2, [r0, #12]
 8002fa4:	6090      	str	r0, [r2, #8]
 8002fa6:	2201      	movs	r2, #1
 8002fa8:	431a      	orrs	r2, r3
 8002faa:	604a      	str	r2, [r1, #4]
 8002fac:	4a2e      	ldr	r2, [pc, #184]	; (8003068 <_free_r+0x1b0>)
 8002fae:	60b9      	str	r1, [r7, #8]
 8002fb0:	6812      	ldr	r2, [r2, #0]
 8002fb2:	4293      	cmp	r3, r2
 8002fb4:	d3be      	bcc.n	8002f34 <_free_r+0x7c>
 8002fb6:	4b2d      	ldr	r3, [pc, #180]	; (800306c <_free_r+0x1b4>)
 8002fb8:	0020      	movs	r0, r4
 8002fba:	6819      	ldr	r1, [r3, #0]
 8002fbc:	f7ff ff2c 	bl	8002e18 <_malloc_trim_r>
 8002fc0:	e7b8      	b.n	8002f34 <_free_r+0x7c>
 8002fc2:	0018      	movs	r0, r3
 8002fc4:	e7cf      	b.n	8002f66 <_free_r+0xae>
 8002fc6:	4666      	mov	r6, ip
 8002fc8:	18d0      	adds	r0, r2, r3
 8002fca:	6840      	ldr	r0, [r0, #4]
 8002fcc:	4230      	tst	r0, r6
 8002fce:	d13f      	bne.n	8003050 <_free_r+0x198>
 8002fd0:	6890      	ldr	r0, [r2, #8]
 8002fd2:	195d      	adds	r5, r3, r5
 8002fd4:	68d3      	ldr	r3, [r2, #12]
 8002fd6:	60c3      	str	r3, [r0, #12]
 8002fd8:	6098      	str	r0, [r3, #8]
 8002fda:	4663      	mov	r3, ip
 8002fdc:	432b      	orrs	r3, r5
 8002fde:	604b      	str	r3, [r1, #4]
 8002fe0:	514d      	str	r5, [r1, r5]
 8002fe2:	e7a7      	b.n	8002f34 <_free_r+0x7c>
 8002fe4:	2814      	cmp	r0, #20
 8002fe6:	d814      	bhi.n	8003012 <_free_r+0x15a>
 8002fe8:	0002      	movs	r2, r0
 8002fea:	305c      	adds	r0, #92	; 0x5c
 8002fec:	325b      	adds	r2, #91	; 0x5b
 8002fee:	00c0      	lsls	r0, r0, #3
 8002ff0:	e7ac      	b.n	8002f4c <_free_r+0x94>
 8002ff2:	2301      	movs	r3, #1
 8002ff4:	1092      	asrs	r2, r2, #2
 8002ff6:	4093      	lsls	r3, r2
 8002ff8:	687a      	ldr	r2, [r7, #4]
 8002ffa:	4313      	orrs	r3, r2
 8002ffc:	607b      	str	r3, [r7, #4]
 8002ffe:	0003      	movs	r3, r0
 8003000:	e7b2      	b.n	8002f68 <_free_r+0xb0>
 8003002:	4328      	orrs	r0, r5
 8003004:	60d9      	str	r1, [r3, #12]
 8003006:	6099      	str	r1, [r3, #8]
 8003008:	60cb      	str	r3, [r1, #12]
 800300a:	608b      	str	r3, [r1, #8]
 800300c:	6048      	str	r0, [r1, #4]
 800300e:	514d      	str	r5, [r1, r5]
 8003010:	e790      	b.n	8002f34 <_free_r+0x7c>
 8003012:	2854      	cmp	r0, #84	; 0x54
 8003014:	d805      	bhi.n	8003022 <_free_r+0x16a>
 8003016:	0b28      	lsrs	r0, r5, #12
 8003018:	0002      	movs	r2, r0
 800301a:	306f      	adds	r0, #111	; 0x6f
 800301c:	326e      	adds	r2, #110	; 0x6e
 800301e:	00c0      	lsls	r0, r0, #3
 8003020:	e794      	b.n	8002f4c <_free_r+0x94>
 8003022:	22aa      	movs	r2, #170	; 0xaa
 8003024:	0052      	lsls	r2, r2, #1
 8003026:	4290      	cmp	r0, r2
 8003028:	d805      	bhi.n	8003036 <_free_r+0x17e>
 800302a:	0be8      	lsrs	r0, r5, #15
 800302c:	0002      	movs	r2, r0
 800302e:	3078      	adds	r0, #120	; 0x78
 8003030:	3277      	adds	r2, #119	; 0x77
 8003032:	00c0      	lsls	r0, r0, #3
 8003034:	e78a      	b.n	8002f4c <_free_r+0x94>
 8003036:	4a0e      	ldr	r2, [pc, #56]	; (8003070 <_free_r+0x1b8>)
 8003038:	4290      	cmp	r0, r2
 800303a:	d805      	bhi.n	8003048 <_free_r+0x190>
 800303c:	0ca8      	lsrs	r0, r5, #18
 800303e:	0002      	movs	r2, r0
 8003040:	307d      	adds	r0, #125	; 0x7d
 8003042:	327c      	adds	r2, #124	; 0x7c
 8003044:	00c0      	lsls	r0, r0, #3
 8003046:	e781      	b.n	8002f4c <_free_r+0x94>
 8003048:	20fe      	movs	r0, #254	; 0xfe
 800304a:	227e      	movs	r2, #126	; 0x7e
 800304c:	0080      	lsls	r0, r0, #2
 800304e:	e77d      	b.n	8002f4c <_free_r+0x94>
 8003050:	4663      	mov	r3, ip
 8003052:	432b      	orrs	r3, r5
 8003054:	604b      	str	r3, [r1, #4]
 8003056:	6015      	str	r5, [r2, #0]
 8003058:	e76c      	b.n	8002f34 <_free_r+0x7c>
 800305a:	46c0      	nop			; (mov r8, r8)
 800305c:	20000438 	.word	0x20000438
 8003060:	000001ff 	.word	0x000001ff
 8003064:	20000440 	.word	0x20000440
 8003068:	20000844 	.word	0x20000844
 800306c:	200008c4 	.word	0x200008c4
 8003070:	00000554 	.word	0x00000554

08003074 <__retarget_lock_acquire_recursive>:
 8003074:	4770      	bx	lr
 8003076:	46c0      	nop			; (mov r8, r8)

08003078 <__retarget_lock_release_recursive>:
 8003078:	4770      	bx	lr
 800307a:	46c0      	nop			; (mov r8, r8)
 800307c:	08000bd8 	.word	0x08000bd8
 8003080:	08000bd8 	.word	0x08000bd8
 8003084:	08000bb4 	.word	0x08000bb4
 8003088:	08000b68 	.word	0x08000b68
 800308c:	08000bd8 	.word	0x08000bd8
 8003090:	08000bd8 	.word	0x08000bd8
 8003094:	08000bd8 	.word	0x08000bd8
 8003098:	08000bd8 	.word	0x08000bd8
 800309c:	08000bd8 	.word	0x08000bd8
 80030a0:	08000b00 	.word	0x08000b00
 80030a4:	08000c3c 	.word	0x08000c3c
 80030a8:	08000c2e 	.word	0x08000c2e
 80030ac:	080017b0 	.word	0x080017b0
 80030b0:	080017d4 	.word	0x080017d4
 80030b4:	0800166c 	.word	0x0800166c
 80030b8:	08001756 	.word	0x08001756
 80030bc:	0800166c 	.word	0x0800166c
 80030c0:	080016f4 	.word	0x080016f4
 80030c4:	080016b6 	.word	0x080016b6
 80030c8:	0800166c 	.word	0x0800166c
 80030cc:	08001696 	.word	0x08001696
 80030d0:	08001660 	.word	0x08001660
 80030d4:	08001d1e 	.word	0x08001d1e
 80030d8:	08001d18 	.word	0x08001d18
 80030dc:	08001d12 	.word	0x08001d12
 80030e0:	08001d0c 	.word	0x08001d0c
 80030e4:	08001d06 	.word	0x08001d06
 80030e8:	08001d24 	.word	0x08001d24

080030ec <_ZN9stm32plus11UsbKeyboardIN9OneButton14UsbHidKeyboardEJEE17_langIdDescriptorE>:
 80030ec:	04090304                                ....

080030f0 <_ZN9stm32plus11UsbKeyboardIN9OneButton14UsbHidKeyboardEJEE14_hidDescriptorE>:
 80030f0:	01112109 3f220100 00000000              .!...."?....

080030fc <_ZN9stm32plus11UsbKeyboardIN9OneButton14UsbHidKeyboardEJEE17_reportDescriptorE>:
 80030fc:	06090105 017501a1 07050895 e729e019     ......u.......).
 800310c:	01250015 01950281 03810875 01750595     ..%.....u.....u.
 800311c:	01190805 02910529 03750195 06950391     ....).....u.....
 800312c:	00150875 07056525 65290019 00c00081     u...%e....)e....

0800313c <_ZN9stm32plus11UsbKeyboardIN9OneButton14UsbHidKeyboardEJEE24_configurationDescriptorE>:
 800313c:	00290209 80000101 000409fa 00030200     ..).............
 800314c:	21090001 01000111 07003f22 09038105     ...!...."?......
 800315c:	05070a00 00020301 0000000a              ............

08003168 <_ZN9stm32plus11UsbKeyboardIN9OneButton14UsbHidKeyboardEJEE17_deviceDescriptorE>:
 8003168:	02000112 40000000 deadcafe 02010200     .......@........
 8003178:	00000103                                ....

0800317c <_ZN9OneButton14UsbHidKeyboard12SerialStringE>:
 800317c:	0031030c 0030002e 0030002e              ..1...0...0.

08003188 <_ZN9OneButton14UsbHidKeyboard13ProductStringE>:
 8003188:	004f0316 0045004e 00420020 00540055     ..O.N.E. .B.U.T.
 8003198:	004f0054 0000004e                       T.O.N...

080031a0 <_ZN9OneButton14UsbHidKeyboard15InterfaceStringE>:
 80031a0:	00690308 00660074                       ..i.t.f.

080031a8 <_ZN9OneButton14UsbHidKeyboard18ManufacturerStringE>:
 80031a8:	004f0320 0045004e 00420020 00540055      .O.N.E. .B.U.T.
 80031b8:	004f0054 0000004e 00000000 00000000     T.O.N...........

080031c8 <_ZN9OneButton14UsbHidKeyboard19ConfigurationStringE>:
 80031c8:	00630308 00670066 00000102 000000aa     ..c.f.g.........

080031d8 <_global_impure_ptr>:
 80031d8:	20000010                                ... 

080031dc <_init>:
 80031dc:	b5f8      	push	{r3, r4, r5, r6, r7, lr}
 80031de:	46c0      	nop			; (mov r8, r8)
 80031e0:	bcf8      	pop	{r3, r4, r5, r6, r7}
 80031e2:	bc08      	pop	{r3}
 80031e4:	469e      	mov	lr, r3
 80031e6:	4770      	bx	lr

080031e8 <_fini>:
 80031e8:	b5f8      	push	{r3, r4, r5, r6, r7, lr}
 80031ea:	46c0      	nop			; (mov r8, r8)
 80031ec:	bcf8      	pop	{r3, r4, r5, r6, r7}
 80031ee:	bc08      	pop	{r3}
 80031f0:	469e      	mov	lr, r3
 80031f2:	4770      	bx	lr
